

Microchip MPLAB XC8 Assembler V2.41 build 20230208172133 
                                                                                               Sun Mar 26 10:52:17 2023

Microchip MPLAB XC8 C Compiler v2.41 (Free license) build 20230208172133 Og1 
     1                           	processor	16F877A
     2                           	pagewidth 120
     3                           	opt	flic
     4                           	psect	strings,global,class=STRING,delta=2,noexec
     5                           	psect	cinit,global,class=CODE,merge=1,delta=2
     6                           	psect	bssBANK1,global,class=BANK1,space=1,delta=1,noexec
     7                           	psect	clrtext,global,class=CODE,delta=2
     8                           	psect	cstackBANK1,global,class=BANK1,space=1,delta=1,noexec
     9                           	psect	cstackCOMMON,global,class=COMMON,space=1,delta=1,noexec
    10                           	psect	cstackBANK0,global,class=BANK0,space=1,delta=1,noexec
    11                           	psect	maintext,global,class=CODE,split=1,delta=2
    12                           	psect	text1,local,class=CODE,merge=1,delta=2,group=1
    13                           	psect	text2,local,class=CODE,merge=1,delta=2
    14                           	psect	text3,local,class=CODE,merge=1,delta=2
    15                           	psect	text4,local,class=CODE,merge=1,delta=2
    16                           	psect	text5,local,class=CODE,merge=1,delta=2
    17                           	psect	text6,local,class=CODE,merge=1,delta=2
    18                           	psect	text7,local,class=CODE,merge=1,delta=2
    19                           	psect	text8,local,class=CODE,merge=1,delta=2,group=1
    20                           	psect	text9,local,class=CODE,merge=1,delta=2,group=1
    21                           	psect	text10,local,class=CODE,merge=1,delta=2,group=1
    22                           	psect	text11,local,class=CODE,merge=1,delta=2,group=1
    23                           	psect	text12,local,class=CODE,merge=1,delta=2,group=1
    24                           	psect	text13,local,class=CODE,merge=1,delta=2,group=1
    25                           	psect	text14,local,class=CODE,merge=1,delta=2,group=1
    26                           	psect	text15,local,class=CODE,merge=1,delta=2,group=1
    27                           	psect	text16,local,class=CODE,merge=1,delta=2
    28                           	psect	text17,local,class=CODE,merge=1,delta=2
    29                           	psect	text18,local,class=CODE,merge=1,delta=2
    30                           	psect	config,global,abs,ovrld,class=CONFIG,space=4,delta=2,noexec
    31                           	dabs	1,0x7E,2
    32     0000                     
    33                           ; Version 2.40
    34                           ; Generated 17/11/2021 GMT
    35                           ; 
    36                           ; Copyright © 2021, Microchip Technology Inc. and its subsidiaries ("Microchip")
    37                           ; All rights reserved.
    38                           ; 
    39                           ; This software is developed by Microchip Technology Inc. and its subsidiaries ("Microch
      +                          ip").
    40                           ; 
    41                           ; Redistribution and use in source and binary forms, with or without modification, are
    42                           ; permitted provided that the following conditions are met:
    43                           ; 
    44                           ;     1. Redistributions of source code must retain the above copyright notice, this lis
      +                          t of
    45                           ;        conditions and the following disclaimer.
    46                           ; 
    47                           ;     2. Redistributions in binary form must reproduce the above copyright notice, this 
      +                          list
    48                           ;        of conditions and the following disclaimer in the documentation and/or other
    49                           ;        materials provided with the distribution. Publication is not required when
    50                           ;        this file is used in an embedded application.
    51                           ; 
    52                           ;     3. Microchip's name may not be used to endorse or promote products derived from th
      +                          is
    53                           ;        software without specific prior written permission.
    54                           ; 
    55                           ; THIS SOFTWARE IS PROVIDED BY MICROCHIP "AS IS" AND ANY EXPRESS OR IMPLIED WARRANTIES,
    56                           ; INCLUDING, BUT NOT LIMITED TO, THE IMPLIED WARRANTIES OF MERCHANTABILITY AND FITNESS F
      +                          OR
    57                           ; PURPOSE ARE DISCLAIMED.  IN NO EVENT SHALL MICROCHIP BE LIABLE FOR ANY DIRECT, INDIREC
      +                          T,
    58                           ; INCIDENTAL, SPECIAL, EXEMPLARY, OR CONSEQUENTIAL DAMAGES (INCLUDING BUT NOT LIMITED TO
    59                           ; PROCUREMENT OF SUBSTITUTE GOODS OR SERVICES; LOSS OF USE, DATA OR PROFITS; OR BUSINESS
    60                           ; INTERRUPTION) HOWSOEVER CAUSED AND ON ANY THEORY OF LIABILITY, WHETHER IN CONTRACT, ST
      +                          RICT
    61                           ; LIABILITY, OR TORT (INCLUDING NEGLIGENCE OR OTHERWISE) ARISING IN ANY WAY OUT OF THE U
      +                          SE OF
    62                           ; THIS SOFTWARE, EVEN IF ADVISED OF THE POSSIBILITY OF SUCH DAMAGE.
    63                           ; 
    64                           ; 
    65                           ; Code-generator required, PIC16F877A Definitions
    66                           ; 
    67                           ; SFR Addresses
    68     0000                     	;# 
    69     0001                     	;# 
    70     0002                     	;# 
    71     0003                     	;# 
    72     0004                     	;# 
    73     0005                     	;# 
    74     0006                     	;# 
    75     0007                     	;# 
    76     0008                     	;# 
    77     0009                     	;# 
    78     000A                     	;# 
    79     000B                     	;# 
    80     000C                     	;# 
    81     000D                     	;# 
    82     000E                     	;# 
    83     000E                     	;# 
    84     000F                     	;# 
    85     0010                     	;# 
    86     0011                     	;# 
    87     0012                     	;# 
    88     0013                     	;# 
    89     0014                     	;# 
    90     0015                     	;# 
    91     0015                     	;# 
    92     0016                     	;# 
    93     0017                     	;# 
    94     0018                     	;# 
    95     0019                     	;# 
    96     001A                     	;# 
    97     001B                     	;# 
    98     001B                     	;# 
    99     001C                     	;# 
   100     001D                     	;# 
   101     001E                     	;# 
   102     001F                     	;# 
   103     0081                     	;# 
   104     0085                     	;# 
   105     0086                     	;# 
   106     0087                     	;# 
   107     0088                     	;# 
   108     0089                     	;# 
   109     008C                     	;# 
   110     008D                     	;# 
   111     008E                     	;# 
   112     0091                     	;# 
   113     0092                     	;# 
   114     0093                     	;# 
   115     0094                     	;# 
   116     0098                     	;# 
   117     0099                     	;# 
   118     009C                     	;# 
   119     009D                     	;# 
   120     009E                     	;# 
   121     009F                     	;# 
   122     010C                     	;# 
   123     010D                     	;# 
   124     010E                     	;# 
   125     010F                     	;# 
   126     018C                     	;# 
   127     018D                     	;# 
   128     0000                     	;# 
   129     0001                     	;# 
   130     0002                     	;# 
   131     0003                     	;# 
   132     0004                     	;# 
   133     0005                     	;# 
   134     0006                     	;# 
   135     0007                     	;# 
   136     0008                     	;# 
   137     0009                     	;# 
   138     000A                     	;# 
   139     000B                     	;# 
   140     000C                     	;# 
   141     000D                     	;# 
   142     000E                     	;# 
   143     000E                     	;# 
   144     000F                     	;# 
   145     0010                     	;# 
   146     0011                     	;# 
   147     0012                     	;# 
   148     0013                     	;# 
   149     0014                     	;# 
   150     0015                     	;# 
   151     0015                     	;# 
   152     0016                     	;# 
   153     0017                     	;# 
   154     0018                     	;# 
   155     0019                     	;# 
   156     001A                     	;# 
   157     001B                     	;# 
   158     001B                     	;# 
   159     001C                     	;# 
   160     001D                     	;# 
   161     001E                     	;# 
   162     001F                     	;# 
   163     0081                     	;# 
   164     0085                     	;# 
   165     0086                     	;# 
   166     0087                     	;# 
   167     0088                     	;# 
   168     0089                     	;# 
   169     008C                     	;# 
   170     008D                     	;# 
   171     008E                     	;# 
   172     0091                     	;# 
   173     0092                     	;# 
   174     0093                     	;# 
   175     0094                     	;# 
   176     0098                     	;# 
   177     0099                     	;# 
   178     009C                     	;# 
   179     009D                     	;# 
   180     009E                     	;# 
   181     009F                     	;# 
   182     010C                     	;# 
   183     010D                     	;# 
   184     010E                     	;# 
   185     010F                     	;# 
   186     018C                     	;# 
   187     018D                     	;# 
   188     001E                     _ADRESH	set	30
   189     001F                     _ADCON0	set	31
   190     0006                     _PORTB	set	6
   191     00FA                     _GO_DONE	set	250
   192     00FA                     _GO	set	250
   193     003A                     _RC2	set	58
   194     0039                     _RC1	set	57
   195     0038                     _RC0	set	56
   196     0088                     _TRISD	set	136
   197     0086                     _TRISB	set	134
   198     009E                     _ADRESL	set	158
   199     009F                     _ADCON1	set	159
   200     043A                     _TRISC2	set	1082
   201     0439                     _TRISC1	set	1081
   202     0438                     _TRISC0	set	1080
   203                           
   204                           	psect	strings
   205     0003                     __pstrings:
   206     0003                     stringtab:
   207     0003                     __stringtab:
   208                           
   209                           ;	String table - string pointers are 1 byte each
   210     0003  1BFF               	btfsc	btemp+1,7
   211     0004  280D               	ljmp	stringcode
   212     0005  1383               	bcf	3,7
   213     0006  187F               	btfsc	btemp+1,0
   214     0007  1783               	bsf	3,7
   215     0008  0800               	movf	0,w
   216     0009  0A84               	incf	4,f
   217     000A  1903               	skipnz
   218     000B  0AFF               	incf	btemp+1,f
   219     000C  0008               	return
   220     000D                     stringcode:
   221     000D                     stringdir:
   222     000D  3000               	movlw	high stringdir
   223     000E  008A               	movwf	10
   224     000F  0804               	movf	4,w
   225     0010  0A84               	incf	4,f
   226     0011  0782               	addwf	2,f
   227     0012                     __stringbase:
   228     0012  3400               	retlw	0
   229     0013                     __end_of__stringtab:
   230     0013                     STR_2:
   231     0013  3456               	retlw	86	;'V'
   232     0014  3472               	retlw	114	;'r'
   233     0015  346D               	retlw	109	;'m'
   234     0016  3473               	retlw	115	;'s'
   235     0017  3420               	retlw	32	;' '
   236     0018  343D               	retlw	61	;'='
   237     0019  3420               	retlw	32	;' '
   238     001A  3400               	retlw	0
   239     001B                     STR_1:
   240     001B  3449               	retlw	73	;'I'
   241     001C  3444               	retlw	68	;'D'
   242     001D  3449               	retlw	73	;'I'
   243     001E  3445               	retlw	69	;'E'
   244     001F  3400               	retlw	0
   245     0013                     
   246                           	psect	cinit
   247     07F3                     start_initialization:	
   248                           ; #config settings
   249                           
   250     07F3                     __initialization:
   251                           
   252                           ; Clear objects allocated to BANK1
   253     07F3  1383               	bcf	3,7	;select IRP bank0
   254     07F4  30DB               	movlw	low __pbssBANK1
   255     07F5  0084               	movwf	4
   256     07F6  30EC               	movlw	low (__pbssBANK1+17)
   257     07F7  160A  118A  26F2  120A  118A  	fcall	clear_ram0
   258     07FC                     end_of_initialization:	
   259                           ;End of C runtime variable initialization code
   260                           
   261     07FC                     __end_of__initialization:
   262     07FC  0183               	clrf	3
   263     07FD  120A  158A  2D3C   	ljmp	_main	;jump to C main() function
   264                           
   265                           	psect	bssBANK1
   266     00DB                     __pbssBANK1:
   267     00DB                     _errno:
   268     00DB                     	ds	2
   269     00DD                     _cadena:
   270     00DD                     	ds	15
   271                           
   272                           	psect	clrtext
   273     16F2                     clear_ram0:	
   274                           ;	Called with FSR containing the base address, and
   275                           ;	W with the last address+1
   276                           
   277     16F2  0064               	clrwdt	;clear the watchdog before getting into this loop
   278     16F3                     clrloop0:
   279     16F3  0180               	clrf	0	;clear RAM location pointed to by FSR
   280     16F4  0A84               	incf	4,f	;increment pointer
   281     16F5  0604               	xorwf	4,w	;XOR with final address
   282     16F6  1903               	btfsc	3,2	;have we reached the end yet?
   283     16F7  3400               	retlw	0	;all done for this memory range, return
   284     16F8  0604               	xorwf	4,w	;XOR again to restore value
   285     16F9  2EF3               	goto	clrloop0	;do the next byte
   286                           
   287                           	psect	cstackBANK1
   288     00A0                     __pcstackBANK1:
   289     00A0                     ??___fltol:
   290     00A0                     ?___fladd:	
   291                           ; 1 bytes @ 0x0
   292                           
   293     00A0                     ___fladd@b:	
   294                           ; 4 bytes @ 0x0
   295                           
   296                           
   297                           ; 4 bytes @ 0x0
   298     00A0                     	ds	4
   299     00A4                     ___fladd@a:
   300                           
   301                           ; 4 bytes @ 0x4
   302     00A4                     	ds	4
   303     00A8                     ??___fladd:
   304                           
   305                           ; 1 bytes @ 0x8
   306     00A8                     	ds	8
   307     00B0                     ?___flsub:
   308     00B0                     ___flsub@a:	
   309                           ; 4 bytes @ 0x10
   310                           
   311                           
   312                           ; 4 bytes @ 0x10
   313     00B0                     	ds	4
   314     00B4                     ___flsub@b:
   315                           
   316                           ; 4 bytes @ 0x14
   317     00B4                     	ds	4
   318     00B8                     ?_float_LCD:
   319     00B8                     float_LCD@value:	
   320                           ; 1 bytes @ 0x18
   321                           
   322                           
   323                           ; 4 bytes @ 0x18
   324     00B8                     	ds	4
   325     00BC                     float_LCD@flag:
   326                           
   327                           ; 1 bytes @ 0x1C
   328     00BC                     	ds	1
   329     00BD                     float_LCD@v_temp:
   330                           
   331                           ; 2 bytes @ 0x1D
   332     00BD                     	ds	2
   333     00BF                     float_LCD@pow_10:
   334                           
   335                           ; 2 bytes @ 0x1F
   336     00BF                     	ds	2
   337     00C1                     float_LCD@i:
   338                           
   339                           ; 2 bytes @ 0x21
   340     00C1                     	ds	2
   341     00C3                     _main$767:
   342                           
   343                           ; 4 bytes @ 0x23
   344     00C3                     	ds	4
   345     00C7                     main@adcValue:
   346                           
   347                           ; 2 bytes @ 0x27
   348     00C7                     	ds	2
   349     00C9                     main@count:
   350                           
   351                           ; 1 bytes @ 0x29
   352     00C9                     	ds	1
   353     00CA                     main@suma:
   354                           
   355                           ; 4 bytes @ 0x2A
   356     00CA                     	ds	4
   357     00CE                     main@c2:
   358                           
   359                           ; 1 bytes @ 0x2E
   360     00CE                     	ds	1
   361     00CF                     main@prom_1:
   362                           
   363                           ; 4 bytes @ 0x2F
   364     00CF                     	ds	4
   365     00D3                     main@total:
   366                           
   367                           ; 4 bytes @ 0x33
   368     00D3                     	ds	4
   369     00D7                     main@val:
   370                           
   371                           ; 4 bytes @ 0x37
   372     00D7                     	ds	4
   373                           
   374                           	psect	cstackCOMMON
   375     0070                     __pcstackCOMMON:
   376     0070                     ?_cmd:
   377     0070                     ?_num_s:	
   378                           ; 1 bytes @ 0x0
   379                           
   380     0070                     ?_delay:	
   381                           ; 1 bytes @ 0x0
   382                           
   383     0070                     ?_lcd_init:	
   384                           ; 1 bytes @ 0x0
   385                           
   386     0070                     ?_dat:	
   387                           ; 1 bytes @ 0x0
   388                           
   389     0070                     ?_ADC_Init:	
   390                           ; 1 bytes @ 0x0
   391                           
   392     0070                     ??_ADC_Init:	
   393                           ; 1 bytes @ 0x0
   394                           
   395     0070                     ?__Umul8_16:	
   396                           ; 1 bytes @ 0x0
   397                           
   398     0070                     ?_main:	
   399                           ; 2 bytes @ 0x0
   400                           
   401     0070                     ?___awdiv:	
   402                           ; 2 bytes @ 0x0
   403                           
   404     0070                     ?_sqrt:	
   405                           ; 2 bytes @ 0x0
   406                           
   407     0070                     ?___xxtofl:	
   408                           ; 4 bytes @ 0x0
   409                           
   410     0070                     __Umul8_16@multiplicand:	
   411                           ; 4 bytes @ 0x0
   412                           
   413     0070                     num_s@val:	
   414                           ; 1 bytes @ 0x0
   415                           
   416     0070                     delay@cnt:	
   417                           ; 2 bytes @ 0x0
   418                           
   419     0070                     ___awdiv@divisor:	
   420                           ; 2 bytes @ 0x0
   421                           
   422     0070                     sqrt@a:	
   423                           ; 2 bytes @ 0x0
   424                           
   425     0070                     ___xxtofl@val:	
   426                           ; 4 bytes @ 0x0
   427                           
   428                           
   429                           ; 4 bytes @ 0x0
   430     0070                     	ds	2
   431     0072                     ??_cmd:
   432     0072                     ??__Umul8_16:	
   433                           ; 1 bytes @ 0x2
   434                           
   435     0072                     ??_delay:	
   436                           ; 1 bytes @ 0x2
   437                           
   438     0072                     ??_dat:	
   439                           ; 1 bytes @ 0x2
   440                           
   441     0072                     ?_ADC_Read:	
   442                           ; 1 bytes @ 0x2
   443                           
   444     0072                     num_s@flag:	
   445                           ; 2 bytes @ 0x2
   446                           
   447     0072                     cmd@a:	
   448                           ; 1 bytes @ 0x2
   449                           
   450     0072                     dat@b:	
   451                           ; 1 bytes @ 0x2
   452                           
   453     0072                     ADC_Read@adcChannel:	
   454                           ; 1 bytes @ 0x2
   455                           
   456     0072                     ___awdiv@dividend:	
   457                           ; 2 bytes @ 0x2
   458                           
   459                           
   460                           ; 2 bytes @ 0x2
   461     0072                     	ds	1
   462     0073                     ??_num_s:
   463     0073                     ??_lcd_init:	
   464                           ; 1 bytes @ 0x3
   465                           
   466     0073                     ?_show:	
   467                           ; 1 bytes @ 0x3
   468                           
   469     0073                     show@s:	
   470                           ; 1 bytes @ 0x3
   471                           
   472                           
   473                           ; 2 bytes @ 0x3
   474     0073                     	ds	1
   475     0074                     ??_sqrt:
   476     0074                     ??_ADC_Read:	
   477                           ; 1 bytes @ 0x4
   478                           
   479     0074                     ??___awdiv:	
   480                           ; 1 bytes @ 0x4
   481                           
   482     0074                     ??___xxtofl:	
   483                           ; 1 bytes @ 0x4
   484                           
   485     0074                     ___awdiv@counter:	
   486                           ; 1 bytes @ 0x4
   487                           
   488     0074                     __Umul8_16@product:	
   489                           ; 1 bytes @ 0x4
   490                           
   491                           
   492                           ; 2 bytes @ 0x4
   493     0074                     	ds	1
   494     0075                     ??_show:
   495     0075                     ___awdiv@sign:	
   496                           ; 1 bytes @ 0x5
   497                           
   498                           
   499                           ; 1 bytes @ 0x5
   500     0075                     	ds	1
   501     0076                     ___awdiv@quotient:
   502     0076                     __Umul8_16@word_mpld:	
   503                           ; 2 bytes @ 0x6
   504                           
   505                           
   506                           ; 2 bytes @ 0x6
   507     0076                     	ds	2
   508     0078                     __Umul8_16@multiplier:
   509     0078                     ___xxtofl@sign:	
   510                           ; 1 bytes @ 0x8
   511                           
   512                           
   513                           ; 1 bytes @ 0x8
   514     0078                     	ds	1
   515     0079                     ___xxtofl@exp:
   516                           
   517                           ; 1 bytes @ 0x9
   518     0079                     	ds	1
   519     007A                     ___xxtofl@arg:
   520                           
   521                           ; 4 bytes @ 0xA
   522     007A                     	ds	4
   523     007E                     ??_float_LCD:
   524     007E                     ??___flsub:	
   525                           ; 1 bytes @ 0xE
   526                           
   527                           
   528                           	psect	cstackBANK0
   529     0020                     __pcstackBANK0:	
   530                           ; 1 bytes @ 0xE
   531                           
   532     0020                     sqrt@sign:
   533                           
   534                           ; 1 bytes @ 0x0
   535     0020                     	ds	1
   536     0021                     sqrt@i:
   537                           
   538                           ; 1 bytes @ 0x1
   539     0021                     	ds	1
   540     0022                     sqrt@tfrac:
   541                           
   542                           ; 4 bytes @ 0x2
   543     0022                     	ds	4
   544     0026                     sqrt@p:
   545                           
   546                           ; 1 bytes @ 0x6
   547     0026                     	ds	1
   548     0027                     sqrt@grs:
   549                           
   550                           ; 4 bytes @ 0x7
   551     0027                     	ds	4
   552     002B                     sqrt@exp:
   553                           
   554                           ; 2 bytes @ 0xB
   555     002B                     	ds	2
   556     002D                     sqrt@root:
   557                           
   558                           ; 4 bytes @ 0xD
   559     002D                     	ds	4
   560     0031                     sqrt@frac:
   561                           
   562                           ; 4 bytes @ 0x11
   563     0031                     	ds	4
   564     0035                     ?___flmul:
   565     0035                     ___flmul@b:	
   566                           ; 4 bytes @ 0x15
   567                           
   568                           
   569                           ; 4 bytes @ 0x15
   570     0035                     	ds	4
   571     0039                     ___flmul@a:
   572                           
   573                           ; 4 bytes @ 0x19
   574     0039                     	ds	4
   575     003D                     ??___flmul:
   576                           
   577                           ; 1 bytes @ 0x1D
   578     003D                     	ds	5
   579     0042                     ___flmul@sign:
   580                           
   581                           ; 1 bytes @ 0x22
   582     0042                     	ds	1
   583     0043                     ___flmul@grs:
   584                           
   585                           ; 4 bytes @ 0x23
   586     0043                     	ds	4
   587     0047                     ___flmul@aexp:
   588                           
   589                           ; 1 bytes @ 0x27
   590     0047                     	ds	1
   591     0048                     ___flmul@bexp:
   592                           
   593                           ; 1 bytes @ 0x28
   594     0048                     	ds	1
   595     0049                     ___flmul@prod:
   596                           
   597                           ; 4 bytes @ 0x29
   598     0049                     	ds	4
   599     004D                     ___flmul@temp:
   600                           
   601                           ; 2 bytes @ 0x2D
   602     004D                     	ds	2
   603     004F                     ?___fldiv:
   604     004F                     ___fldiv@a:	
   605                           ; 4 bytes @ 0x2F
   606                           
   607                           
   608                           ; 4 bytes @ 0x2F
   609     004F                     	ds	4
   610     0053                     ___fldiv@b:
   611                           
   612                           ; 4 bytes @ 0x33
   613     0053                     	ds	4
   614     0057                     ??___fldiv:
   615                           
   616                           ; 1 bytes @ 0x37
   617     0057                     	ds	5
   618     005C                     ___fldiv@rem:
   619                           
   620                           ; 4 bytes @ 0x3C
   621     005C                     	ds	4
   622     0060                     ___fldiv@sign:
   623                           
   624                           ; 1 bytes @ 0x40
   625     0060                     	ds	1
   626     0061                     ___fldiv@new_exp:
   627                           
   628                           ; 2 bytes @ 0x41
   629     0061                     	ds	2
   630     0063                     ___fldiv@grs:
   631                           
   632                           ; 4 bytes @ 0x43
   633     0063                     	ds	4
   634     0067                     ___fldiv@bexp:
   635                           
   636                           ; 1 bytes @ 0x47
   637     0067                     	ds	1
   638     0068                     ___fldiv@aexp:
   639                           
   640                           ; 1 bytes @ 0x48
   641     0068                     	ds	1
   642     0069                     ?___fltol:
   643     0069                     ___fladd@signs:	
   644                           ; 4 bytes @ 0x49
   645                           
   646     0069                     ___fltol@f1:	
   647                           ; 1 bytes @ 0x49
   648                           
   649                           
   650                           ; 4 bytes @ 0x49
   651     0069                     	ds	1
   652     006A                     ___fladd@aexp:
   653                           
   654                           ; 1 bytes @ 0x4A
   655     006A                     	ds	1
   656     006B                     ___fladd@bexp:
   657                           
   658                           ; 1 bytes @ 0x4B
   659     006B                     	ds	1
   660     006C                     ___fladd@grs:
   661                           
   662                           ; 1 bytes @ 0x4C
   663     006C                     	ds	1
   664     006D                     ___fltol@sign1:
   665                           
   666                           ; 1 bytes @ 0x4D
   667     006D                     	ds	1
   668     006E                     ___fltol@exp1:
   669                           
   670                           ; 1 bytes @ 0x4E
   671     006E                     	ds	1
   672     006F                     ??_main:
   673                           
   674                           ; 1 bytes @ 0x4F
   675     006F                     	ds	1
   676                           
   677                           	psect	maintext
   678     0D3C                     __pmaintext:	
   679 ;;
   680 ;;Main: autosize = 0, tempsize = 1, incstack = 0, save=0
   681 ;;
   682 ;; *************** function _main *****************
   683 ;; Defined at:
   684 ;;		line 167 in file "main_scale.c"
   685 ;; Parameters:    Size  Location     Type
   686 ;;		None
   687 ;; Auto vars:     Size  Location     Type
   688 ;;  val             4   55[BANK1 ] float 
   689 ;;  total           4   51[BANK1 ] float 
   690 ;;  prom_1          4   47[BANK1 ] float 
   691 ;;  suma            4   42[BANK1 ] float 
   692 ;;  adcValue        2   39[BANK1 ] int 
   693 ;;  m               2    0        int 
   694 ;;  i               2    0        unsigned int 
   695 ;;  c2              1   46[BANK1 ] unsigned char 
   696 ;;  count           1   41[BANK1 ] unsigned char 
   697 ;; Return value:  Size  Location     Type
   698 ;;                  2   97[None  ] int 
   699 ;; Registers used:
   700 ;;		wreg, fsr0l, fsr0h, status,2, status,0, btemp+1, pclath, cstack
   701 ;; Tracked objects:
   702 ;;		On entry : B00/0
   703 ;;		On exit  : 0/0
   704 ;;		Unchanged: 0/0
   705 ;; Data sizes:     COMMON   BANK0   BANK1   BANK3   BANK2
   706 ;;      Params:         0       0       0       0       0
   707 ;;      Locals:         0       0      24       0       0
   708 ;;      Temps:          0       1       0       0       0
   709 ;;      Totals:         0       1      24       0       0
   710 ;;Total ram usage:       25 bytes
   711 ;; Hardware stack levels required when called: 3
   712 ;; This function calls:
   713 ;;		_ADC_Init
   714 ;;		_ADC_Read
   715 ;;		___fladd
   716 ;;		___fldiv
   717 ;;		___flmul
   718 ;;		___xxtofl
   719 ;;		_cmd
   720 ;;		_float_LCD
   721 ;;		_lcd_init
   722 ;;		_show
   723 ;;		_sqrt
   724 ;; This function is called by:
   725 ;;		Startup code after reset
   726 ;; This function uses a non-reentrant model
   727 ;;
   728                           
   729     0D3C                     _main:	
   730                           ;psect for function _main
   731                           
   732     0D3C                     l2608:	
   733                           ;incstack = 0
   734                           ; Regs used in _main: [wreg-fsr0h+status,2+status,0+btemp+1+pclath+cstack]
   735                           
   736                           
   737                           ;main_scale.c: 171:     TRISB = 0x00;
   738     0D3C  1683               	bsf	3,5	;RP0=1, select bank1
   739     0D3D  1303               	bcf	3,6	;RP1=0, select bank1
   740     0D3E  0186               	clrf	6	;volatile
   741                           
   742                           ;main_scale.c: 172:     TRISD = 0x00;
   743     0D3F  0188               	clrf	8	;volatile
   744     0D40                     l2610:
   745                           
   746                           ;main_scale.c: 173:     TRISC0=TRISC1=TRISC2=0;
   747     0D40  1107               	bcf	7,2	;volatile
   748     0D41  1087               	bcf	7,1	;volatile
   749     0D42  1007               	bcf	7,0	;volatile
   750     0D43                     l2612:
   751                           
   752                           ;main_scale.c: 176:     ADC_Init();
   753     0D43  160A  118A  26EA  120A  158A  	fcall	_ADC_Init
   754     0D48                     l2614:
   755                           
   756                           ;main_scale.c: 177:     char count = 0;
   757     0D48  1683               	bsf	3,5	;RP0=1, select bank1
   758     0D49  1303               	bcf	3,6	;RP1=0, select bank1
   759     0D4A  01C9               	clrf	main@count^(0+128)
   760     0D4B                     l2616:
   761                           
   762                           ;main_scale.c: 178:     char c2 = 31;
   763     0D4B  301F               	movlw	31
   764     0D4C  00CE               	movwf	main@c2^(0+128)
   765     0D4D                     l2618:
   766                           
   767                           ;main_scale.c: 179:     float suma = 0;
   768     0D4D  3000               	movlw	0
   769     0D4E  00CD               	movwf	(main@suma+3)^(0+128)
   770     0D4F  3000               	movlw	0
   771     0D50  00CC               	movwf	(main@suma+2)^(0+128)
   772     0D51  3000               	movlw	0
   773     0D52  00CB               	movwf	(main@suma+1)^(0+128)
   774     0D53  3000               	movlw	0
   775     0D54  00CA               	movwf	main@suma^(0+128)
   776     0D55                     l2620:
   777     0D55                     l2622:
   778     0D55                     l2624:
   779     0D55                     l2626:
   780                           
   781                           ;main_scale.c: 184:     unsigned int i;;main_scale.c: 185:     lcd_init();
   782     0D55  160A  118A  2733  120A  158A  	fcall	_lcd_init
   783     0D5A                     l2628:
   784                           
   785                           ;main_scale.c: 186:     cmd(0x8A);
   786     0D5A  308A               	movlw	138
   787     0D5B  160A  118A  2709  120A  158A  	fcall	_cmd
   788     0D60                     l2630:
   789                           
   790                           ;main_scale.c: 187:     show("IDIE");
   791     0D60  3009               	movlw	(low ((STR_1-__stringbase)| (0+32768)))& (0+255)
   792     0D61  00F3               	movwf	show@s
   793     0D62  3080               	movlw	128
   794     0D63  00F4               	movwf	show@s+1
   795     0D64  160A  118A  274C  120A  158A  	fcall	_show
   796     0D69                     l2632:
   797                           
   798                           ;main_scale.c: 189:     {;main_scale.c: 190:         _delay((unsigned long)((0.416)*(400
      +                          0000/4000.0)));
   799     0D69  3089               	movlw	137
   800     0D6A  1283               	bcf	3,5	;RP0=0, select bank0
   801     0D6B  1303               	bcf	3,6	;RP1=0, select bank0
   802     0D6C  00EF               	movwf	??_main
   803     0D6D                     u3637:
   804     0D6D  0BEF               	decfsz	??_main,f
   805     0D6E  2D6D               	goto	u3637
   806     0D6F  2D70               	nop2
   807     0D70                     l2634:
   808                           
   809                           ;main_scale.c: 198:         adcValue = ADC_Read(0);
   810     0D70  3000               	movlw	0
   811     0D71  00F2               	movwf	ADC_Read@adcChannel
   812     0D72  00F3               	movwf	ADC_Read@adcChannel+1
   813     0D73  120A  158A  2025  120A  158A  	fcall	_ADC_Read
   814     0D78  0873               	movf	?_ADC_Read+1,w
   815     0D79  1683               	bsf	3,5	;RP0=1, select bank1
   816     0D7A  1303               	bcf	3,6	;RP1=0, select bank1
   817     0D7B  00C8               	movwf	(main@adcValue+1)^(0+128)
   818     0D7C  0872               	movf	?_ADC_Read,w
   819     0D7D  00C7               	movwf	main@adcValue^(0+128)
   820     0D7E                     l2636:
   821                           
   822                           ;main_scale.c: 199:         count++;
   823     0D7E  3001               	movlw	1
   824     0D7F  00FF               	movwf	btemp+1
   825     0D80  087F               	movf	btemp+1,w
   826     0D81  07C9               	addwf	main@count^(0+128),f
   827     0D82                     l2638:
   828                           
   829                           ;main_scale.c: 205:         val = (((float)adcValue*5/1024)-2.5);
   830     0D82  30C0               	movlw	192
   831     0D83  00A3               	movwf	(___fladd@b+3)^(0+128)
   832     0D84  3020               	movlw	32
   833     0D85  00A2               	movwf	(___fladd@b+2)^(0+128)
   834     0D86  3000               	movlw	0
   835     0D87  00A1               	movwf	(___fladd@b+1)^(0+128)
   836     0D88  3000               	movlw	0
   837     0D89  00A0               	movwf	___fladd@b^(0+128)
   838     0D8A  3044               	movlw	68
   839     0D8B  1283               	bcf	3,5	;RP0=0, select bank0
   840     0D8C  1303               	bcf	3,6	;RP1=0, select bank0
   841     0D8D  00D2               	movwf	___fldiv@a+3
   842     0D8E  3080               	movlw	128
   843     0D8F  00D1               	movwf	___fldiv@a+2
   844     0D90  3000               	movlw	0
   845     0D91  00D0               	movwf	___fldiv@a+1
   846     0D92  3000               	movlw	0
   847     0D93  00CF               	movwf	___fldiv@a
   848     0D94  3040               	movlw	64
   849     0D95  00B8               	movwf	___flmul@b+3
   850     0D96  30A0               	movlw	160
   851     0D97  00B7               	movwf	___flmul@b+2
   852     0D98  3000               	movlw	0
   853     0D99  00B6               	movwf	___flmul@b+1
   854     0D9A  3000               	movlw	0
   855     0D9B  00B5               	movwf	___flmul@b
   856     0D9C  1683               	bsf	3,5	;RP0=1, select bank1
   857     0D9D  1303               	bcf	3,6	;RP1=0, select bank1
   858     0D9E  0847               	movf	main@adcValue^(0+128),w
   859     0D9F  00F0               	movwf	___xxtofl@val
   860     0DA0  0848               	movf	(main@adcValue+1)^(0+128),w
   861     0DA1  00F1               	movwf	___xxtofl@val+1
   862     0DA2  3000               	movlw	0
   863     0DA3  1BF1               	btfsc	___xxtofl@val+1,7
   864     0DA4  30FF               	movlw	255
   865     0DA5  00F2               	movwf	___xxtofl@val+2
   866     0DA6  00F3               	movwf	___xxtofl@val+3
   867     0DA7  3001               	movlw	1
   868     0DA8  120A  158A  20DF  120A  158A  	fcall	___xxtofl
   869     0DAD  0873               	movf	?___xxtofl+3,w
   870     0DAE  1283               	bcf	3,5	;RP0=0, select bank0
   871     0DAF  1303               	bcf	3,6	;RP1=0, select bank0
   872     0DB0  00BC               	movwf	___flmul@a+3
   873     0DB1  0872               	movf	?___xxtofl+2,w
   874     0DB2  00BB               	movwf	___flmul@a+2
   875     0DB3  0871               	movf	?___xxtofl+1,w
   876     0DB4  00BA               	movwf	___flmul@a+1
   877     0DB5  0870               	movf	?___xxtofl,w
   878     0DB6  00B9               	movwf	___flmul@a
   879     0DB7  120A  118A  24AE  120A  158A  	fcall	___flmul
   880     0DBC  1283               	bcf	3,5	;RP0=0, select bank0
   881     0DBD  1303               	bcf	3,6	;RP1=0, select bank0
   882     0DBE  0838               	movf	?___flmul+3,w
   883     0DBF  00D6               	movwf	___fldiv@b+3
   884     0DC0  0837               	movf	?___flmul+2,w
   885     0DC1  00D5               	movwf	___fldiv@b+2
   886     0DC2  0836               	movf	?___flmul+1,w
   887     0DC3  00D4               	movwf	___fldiv@b+1
   888     0DC4  0835               	movf	?___flmul,w
   889     0DC5  00D3               	movwf	___fldiv@b
   890     0DC6  120A  158A  2197  120A  158A  	fcall	___fldiv
   891     0DCB  1283               	bcf	3,5	;RP0=0, select bank0
   892     0DCC  1303               	bcf	3,6	;RP1=0, select bank0
   893     0DCD  0852               	movf	?___fldiv+3,w
   894     0DCE  1683               	bsf	3,5	;RP0=1, select bank1
   895     0DCF  1303               	bcf	3,6	;RP1=0, select bank1
   896     0DD0  00A7               	movwf	(___fladd@a+3)^(0+128)
   897     0DD1  1283               	bcf	3,5	;RP0=0, select bank0
   898     0DD2  1303               	bcf	3,6	;RP1=0, select bank0
   899     0DD3  0851               	movf	?___fldiv+2,w
   900     0DD4  1683               	bsf	3,5	;RP0=1, select bank1
   901     0DD5  1303               	bcf	3,6	;RP1=0, select bank1
   902     0DD6  00A6               	movwf	(___fladd@a+2)^(0+128)
   903     0DD7  1283               	bcf	3,5	;RP0=0, select bank0
   904     0DD8  1303               	bcf	3,6	;RP1=0, select bank0
   905     0DD9  0850               	movf	?___fldiv+1,w
   906     0DDA  1683               	bsf	3,5	;RP0=1, select bank1
   907     0DDB  1303               	bcf	3,6	;RP1=0, select bank1
   908     0DDC  00A5               	movwf	(___fladd@a+1)^(0+128)
   909     0DDD  1283               	bcf	3,5	;RP0=0, select bank0
   910     0DDE  1303               	bcf	3,6	;RP1=0, select bank0
   911     0DDF  084F               	movf	?___fldiv,w
   912     0DE0  1683               	bsf	3,5	;RP0=1, select bank1
   913     0DE1  1303               	bcf	3,6	;RP1=0, select bank1
   914     0DE2  00A4               	movwf	___fladd@a^(0+128)
   915     0DE3  120A  118A  21B8  120A  158A  	fcall	___fladd
   916     0DE8  1683               	bsf	3,5	;RP0=1, select bank1
   917     0DE9  1303               	bcf	3,6	;RP1=0, select bank1
   918     0DEA  0823               	movf	(?___fladd+3)^(0+128),w
   919     0DEB  00DA               	movwf	(main@val+3)^(0+128)
   920     0DEC  0822               	movf	(?___fladd+2)^(0+128),w
   921     0DED  00D9               	movwf	(main@val+2)^(0+128)
   922     0DEE  0821               	movf	(?___fladd+1)^(0+128),w
   923     0DEF  00D8               	movwf	(main@val+1)^(0+128)
   924     0DF0  0820               	movf	?___fladd^(0+128),w
   925     0DF1  00D7               	movwf	main@val^(0+128)
   926     0DF2                     l2640:
   927                           
   928                           ;main_scale.c: 206:         val = val*val*0.000416;
   929     0DF2  085A               	movf	(main@val+3)^(0+128),w
   930     0DF3  1283               	bcf	3,5	;RP0=0, select bank0
   931     0DF4  1303               	bcf	3,6	;RP1=0, select bank0
   932     0DF5  00B8               	movwf	___flmul@b+3
   933     0DF6  1683               	bsf	3,5	;RP0=1, select bank1
   934     0DF7  1303               	bcf	3,6	;RP1=0, select bank1
   935     0DF8  0859               	movf	(main@val+2)^(0+128),w
   936     0DF9  1283               	bcf	3,5	;RP0=0, select bank0
   937     0DFA  1303               	bcf	3,6	;RP1=0, select bank0
   938     0DFB  00B7               	movwf	___flmul@b+2
   939     0DFC  1683               	bsf	3,5	;RP0=1, select bank1
   940     0DFD  1303               	bcf	3,6	;RP1=0, select bank1
   941     0DFE  0858               	movf	(main@val+1)^(0+128),w
   942     0DFF  1283               	bcf	3,5	;RP0=0, select bank0
   943     0E00  1303               	bcf	3,6	;RP1=0, select bank0
   944     0E01  00B6               	movwf	___flmul@b+1
   945     0E02  1683               	bsf	3,5	;RP0=1, select bank1
   946     0E03  1303               	bcf	3,6	;RP1=0, select bank1
   947     0E04  0857               	movf	main@val^(0+128),w
   948     0E05  1283               	bcf	3,5	;RP0=0, select bank0
   949     0E06  1303               	bcf	3,6	;RP1=0, select bank0
   950     0E07  00B5               	movwf	___flmul@b
   951     0E08  1683               	bsf	3,5	;RP0=1, select bank1
   952     0E09  1303               	bcf	3,6	;RP1=0, select bank1
   953     0E0A  085A               	movf	(main@val+3)^(0+128),w
   954     0E0B  1283               	bcf	3,5	;RP0=0, select bank0
   955     0E0C  1303               	bcf	3,6	;RP1=0, select bank0
   956     0E0D  00BC               	movwf	___flmul@a+3
   957     0E0E  1683               	bsf	3,5	;RP0=1, select bank1
   958     0E0F  1303               	bcf	3,6	;RP1=0, select bank1
   959     0E10  0859               	movf	(main@val+2)^(0+128),w
   960     0E11  1283               	bcf	3,5	;RP0=0, select bank0
   961     0E12  1303               	bcf	3,6	;RP1=0, select bank0
   962     0E13  00BB               	movwf	___flmul@a+2
   963     0E14  1683               	bsf	3,5	;RP0=1, select bank1
   964     0E15  1303               	bcf	3,6	;RP1=0, select bank1
   965     0E16  0858               	movf	(main@val+1)^(0+128),w
   966     0E17  1283               	bcf	3,5	;RP0=0, select bank0
   967     0E18  1303               	bcf	3,6	;RP1=0, select bank0
   968     0E19  00BA               	movwf	___flmul@a+1
   969     0E1A  1683               	bsf	3,5	;RP0=1, select bank1
   970     0E1B  1303               	bcf	3,6	;RP1=0, select bank1
   971     0E1C  0857               	movf	main@val^(0+128),w
   972     0E1D  1283               	bcf	3,5	;RP0=0, select bank0
   973     0E1E  1303               	bcf	3,6	;RP1=0, select bank0
   974     0E1F  00B9               	movwf	___flmul@a
   975     0E20  120A  118A  24AE  120A  158A  	fcall	___flmul
   976     0E25  1283               	bcf	3,5	;RP0=0, select bank0
   977     0E26  1303               	bcf	3,6	;RP1=0, select bank0
   978     0E27  0838               	movf	?___flmul+3,w
   979     0E28  1683               	bsf	3,5	;RP0=1, select bank1
   980     0E29  1303               	bcf	3,6	;RP1=0, select bank1
   981     0E2A  00C6               	movwf	(_main$767+3)^(0+128)
   982     0E2B  1283               	bcf	3,5	;RP0=0, select bank0
   983     0E2C  1303               	bcf	3,6	;RP1=0, select bank0
   984     0E2D  0837               	movf	?___flmul+2,w
   985     0E2E  1683               	bsf	3,5	;RP0=1, select bank1
   986     0E2F  1303               	bcf	3,6	;RP1=0, select bank1
   987     0E30  00C5               	movwf	(_main$767+2)^(0+128)
   988     0E31  1283               	bcf	3,5	;RP0=0, select bank0
   989     0E32  1303               	bcf	3,6	;RP1=0, select bank0
   990     0E33  0836               	movf	?___flmul+1,w
   991     0E34  1683               	bsf	3,5	;RP0=1, select bank1
   992     0E35  1303               	bcf	3,6	;RP1=0, select bank1
   993     0E36  00C4               	movwf	(_main$767+1)^(0+128)
   994     0E37  1283               	bcf	3,5	;RP0=0, select bank0
   995     0E38  1303               	bcf	3,6	;RP1=0, select bank0
   996     0E39  0835               	movf	?___flmul,w
   997     0E3A  1683               	bsf	3,5	;RP0=1, select bank1
   998     0E3B  1303               	bcf	3,6	;RP1=0, select bank1
   999     0E3C  00C3               	movwf	_main$767^(0+128)
  1000     0E3D                     l2642:
  1001                           
  1002                           ;main_scale.c: 206:         val = val*val*0.000416;
  1003     0E3D  3039               	movlw	57
  1004     0E3E  1283               	bcf	3,5	;RP0=0, select bank0
  1005     0E3F  1303               	bcf	3,6	;RP1=0, select bank0
  1006     0E40  00B8               	movwf	___flmul@b+3
  1007     0E41  30DA               	movlw	218
  1008     0E42  00B7               	movwf	___flmul@b+2
  1009     0E43  301A               	movlw	26
  1010     0E44  00B6               	movwf	___flmul@b+1
  1011     0E45  3093               	movlw	147
  1012     0E46  00B5               	movwf	___flmul@b
  1013     0E47  1683               	bsf	3,5	;RP0=1, select bank1
  1014     0E48  1303               	bcf	3,6	;RP1=0, select bank1
  1015     0E49  0846               	movf	(_main$767+3)^(0+128),w
  1016     0E4A  1283               	bcf	3,5	;RP0=0, select bank0
  1017     0E4B  1303               	bcf	3,6	;RP1=0, select bank0
  1018     0E4C  00BC               	movwf	___flmul@a+3
  1019     0E4D  1683               	bsf	3,5	;RP0=1, select bank1
  1020     0E4E  1303               	bcf	3,6	;RP1=0, select bank1
  1021     0E4F  0845               	movf	(_main$767+2)^(0+128),w
  1022     0E50  1283               	bcf	3,5	;RP0=0, select bank0
  1023     0E51  1303               	bcf	3,6	;RP1=0, select bank0
  1024     0E52  00BB               	movwf	___flmul@a+2
  1025     0E53  1683               	bsf	3,5	;RP0=1, select bank1
  1026     0E54  1303               	bcf	3,6	;RP1=0, select bank1
  1027     0E55  0844               	movf	(_main$767+1)^(0+128),w
  1028     0E56  1283               	bcf	3,5	;RP0=0, select bank0
  1029     0E57  1303               	bcf	3,6	;RP1=0, select bank0
  1030     0E58  00BA               	movwf	___flmul@a+1
  1031     0E59  1683               	bsf	3,5	;RP0=1, select bank1
  1032     0E5A  1303               	bcf	3,6	;RP1=0, select bank1
  1033     0E5B  0843               	movf	_main$767^(0+128),w
  1034     0E5C  1283               	bcf	3,5	;RP0=0, select bank0
  1035     0E5D  1303               	bcf	3,6	;RP1=0, select bank0
  1036     0E5E  00B9               	movwf	___flmul@a
  1037     0E5F  120A  118A  24AE  120A  158A  	fcall	___flmul
  1038     0E64  1283               	bcf	3,5	;RP0=0, select bank0
  1039     0E65  1303               	bcf	3,6	;RP1=0, select bank0
  1040     0E66  0838               	movf	?___flmul+3,w
  1041     0E67  1683               	bsf	3,5	;RP0=1, select bank1
  1042     0E68  1303               	bcf	3,6	;RP1=0, select bank1
  1043     0E69  00DA               	movwf	(main@val+3)^(0+128)
  1044     0E6A  1283               	bcf	3,5	;RP0=0, select bank0
  1045     0E6B  1303               	bcf	3,6	;RP1=0, select bank0
  1046     0E6C  0837               	movf	?___flmul+2,w
  1047     0E6D  1683               	bsf	3,5	;RP0=1, select bank1
  1048     0E6E  1303               	bcf	3,6	;RP1=0, select bank1
  1049     0E6F  00D9               	movwf	(main@val+2)^(0+128)
  1050     0E70  1283               	bcf	3,5	;RP0=0, select bank0
  1051     0E71  1303               	bcf	3,6	;RP1=0, select bank0
  1052     0E72  0836               	movf	?___flmul+1,w
  1053     0E73  1683               	bsf	3,5	;RP0=1, select bank1
  1054     0E74  1303               	bcf	3,6	;RP1=0, select bank1
  1055     0E75  00D8               	movwf	(main@val+1)^(0+128)
  1056     0E76  1283               	bcf	3,5	;RP0=0, select bank0
  1057     0E77  1303               	bcf	3,6	;RP1=0, select bank0
  1058     0E78  0835               	movf	?___flmul,w
  1059     0E79  1683               	bsf	3,5	;RP0=1, select bank1
  1060     0E7A  1303               	bcf	3,6	;RP1=0, select bank1
  1061     0E7B  00D7               	movwf	main@val^(0+128)
  1062     0E7C                     l2644:
  1063                           
  1064                           ;main_scale.c: 210:         suma += val;
  1065     0E7C  085A               	movf	(main@val+3)^(0+128),w
  1066     0E7D  00A3               	movwf	(___fladd@b+3)^(0+128)
  1067     0E7E  0859               	movf	(main@val+2)^(0+128),w
  1068     0E7F  00A2               	movwf	(___fladd@b+2)^(0+128)
  1069     0E80  0858               	movf	(main@val+1)^(0+128),w
  1070     0E81  00A1               	movwf	(___fladd@b+1)^(0+128)
  1071     0E82  0857               	movf	main@val^(0+128),w
  1072     0E83  00A0               	movwf	___fladd@b^(0+128)
  1073     0E84  084D               	movf	(main@suma+3)^(0+128),w
  1074     0E85  00A7               	movwf	(___fladd@a+3)^(0+128)
  1075     0E86  084C               	movf	(main@suma+2)^(0+128),w
  1076     0E87  00A6               	movwf	(___fladd@a+2)^(0+128)
  1077     0E88  084B               	movf	(main@suma+1)^(0+128),w
  1078     0E89  00A5               	movwf	(___fladd@a+1)^(0+128)
  1079     0E8A  084A               	movf	main@suma^(0+128),w
  1080     0E8B  00A4               	movwf	___fladd@a^(0+128)
  1081     0E8C  120A  118A  21B8  120A  158A  	fcall	___fladd
  1082     0E91  1683               	bsf	3,5	;RP0=1, select bank1
  1083     0E92  1303               	bcf	3,6	;RP1=0, select bank1
  1084     0E93  0823               	movf	(?___fladd+3)^(0+128),w
  1085     0E94  00CD               	movwf	(main@suma+3)^(0+128)
  1086     0E95  0822               	movf	(?___fladd+2)^(0+128),w
  1087     0E96  00CC               	movwf	(main@suma+2)^(0+128)
  1088     0E97  0821               	movf	(?___fladd+1)^(0+128),w
  1089     0E98  00CB               	movwf	(main@suma+1)^(0+128)
  1090     0E99  0820               	movf	?___fladd^(0+128),w
  1091     0E9A  00CA               	movwf	main@suma^(0+128)
  1092     0E9B                     l2646:
  1093                           
  1094                           ;main_scale.c: 212:         if (count == 40){
  1095     0E9B  3028               	movlw	40
  1096     0E9C  0649               	xorwf	main@count^(0+128),w
  1097     0E9D  1D03               	btfss	3,2
  1098     0E9E  2EA0               	goto	u3601
  1099     0E9F  2EA1               	goto	u3600
  1100     0EA0                     u3601:
  1101     0EA0  2D69               	goto	l2632
  1102     0EA1                     u3600:
  1103     0EA1                     l2648:
  1104                           
  1105                           ;main_scale.c: 213:             count = 0;
  1106     0EA1  01C9               	clrf	main@count^(0+128)
  1107     0EA2                     l2650:
  1108     0EA2                     l2652:
  1109     0EA2                     l2654:
  1110                           
  1111                           ;main_scale.c: 217:             total = suma*60;
  1112     0EA2  3042               	movlw	66
  1113     0EA3  1283               	bcf	3,5	;RP0=0, select bank0
  1114     0EA4  1303               	bcf	3,6	;RP1=0, select bank0
  1115     0EA5  00B8               	movwf	___flmul@b+3
  1116     0EA6  3070               	movlw	112
  1117     0EA7  00B7               	movwf	___flmul@b+2
  1118     0EA8  3000               	movlw	0
  1119     0EA9  00B6               	movwf	___flmul@b+1
  1120     0EAA  3000               	movlw	0
  1121     0EAB  00B5               	movwf	___flmul@b
  1122     0EAC  1683               	bsf	3,5	;RP0=1, select bank1
  1123     0EAD  1303               	bcf	3,6	;RP1=0, select bank1
  1124     0EAE  084D               	movf	(main@suma+3)^(0+128),w
  1125     0EAF  1283               	bcf	3,5	;RP0=0, select bank0
  1126     0EB0  1303               	bcf	3,6	;RP1=0, select bank0
  1127     0EB1  00BC               	movwf	___flmul@a+3
  1128     0EB2  1683               	bsf	3,5	;RP0=1, select bank1
  1129     0EB3  1303               	bcf	3,6	;RP1=0, select bank1
  1130     0EB4  084C               	movf	(main@suma+2)^(0+128),w
  1131     0EB5  1283               	bcf	3,5	;RP0=0, select bank0
  1132     0EB6  1303               	bcf	3,6	;RP1=0, select bank0
  1133     0EB7  00BB               	movwf	___flmul@a+2
  1134     0EB8  1683               	bsf	3,5	;RP0=1, select bank1
  1135     0EB9  1303               	bcf	3,6	;RP1=0, select bank1
  1136     0EBA  084B               	movf	(main@suma+1)^(0+128),w
  1137     0EBB  1283               	bcf	3,5	;RP0=0, select bank0
  1138     0EBC  1303               	bcf	3,6	;RP1=0, select bank0
  1139     0EBD  00BA               	movwf	___flmul@a+1
  1140     0EBE  1683               	bsf	3,5	;RP0=1, select bank1
  1141     0EBF  1303               	bcf	3,6	;RP1=0, select bank1
  1142     0EC0  084A               	movf	main@suma^(0+128),w
  1143     0EC1  1283               	bcf	3,5	;RP0=0, select bank0
  1144     0EC2  1303               	bcf	3,6	;RP1=0, select bank0
  1145     0EC3  00B9               	movwf	___flmul@a
  1146     0EC4  120A  118A  24AE  120A  158A  	fcall	___flmul
  1147     0EC9  1283               	bcf	3,5	;RP0=0, select bank0
  1148     0ECA  1303               	bcf	3,6	;RP1=0, select bank0
  1149     0ECB  0838               	movf	?___flmul+3,w
  1150     0ECC  1683               	bsf	3,5	;RP0=1, select bank1
  1151     0ECD  1303               	bcf	3,6	;RP1=0, select bank1
  1152     0ECE  00D6               	movwf	(main@total+3)^(0+128)
  1153     0ECF  1283               	bcf	3,5	;RP0=0, select bank0
  1154     0ED0  1303               	bcf	3,6	;RP1=0, select bank0
  1155     0ED1  0837               	movf	?___flmul+2,w
  1156     0ED2  1683               	bsf	3,5	;RP0=1, select bank1
  1157     0ED3  1303               	bcf	3,6	;RP1=0, select bank1
  1158     0ED4  00D5               	movwf	(main@total+2)^(0+128)
  1159     0ED5  1283               	bcf	3,5	;RP0=0, select bank0
  1160     0ED6  1303               	bcf	3,6	;RP1=0, select bank0
  1161     0ED7  0836               	movf	?___flmul+1,w
  1162     0ED8  1683               	bsf	3,5	;RP0=1, select bank1
  1163     0ED9  1303               	bcf	3,6	;RP1=0, select bank1
  1164     0EDA  00D4               	movwf	(main@total+1)^(0+128)
  1165     0EDB  1283               	bcf	3,5	;RP0=0, select bank0
  1166     0EDC  1303               	bcf	3,6	;RP1=0, select bank0
  1167     0EDD  0835               	movf	?___flmul,w
  1168     0EDE  1683               	bsf	3,5	;RP0=1, select bank1
  1169     0EDF  1303               	bcf	3,6	;RP1=0, select bank1
  1170     0EE0  00D3               	movwf	main@total^(0+128)
  1171     0EE1                     l2656:
  1172                           
  1173                           ;main_scale.c: 218:             total = sqrt(total)*70.71;
  1174     0EE1  3042               	movlw	66
  1175     0EE2  1283               	bcf	3,5	;RP0=0, select bank0
  1176     0EE3  1303               	bcf	3,6	;RP1=0, select bank0
  1177     0EE4  00B8               	movwf	___flmul@b+3
  1178     0EE5  308D               	movlw	141
  1179     0EE6  00B7               	movwf	___flmul@b+2
  1180     0EE7  306B               	movlw	107
  1181     0EE8  00B6               	movwf	___flmul@b+1
  1182     0EE9  3085               	movlw	133
  1183     0EEA  00B5               	movwf	___flmul@b
  1184     0EEB  1683               	bsf	3,5	;RP0=1, select bank1
  1185     0EEC  1303               	bcf	3,6	;RP1=0, select bank1
  1186     0EED  0856               	movf	(main@total+3)^(0+128),w
  1187     0EEE  00F3               	movwf	sqrt@a+3
  1188     0EEF  0855               	movf	(main@total+2)^(0+128),w
  1189     0EF0  00F2               	movwf	sqrt@a+2
  1190     0EF1  0854               	movf	(main@total+1)^(0+128),w
  1191     0EF2  00F1               	movwf	sqrt@a+1
  1192     0EF3  0853               	movf	main@total^(0+128),w
  1193     0EF4  00F0               	movwf	sqrt@a
  1194     0EF5  120A  158A  2366  120A  158A  	fcall	_sqrt
  1195     0EFA  0873               	movf	?_sqrt+3,w
  1196     0EFB  1283               	bcf	3,5	;RP0=0, select bank0
  1197     0EFC  1303               	bcf	3,6	;RP1=0, select bank0
  1198     0EFD  00BC               	movwf	___flmul@a+3
  1199     0EFE  0872               	movf	?_sqrt+2,w
  1200     0EFF  00BB               	movwf	___flmul@a+2
  1201     0F00  0871               	movf	?_sqrt+1,w
  1202     0F01  00BA               	movwf	___flmul@a+1
  1203     0F02  0870               	movf	?_sqrt,w
  1204     0F03  00B9               	movwf	___flmul@a
  1205     0F04  120A  118A  24AE  120A  158A  	fcall	___flmul
  1206     0F09  1283               	bcf	3,5	;RP0=0, select bank0
  1207     0F0A  1303               	bcf	3,6	;RP1=0, select bank0
  1208     0F0B  0838               	movf	?___flmul+3,w
  1209     0F0C  1683               	bsf	3,5	;RP0=1, select bank1
  1210     0F0D  1303               	bcf	3,6	;RP1=0, select bank1
  1211     0F0E  00D6               	movwf	(main@total+3)^(0+128)
  1212     0F0F  1283               	bcf	3,5	;RP0=0, select bank0
  1213     0F10  1303               	bcf	3,6	;RP1=0, select bank0
  1214     0F11  0837               	movf	?___flmul+2,w
  1215     0F12  1683               	bsf	3,5	;RP0=1, select bank1
  1216     0F13  1303               	bcf	3,6	;RP1=0, select bank1
  1217     0F14  00D5               	movwf	(main@total+2)^(0+128)
  1218     0F15  1283               	bcf	3,5	;RP0=0, select bank0
  1219     0F16  1303               	bcf	3,6	;RP1=0, select bank0
  1220     0F17  0836               	movf	?___flmul+1,w
  1221     0F18  1683               	bsf	3,5	;RP0=1, select bank1
  1222     0F19  1303               	bcf	3,6	;RP1=0, select bank1
  1223     0F1A  00D4               	movwf	(main@total+1)^(0+128)
  1224     0F1B  1283               	bcf	3,5	;RP0=0, select bank0
  1225     0F1C  1303               	bcf	3,6	;RP1=0, select bank0
  1226     0F1D  0835               	movf	?___flmul,w
  1227     0F1E  1683               	bsf	3,5	;RP0=1, select bank1
  1228     0F1F  1303               	bcf	3,6	;RP1=0, select bank1
  1229     0F20  00D3               	movwf	main@total^(0+128)
  1230     0F21                     l2658:
  1231                           
  1232                           ;main_scale.c: 219:             prom_1 += total;
  1233     0F21  0856               	movf	(main@total+3)^(0+128),w
  1234     0F22  00A3               	movwf	(___fladd@b+3)^(0+128)
  1235     0F23  0855               	movf	(main@total+2)^(0+128),w
  1236     0F24  00A2               	movwf	(___fladd@b+2)^(0+128)
  1237     0F25  0854               	movf	(main@total+1)^(0+128),w
  1238     0F26  00A1               	movwf	(___fladd@b+1)^(0+128)
  1239     0F27  0853               	movf	main@total^(0+128),w
  1240     0F28  00A0               	movwf	___fladd@b^(0+128)
  1241     0F29  0852               	movf	(main@prom_1+3)^(0+128),w
  1242     0F2A  00A7               	movwf	(___fladd@a+3)^(0+128)
  1243     0F2B  0851               	movf	(main@prom_1+2)^(0+128),w
  1244     0F2C  00A6               	movwf	(___fladd@a+2)^(0+128)
  1245     0F2D  0850               	movf	(main@prom_1+1)^(0+128),w
  1246     0F2E  00A5               	movwf	(___fladd@a+1)^(0+128)
  1247     0F2F  084F               	movf	main@prom_1^(0+128),w
  1248     0F30  00A4               	movwf	___fladd@a^(0+128)
  1249     0F31  120A  118A  21B8  120A  158A  	fcall	___fladd
  1250     0F36  1683               	bsf	3,5	;RP0=1, select bank1
  1251     0F37  1303               	bcf	3,6	;RP1=0, select bank1
  1252     0F38  0823               	movf	(?___fladd+3)^(0+128),w
  1253     0F39  00D2               	movwf	(main@prom_1+3)^(0+128)
  1254     0F3A  0822               	movf	(?___fladd+2)^(0+128),w
  1255     0F3B  00D1               	movwf	(main@prom_1+2)^(0+128)
  1256     0F3C  0821               	movf	(?___fladd+1)^(0+128),w
  1257     0F3D  00D0               	movwf	(main@prom_1+1)^(0+128)
  1258     0F3E  0820               	movf	?___fladd^(0+128),w
  1259     0F3F  00CF               	movwf	main@prom_1^(0+128)
  1260     0F40                     l2660:
  1261                           
  1262                           ;main_scale.c: 220:             if(c2 == 31){
  1263     0F40  301F               	movlw	31
  1264     0F41  064E               	xorwf	main@c2^(0+128),w
  1265     0F42  1D03               	btfss	3,2
  1266     0F43  2F45               	goto	u3611
  1267     0F44  2F46               	goto	u3610
  1268     0F45                     u3611:
  1269     0F45  2F76               	goto	l2672
  1270     0F46                     u3610:
  1271     0F46                     l2662:
  1272                           
  1273                           ;main_scale.c: 221:                 cmd(0x01);
  1274     0F46  3001               	movlw	1
  1275     0F47  160A  118A  2709  120A  158A  	fcall	_cmd
  1276                           
  1277                           ;main_scale.c: 222:                 cmd(0x80);
  1278     0F4C  3080               	movlw	128
  1279     0F4D  160A  118A  2709  120A  158A  	fcall	_cmd
  1280     0F52                     l2664:
  1281                           
  1282                           ;main_scale.c: 223:                 float_LCD(total);
  1283     0F52  1683               	bsf	3,5	;RP0=1, select bank1
  1284     0F53  1303               	bcf	3,6	;RP1=0, select bank1
  1285     0F54  0856               	movf	(main@total+3)^(0+128),w
  1286     0F55  00BB               	movwf	(float_LCD@value+3)^(0+128)
  1287     0F56  0855               	movf	(main@total+2)^(0+128),w
  1288     0F57  00BA               	movwf	(float_LCD@value+2)^(0+128)
  1289     0F58  0854               	movf	(main@total+1)^(0+128),w
  1290     0F59  00B9               	movwf	(float_LCD@value+1)^(0+128)
  1291     0F5A  0853               	movf	main@total^(0+128),w
  1292     0F5B  00B8               	movwf	float_LCD@value^(0+128)
  1293     0F5C  120A  118A  2064  120A  158A  	fcall	_float_LCD
  1294     0F61                     l2666:
  1295                           
  1296                           ;main_scale.c: 224:                 show("Vrms = ");
  1297     0F61  3001               	movlw	(low ((STR_2-__stringbase)| (0+32768)))& (0+255)
  1298     0F62  00F3               	movwf	show@s
  1299     0F63  3080               	movlw	128
  1300     0F64  00F4               	movwf	show@s+1
  1301     0F65  160A  118A  274C  120A  158A  	fcall	_show
  1302     0F6A                     l2668:
  1303                           
  1304                           ;main_scale.c: 225:                 show(cadena);
  1305     0F6A  30DD               	movlw	(low (_cadena| 0))& (0+255)
  1306     0F6B  00F3               	movwf	show@s
  1307     0F6C  3000               	movlw	0
  1308     0F6D  00F4               	movwf	show@s+1
  1309     0F6E  160A  118A  274C  120A  158A  	fcall	_show
  1310     0F73                     l2670:
  1311                           
  1312                           ;main_scale.c: 226:                 c2 = 0;
  1313     0F73  1683               	bsf	3,5	;RP0=1, select bank1
  1314     0F74  1303               	bcf	3,6	;RP1=0, select bank1
  1315     0F75  01CE               	clrf	main@c2^(0+128)
  1316     0F76                     l2672:
  1317                           
  1318                           ;main_scale.c: 228:             if (c2 == 30 ){
  1319     0F76  301E               	movlw	30
  1320     0F77  064E               	xorwf	main@c2^(0+128),w
  1321     0F78  1D03               	btfss	3,2
  1322     0F79  2F7B               	goto	u3621
  1323     0F7A  2F7C               	goto	u3620
  1324     0F7B                     u3621:
  1325     0F7B  2FE9               	goto	l2686
  1326     0F7C                     u3620:
  1327     0F7C                     l2674:
  1328                           
  1329                           ;main_scale.c: 229:                 cmd(0x01);
  1330     0F7C  3001               	movlw	1
  1331     0F7D  160A  118A  2709  120A  158A  	fcall	_cmd
  1332                           
  1333                           ;main_scale.c: 230:                 cmd(0x80);
  1334     0F82  3080               	movlw	128
  1335     0F83  160A  118A  2709  120A  158A  	fcall	_cmd
  1336     0F88                     l2676:
  1337                           
  1338                           ;main_scale.c: 231:                 prom_1 = prom_1/30;
  1339     0F88  3041               	movlw	65
  1340     0F89  1283               	bcf	3,5	;RP0=0, select bank0
  1341     0F8A  1303               	bcf	3,6	;RP1=0, select bank0
  1342     0F8B  00D2               	movwf	___fldiv@a+3
  1343     0F8C  30F0               	movlw	240
  1344     0F8D  00D1               	movwf	___fldiv@a+2
  1345     0F8E  3000               	movlw	0
  1346     0F8F  00D0               	movwf	___fldiv@a+1
  1347     0F90  3000               	movlw	0
  1348     0F91  00CF               	movwf	___fldiv@a
  1349     0F92  1683               	bsf	3,5	;RP0=1, select bank1
  1350     0F93  1303               	bcf	3,6	;RP1=0, select bank1
  1351     0F94  0852               	movf	(main@prom_1+3)^(0+128),w
  1352     0F95  1283               	bcf	3,5	;RP0=0, select bank0
  1353     0F96  1303               	bcf	3,6	;RP1=0, select bank0
  1354     0F97  00D6               	movwf	___fldiv@b+3
  1355     0F98  1683               	bsf	3,5	;RP0=1, select bank1
  1356     0F99  1303               	bcf	3,6	;RP1=0, select bank1
  1357     0F9A  0851               	movf	(main@prom_1+2)^(0+128),w
  1358     0F9B  1283               	bcf	3,5	;RP0=0, select bank0
  1359     0F9C  1303               	bcf	3,6	;RP1=0, select bank0
  1360     0F9D  00D5               	movwf	___fldiv@b+2
  1361     0F9E  1683               	bsf	3,5	;RP0=1, select bank1
  1362     0F9F  1303               	bcf	3,6	;RP1=0, select bank1
  1363     0FA0  0850               	movf	(main@prom_1+1)^(0+128),w
  1364     0FA1  1283               	bcf	3,5	;RP0=0, select bank0
  1365     0FA2  1303               	bcf	3,6	;RP1=0, select bank0
  1366     0FA3  00D4               	movwf	___fldiv@b+1
  1367     0FA4  1683               	bsf	3,5	;RP0=1, select bank1
  1368     0FA5  1303               	bcf	3,6	;RP1=0, select bank1
  1369     0FA6  084F               	movf	main@prom_1^(0+128),w
  1370     0FA7  1283               	bcf	3,5	;RP0=0, select bank0
  1371     0FA8  1303               	bcf	3,6	;RP1=0, select bank0
  1372     0FA9  00D3               	movwf	___fldiv@b
  1373     0FAA  120A  158A  2197  120A  158A  	fcall	___fldiv
  1374     0FAF  1283               	bcf	3,5	;RP0=0, select bank0
  1375     0FB0  1303               	bcf	3,6	;RP1=0, select bank0
  1376     0FB1  0852               	movf	?___fldiv+3,w
  1377     0FB2  1683               	bsf	3,5	;RP0=1, select bank1
  1378     0FB3  1303               	bcf	3,6	;RP1=0, select bank1
  1379     0FB4  00D2               	movwf	(main@prom_1+3)^(0+128)
  1380     0FB5  1283               	bcf	3,5	;RP0=0, select bank0
  1381     0FB6  1303               	bcf	3,6	;RP1=0, select bank0
  1382     0FB7  0851               	movf	?___fldiv+2,w
  1383     0FB8  1683               	bsf	3,5	;RP0=1, select bank1
  1384     0FB9  1303               	bcf	3,6	;RP1=0, select bank1
  1385     0FBA  00D1               	movwf	(main@prom_1+2)^(0+128)
  1386     0FBB  1283               	bcf	3,5	;RP0=0, select bank0
  1387     0FBC  1303               	bcf	3,6	;RP1=0, select bank0
  1388     0FBD  0850               	movf	?___fldiv+1,w
  1389     0FBE  1683               	bsf	3,5	;RP0=1, select bank1
  1390     0FBF  1303               	bcf	3,6	;RP1=0, select bank1
  1391     0FC0  00D0               	movwf	(main@prom_1+1)^(0+128)
  1392     0FC1  1283               	bcf	3,5	;RP0=0, select bank0
  1393     0FC2  1303               	bcf	3,6	;RP1=0, select bank0
  1394     0FC3  084F               	movf	?___fldiv,w
  1395     0FC4  1683               	bsf	3,5	;RP0=1, select bank1
  1396     0FC5  1303               	bcf	3,6	;RP1=0, select bank1
  1397     0FC6  00CF               	movwf	main@prom_1^(0+128)
  1398     0FC7                     l2678:
  1399                           
  1400                           ;main_scale.c: 232:                 float_LCD(prom_1);
  1401     0FC7  0852               	movf	(main@prom_1+3)^(0+128),w
  1402     0FC8  00BB               	movwf	(float_LCD@value+3)^(0+128)
  1403     0FC9  0851               	movf	(main@prom_1+2)^(0+128),w
  1404     0FCA  00BA               	movwf	(float_LCD@value+2)^(0+128)
  1405     0FCB  0850               	movf	(main@prom_1+1)^(0+128),w
  1406     0FCC  00B9               	movwf	(float_LCD@value+1)^(0+128)
  1407     0FCD  084F               	movf	main@prom_1^(0+128),w
  1408     0FCE  00B8               	movwf	float_LCD@value^(0+128)
  1409     0FCF  120A  118A  2064  120A  158A  	fcall	_float_LCD
  1410     0FD4                     l2680:
  1411                           
  1412                           ;main_scale.c: 233:                 show("Vrms = ");
  1413     0FD4  3001               	movlw	(low ((STR_2-__stringbase)| (0+32768)))& (0+255)
  1414     0FD5  00F3               	movwf	show@s
  1415     0FD6  3080               	movlw	128
  1416     0FD7  00F4               	movwf	show@s+1
  1417     0FD8  160A  118A  274C  120A  158A  	fcall	_show
  1418     0FDD                     l2682:
  1419                           
  1420                           ;main_scale.c: 234:                 show(cadena);
  1421     0FDD  30DD               	movlw	(low (_cadena| 0))& (0+255)
  1422     0FDE  00F3               	movwf	show@s
  1423     0FDF  3000               	movlw	0
  1424     0FE0  00F4               	movwf	show@s+1
  1425     0FE1  160A  118A  274C  120A  158A  	fcall	_show
  1426     0FE6                     l2684:
  1427                           
  1428                           ;main_scale.c: 235:                 c2 = 0;
  1429     0FE6  1683               	bsf	3,5	;RP0=1, select bank1
  1430     0FE7  1303               	bcf	3,6	;RP1=0, select bank1
  1431     0FE8  01CE               	clrf	main@c2^(0+128)
  1432     0FE9                     l2686:
  1433                           
  1434                           ;main_scale.c: 237:             c2++;
  1435     0FE9  3001               	movlw	1
  1436     0FEA  00FF               	movwf	btemp+1
  1437     0FEB  087F               	movf	btemp+1,w
  1438     0FEC  07CE               	addwf	main@c2^(0+128),f
  1439     0FED                     l2688:
  1440                           
  1441                           ;main_scale.c: 238:             suma = 0;
  1442     0FED  3000               	movlw	0
  1443     0FEE  00CD               	movwf	(main@suma+3)^(0+128)
  1444     0FEF  3000               	movlw	0
  1445     0FF0  00CC               	movwf	(main@suma+2)^(0+128)
  1446     0FF1  3000               	movlw	0
  1447     0FF2  00CB               	movwf	(main@suma+1)^(0+128)
  1448     0FF3  3000               	movlw	0
  1449     0FF4  00CA               	movwf	main@suma^(0+128)
  1450     0FF5                     l2690:
  1451                           
  1452                           ;main_scale.c: 239:             _delay((unsigned long)((0.0266666)*(4000000/4000.0)));
  1453     0FF5  3007               	movlw	7
  1454     0FF6  1283               	bcf	3,5	;RP0=0, select bank0
  1455     0FF7  1303               	bcf	3,6	;RP1=0, select bank0
  1456     0FF8  00EF               	movwf	??_main
  1457     0FF9                     u3647:
  1458     0FF9  0BEF               	decfsz	??_main,f
  1459     0FFA  2FF9               	goto	u3647
  1460     0FFB  2FFC               	nop2
  1461     0FFC  2D69               	goto	l2632
  1462     0FFD  120A  118A  2800   	ljmp	start
  1463     1000                     __end_of_main:
  1464                           
  1465                           	psect	text1
  1466     0B66                     __ptext1:	
  1467 ;; *************** function _sqrt *****************
  1468 ;; Defined at:
  1469 ;;		line 9 in file "C:\Program Files\Microchip\xc8\v2.41\pic\sources\c90\common\sprcsqrt.c"
  1470 ;; Parameters:    Size  Location     Type
  1471 ;;  a               4    0[COMMON] int 
  1472 ;; Auto vars:     Size  Location     Type
  1473 ;;  frac            4   17[BANK0 ] unsigned long 
  1474 ;;  root            4   13[BANK0 ] struct .
  1475 ;;  grs             4    7[BANK0 ] unsigned long 
  1476 ;;  tfrac           4    2[BANK0 ] unsigned long 
  1477 ;;  exp             2   11[BANK0 ] int 
  1478 ;;  p               1    6[BANK0 ] unsigned char 
  1479 ;;  i               1    1[BANK0 ] unsigned char 
  1480 ;;  sign            1    0[BANK0 ] unsigned char 
  1481 ;; Return value:  Size  Location     Type
  1482 ;;                  4    0[COMMON] unsigned char 
  1483 ;; Registers used:
  1484 ;;		wreg, status,2, status,0, btemp+1
  1485 ;; Tracked objects:
  1486 ;;		On entry : 0/0
  1487 ;;		On exit  : 0/0
  1488 ;;		Unchanged: 0/0
  1489 ;; Data sizes:     COMMON   BANK0   BANK1   BANK3   BANK2
  1490 ;;      Params:         4       0       0       0       0
  1491 ;;      Locals:         0      21       0       0       0
  1492 ;;      Temps:          4       0       0       0       0
  1493 ;;      Totals:         8      21       0       0       0
  1494 ;;Total ram usage:       29 bytes
  1495 ;; Hardware stack levels used: 1
  1496 ;; This function calls:
  1497 ;;		Nothing
  1498 ;; This function is called by:
  1499 ;;		_main
  1500 ;; This function uses a non-reentrant model
  1501 ;;
  1502                           
  1503     0B66                     _sqrt:	
  1504                           ;psect for function _sqrt
  1505                           
  1506     0B66                     l2512:	
  1507                           ;incstack = 0
  1508                           ; Regs used in _sqrt: [wreg+status,2+status,0+btemp+1]
  1509                           
  1510     0B66  0873               	movf	sqrt@a+3,w
  1511     0B67  3980               	andlw	128
  1512     0B68  1283               	bcf	3,5	;RP0=0, select bank0
  1513     0B69  1303               	bcf	3,6	;RP1=0, select bank0
  1514     0B6A  00A0               	movwf	sqrt@sign
  1515     0B6B                     l2514:
  1516     0B6B  0873               	movf	sqrt@a+3,w
  1517     0B6C  00F4               	movwf	??_sqrt
  1518     0B6D  0774               	addwf	??_sqrt,w
  1519     0B6E  00A6               	movwf	sqrt@p
  1520     0B6F                     l2516:
  1521     0B6F  1FF2               	btfss	sqrt@a+2,7
  1522     0B70  2B72               	goto	u3401
  1523     0B71  2B73               	goto	u3400
  1524     0B72                     u3401:
  1525     0B72  2B74               	goto	l2520
  1526     0B73                     u3400:
  1527     0B73                     l2518:
  1528     0B73  1426               	bsf	sqrt@p,0
  1529     0B74                     l2520:
  1530     0B74  0826               	movf	sqrt@p,w
  1531     0B75  00F4               	movwf	??_sqrt
  1532     0B76  01F5               	clrf	??_sqrt+1
  1533     0B77  0874               	movf	??_sqrt,w
  1534     0B78  00AB               	movwf	sqrt@exp
  1535     0B79  0875               	movf	??_sqrt+1,w
  1536     0B7A  00AC               	movwf	sqrt@exp+1
  1537     0B7B  30FF               	movlw	255
  1538     0B7C  0570               	andwf	sqrt@a,w
  1539     0B7D  00B1               	movwf	sqrt@frac
  1540     0B7E  30FF               	movlw	255
  1541     0B7F  0571               	andwf	sqrt@a+1,w
  1542     0B80  00B2               	movwf	sqrt@frac+1
  1543     0B81  307F               	movlw	127
  1544     0B82  0572               	andwf	sqrt@a+2,w
  1545     0B83  00B3               	movwf	sqrt@frac+2
  1546     0B84  3000               	movlw	0
  1547     0B85  0573               	andwf	sqrt@a+3,w
  1548     0B86  00B4               	movwf	sqrt@frac+3
  1549     0B87                     l2522:
  1550     0B87  082B               	movf	sqrt@exp,w
  1551     0B88  042C               	iorwf	sqrt@exp+1,w
  1552     0B89  1903               	btfsc	3,2
  1553     0B8A  2B8C               	goto	u3411
  1554     0B8B  2B8D               	goto	u3410
  1555     0B8C                     u3411:
  1556     0B8C  2B94               	goto	l2528
  1557     0B8D                     u3410:
  1558     0B8D                     l2524:
  1559     0B8D  17B3               	bsf	sqrt@frac+2,7
  1560     0B8E                     l2526:
  1561     0B8E  0A2B               	incf	sqrt@exp,w
  1562     0B8F  042C               	iorwf	sqrt@exp+1,w
  1563     0B90  1D03               	btfss	3,2
  1564     0B91  2B93               	goto	u3421
  1565     0B92  2B94               	goto	u3420
  1566     0B93                     u3421:
  1567     0B93  2B9C               	goto	l2532
  1568     0B94                     u3420:
  1569     0B94                     l2528:
  1570     0B94  3000               	movlw	0
  1571     0B95  00B4               	movwf	sqrt@frac+3
  1572     0B96  3000               	movlw	0
  1573     0B97  00B3               	movwf	sqrt@frac+2
  1574     0B98  3000               	movlw	0
  1575     0B99  00B2               	movwf	sqrt@frac+1
  1576     0B9A  3000               	movlw	0
  1577     0B9B  00B1               	movwf	sqrt@frac
  1578     0B9C                     l2532:
  1579     0B9C  082B               	movf	sqrt@exp,w
  1580     0B9D  042C               	iorwf	sqrt@exp+1,w
  1581     0B9E  1D03               	btfss	3,2
  1582     0B9F  2BA1               	goto	u3431
  1583     0BA0  2BA2               	goto	u3430
  1584     0BA1                     u3431:
  1585     0BA1  2BAB               	goto	l2538
  1586     0BA2                     u3430:
  1587     0BA2                     l2534:
  1588     0BA2  3000               	movlw	0
  1589     0BA3  00F3               	movwf	?_sqrt+3
  1590     0BA4  3000               	movlw	0
  1591     0BA5  00F2               	movwf	?_sqrt+2
  1592     0BA6  3000               	movlw	0
  1593     0BA7  00F1               	movwf	?_sqrt+1
  1594     0BA8  3000               	movlw	0
  1595     0BA9  00F0               	movwf	?_sqrt
  1596     0BAA  2D3B               	goto	l610
  1597     0BAB                     l2538:
  1598     0BAB  0820               	movf	sqrt@sign,w
  1599     0BAC  1903               	btfsc	3,2
  1600     0BAD  2BAF               	goto	u3441
  1601     0BAE  2BB0               	goto	u3440
  1602     0BAF                     u3441:
  1603     0BAF  2BCD               	goto	l2544
  1604     0BB0                     u3440:
  1605     0BB0                     l2540:
  1606     0BB0  3000               	movlw	0
  1607     0BB1  00B0               	movwf	sqrt@root+3
  1608     0BB2  3040               	movlw	64
  1609     0BB3  00AF               	movwf	sqrt@root+2
  1610     0BB4  3000               	movlw	0
  1611     0BB5  00AE               	movwf	sqrt@root+1
  1612     0BB6  3000               	movlw	0
  1613     0BB7  00AD               	movwf	sqrt@root
  1614     0BB8  3080               	movlw	128
  1615     0BB9  04AF               	iorwf	sqrt@root+2,f
  1616     0BBA  30FF               	movlw	255
  1617     0BBB  04B0               	iorwf	sqrt@root+3,f
  1618     0BBC  3021               	movlw	33
  1619     0BBD  1683               	bsf	3,5	;RP0=1, select bank1
  1620     0BBE  1303               	bcf	3,6	;RP1=0, select bank1
  1621     0BBF  00DB               	movwf	_errno^(0+128)
  1622     0BC0  3000               	movlw	0
  1623     0BC1  00DC               	movwf	(_errno^(0+128)+1)
  1624     0BC2  1283               	bcf	3,5	;RP0=0, select bank0
  1625     0BC3  1303               	bcf	3,6	;RP1=0, select bank0
  1626     0BC4  0830               	movf	sqrt@root+3,w
  1627     0BC5  00F3               	movwf	?_sqrt+3
  1628     0BC6  082F               	movf	sqrt@root+2,w
  1629     0BC7  00F2               	movwf	?_sqrt+2
  1630     0BC8  082E               	movf	sqrt@root+1,w
  1631     0BC9  00F1               	movwf	?_sqrt+1
  1632     0BCA  082D               	movf	sqrt@root,w
  1633     0BCB  00F0               	movwf	?_sqrt
  1634     0BCC  2D3B               	goto	l610
  1635     0BCD                     l2544:
  1636     0BCD  0A2B               	incf	sqrt@exp,w
  1637     0BCE  042C               	iorwf	sqrt@exp+1,w
  1638     0BCF  1D03               	btfss	3,2
  1639     0BD0  2BD2               	goto	u3451
  1640     0BD1  2BD3               	goto	u3450
  1641     0BD2                     u3451:
  1642     0BD2  2BE4               	goto	l2550
  1643     0BD3                     u3450:
  1644     0BD3                     l2546:
  1645     0BD3  307F               	movlw	127
  1646     0BD4  00B0               	movwf	sqrt@root+3
  1647     0BD5  3080               	movlw	128
  1648     0BD6  00AF               	movwf	sqrt@root+2
  1649     0BD7  3000               	movlw	0
  1650     0BD8  00AE               	movwf	sqrt@root+1
  1651     0BD9  3000               	movlw	0
  1652     0BDA  00AD               	movwf	sqrt@root
  1653     0BDB  0830               	movf	sqrt@root+3,w
  1654     0BDC  00F3               	movwf	?_sqrt+3
  1655     0BDD  082F               	movf	sqrt@root+2,w
  1656     0BDE  00F2               	movwf	?_sqrt+2
  1657     0BDF  082E               	movf	sqrt@root+1,w
  1658     0BE0  00F1               	movwf	?_sqrt+1
  1659     0BE1  082D               	movf	sqrt@root,w
  1660     0BE2  00F0               	movwf	?_sqrt
  1661     0BE3  2D3B               	goto	l610
  1662     0BE4                     l2550:
  1663     0BE4  3081               	movlw	129
  1664     0BE5  07AB               	addwf	sqrt@exp,f
  1665     0BE6  1803               	skipnc
  1666     0BE7  0AAC               	incf	sqrt@exp+1,f
  1667     0BE8  30FF               	movlw	255
  1668     0BE9  07AC               	addwf	sqrt@exp+1,f
  1669     0BEA                     l2552:
  1670     0BEA  082B               	movf	sqrt@exp,w
  1671     0BEB  3901               	andlw	1
  1672     0BEC  00A6               	movwf	sqrt@p
  1673     0BED                     l2554:
  1674     0BED  3001               	movlw	1
  1675     0BEE  00FF               	movwf	btemp+1
  1676     0BEF                     u3465:
  1677     0BEF  0D2C               	rlf	sqrt@exp+1,w
  1678     0BF0  0CAC               	rrf	sqrt@exp+1,f
  1679     0BF1  0CAB               	rrf	sqrt@exp,f
  1680     0BF2  0BFF               	decfsz	btemp+1,f
  1681     0BF3  2BEF               	goto	u3465
  1682     0BF4                     l2556:
  1683     0BF4  307F               	movlw	127
  1684     0BF5  07AB               	addwf	sqrt@exp,f
  1685     0BF6  1803               	skipnc
  1686     0BF7  0AAC               	incf	sqrt@exp+1,f
  1687     0BF8  3000               	movlw	0
  1688     0BF9  07AC               	addwf	sqrt@exp+1,f
  1689     0BFA                     l2558:
  1690     0BFA  1003               	clrc
  1691     0BFB  0D31               	rlf	sqrt@frac,w
  1692     0BFC  00A2               	movwf	sqrt@tfrac
  1693     0BFD  0D32               	rlf	sqrt@frac+1,w
  1694     0BFE  00A3               	movwf	sqrt@tfrac+1
  1695     0BFF  0D33               	rlf	sqrt@frac+2,w
  1696     0C00  00A4               	movwf	sqrt@tfrac+2
  1697     0C01  0D34               	rlf	sqrt@frac+3,w
  1698     0C02  00A5               	movwf	sqrt@tfrac+3
  1699     0C03                     l2560:
  1700     0C03  3000               	movlw	0
  1701     0C04  00B4               	movwf	sqrt@frac+3
  1702     0C05  3000               	movlw	0
  1703     0C06  00B3               	movwf	sqrt@frac+2
  1704     0C07  3000               	movlw	0
  1705     0C08  00B2               	movwf	sqrt@frac+1
  1706     0C09  3000               	movlw	0
  1707     0C0A  00B1               	movwf	sqrt@frac
  1708     0C0B                     l2562:
  1709     0C0B  3001               	movlw	1
  1710     0C0C  00AA               	movwf	sqrt@grs+3
  1711     0C0D  3000               	movlw	0
  1712     0C0E  00A9               	movwf	sqrt@grs+2
  1713     0C0F  3000               	movlw	0
  1714     0C10  00A8               	movwf	sqrt@grs+1
  1715     0C11  3000               	movlw	0
  1716     0C12  00A7               	movwf	sqrt@grs
  1717     0C13                     l2564:
  1718     0C13  0826               	movf	sqrt@p,w
  1719     0C14  1903               	btfsc	3,2
  1720     0C15  2C17               	goto	u3471
  1721     0C16  2C18               	goto	u3470
  1722     0C17                     u3471:
  1723     0C17  2C21               	goto	l2568
  1724     0C18                     u3470:
  1725     0C18                     l2566:
  1726     0C18  3001               	movlw	1
  1727     0C19  00F4               	movwf	??_sqrt
  1728     0C1A                     u3485:
  1729     0C1A  1003               	clrc
  1730     0C1B  0DA2               	rlf	sqrt@tfrac,f
  1731     0C1C  0DA3               	rlf	sqrt@tfrac+1,f
  1732     0C1D  0DA4               	rlf	sqrt@tfrac+2,f
  1733     0C1E  0DA5               	rlf	sqrt@tfrac+3,f
  1734     0C1F  0BF4               	decfsz	??_sqrt,f
  1735     0C20  2C1A               	goto	u3485
  1736     0C21                     l2568:
  1737     0C21  01A1               	clrf	sqrt@i
  1738     0C22  2C99               	goto	l2578
  1739     0C23                     l2570:
  1740     0C23  0827               	movf	sqrt@grs,w
  1741     0C24  04B1               	iorwf	sqrt@frac,f
  1742     0C25  0828               	movf	sqrt@grs+1,w
  1743     0C26  04B2               	iorwf	sqrt@frac+1,f
  1744     0C27  0829               	movf	sqrt@grs+2,w
  1745     0C28  04B3               	iorwf	sqrt@frac+2,f
  1746     0C29  082A               	movf	sqrt@grs+3,w
  1747     0C2A  04B4               	iorwf	sqrt@frac+3,f
  1748     0C2B  0834               	movf	sqrt@frac+3,w
  1749     0C2C  0225               	subwf	sqrt@tfrac+3,w
  1750     0C2D  1D03               	skipz
  1751     0C2E  2C39               	goto	u3495
  1752     0C2F  0833               	movf	sqrt@frac+2,w
  1753     0C30  0224               	subwf	sqrt@tfrac+2,w
  1754     0C31  1D03               	skipz
  1755     0C32  2C39               	goto	u3495
  1756     0C33  0832               	movf	sqrt@frac+1,w
  1757     0C34  0223               	subwf	sqrt@tfrac+1,w
  1758     0C35  1D03               	skipz
  1759     0C36  2C39               	goto	u3495
  1760     0C37  0831               	movf	sqrt@frac,w
  1761     0C38  0222               	subwf	sqrt@tfrac,w
  1762     0C39                     u3495:
  1763     0C39  1C03               	skipc
  1764     0C3A  2C3C               	goto	u3491
  1765     0C3B  2C3D               	goto	u3490
  1766     0C3C                     u3491:
  1767     0C3C  2C63               	goto	l2574
  1768     0C3D                     u3490:
  1769     0C3D                     l2572:
  1770     0C3D  0831               	movf	sqrt@frac,w
  1771     0C3E  02A2               	subwf	sqrt@tfrac,f
  1772     0C3F  0832               	movf	sqrt@frac+1,w
  1773     0C40  1C03               	skipc
  1774     0C41  0F32               	incfsz	sqrt@frac+1,w
  1775     0C42  02A3               	subwf	sqrt@tfrac+1,f
  1776     0C43  0833               	movf	sqrt@frac+2,w
  1777     0C44  1C03               	skipc
  1778     0C45  0F33               	incfsz	sqrt@frac+2,w
  1779     0C46  02A4               	subwf	sqrt@tfrac+2,f
  1780     0C47  0834               	movf	sqrt@frac+3,w
  1781     0C48  1C03               	skipc
  1782     0C49  0F34               	incfsz	sqrt@frac+3,w
  1783     0C4A  02A5               	subwf	sqrt@tfrac+3,f
  1784     0C4B  0827               	movf	sqrt@grs,w
  1785     0C4C  07B1               	addwf	sqrt@frac,f
  1786     0C4D  0828               	movf	sqrt@grs+1,w
  1787     0C4E  1103               	clrz
  1788     0C4F  1803               	skipnc
  1789     0C50  3E01               	addlw	1
  1790     0C51  1903               	skipnz
  1791     0C52  2C54               	goto	u3501
  1792     0C53  07B2               	addwf	sqrt@frac+1,f
  1793     0C54                     u3501:
  1794     0C54  0829               	movf	sqrt@grs+2,w
  1795     0C55  1103               	clrz
  1796     0C56  1803               	skipnc
  1797     0C57  3E01               	addlw	1
  1798     0C58  1903               	skipnz
  1799     0C59  2C5B               	goto	u3502
  1800     0C5A  07B3               	addwf	sqrt@frac+2,f
  1801     0C5B                     u3502:
  1802     0C5B  082A               	movf	sqrt@grs+3,w
  1803     0C5C  1103               	clrz
  1804     0C5D  1803               	skipnc
  1805     0C5E  3E01               	addlw	1
  1806     0C5F  1903               	skipnz
  1807     0C60  2C62               	goto	u3503
  1808     0C61  07B4               	addwf	sqrt@frac+3,f
  1809     0C62                     u3503:
  1810     0C62  2C73               	goto	l617
  1811     0C63                     l2574:
  1812     0C63  0927               	comf	sqrt@grs,w
  1813     0C64  00F4               	movwf	??_sqrt
  1814     0C65  0928               	comf	sqrt@grs+1,w
  1815     0C66  00F5               	movwf	??_sqrt+1
  1816     0C67  0929               	comf	sqrt@grs+2,w
  1817     0C68  00F6               	movwf	??_sqrt+2
  1818     0C69  092A               	comf	sqrt@grs+3,w
  1819     0C6A  00F7               	movwf	??_sqrt+3
  1820     0C6B  0874               	movf	??_sqrt,w
  1821     0C6C  05B1               	andwf	sqrt@frac,f
  1822     0C6D  0875               	movf	??_sqrt+1,w
  1823     0C6E  05B2               	andwf	sqrt@frac+1,f
  1824     0C6F  0876               	movf	??_sqrt+2,w
  1825     0C70  05B3               	andwf	sqrt@frac+2,f
  1826     0C71  0877               	movf	??_sqrt+3,w
  1827     0C72  05B4               	andwf	sqrt@frac+3,f
  1828     0C73                     l617:
  1829     0C73  0827               	movf	sqrt@grs,w
  1830     0C74  00F4               	movwf	??_sqrt
  1831     0C75  0828               	movf	sqrt@grs+1,w
  1832     0C76  00F5               	movwf	??_sqrt+1
  1833     0C77  0829               	movf	sqrt@grs+2,w
  1834     0C78  00F6               	movwf	??_sqrt+2
  1835     0C79  082A               	movf	sqrt@grs+3,w
  1836     0C7A  00F7               	movwf	??_sqrt+3
  1837     0C7B  3001               	movlw	1
  1838     0C7C                     u3515:
  1839     0C7C  1003               	clrc
  1840     0C7D  0CF7               	rrf	??_sqrt+3,f
  1841     0C7E  0CF6               	rrf	??_sqrt+2,f
  1842     0C7F  0CF5               	rrf	??_sqrt+1,f
  1843     0C80  0CF4               	rrf	??_sqrt,f
  1844     0C81                     u3510:
  1845     0C81  3EFF               	addlw	-1
  1846     0C82  1D03               	skipz
  1847     0C83  2C7C               	goto	u3515
  1848     0C84  0877               	movf	??_sqrt+3,w
  1849     0C85  00AA               	movwf	sqrt@grs+3
  1850     0C86  0876               	movf	??_sqrt+2,w
  1851     0C87  00A9               	movwf	sqrt@grs+2
  1852     0C88  0875               	movf	??_sqrt+1,w
  1853     0C89  00A8               	movwf	sqrt@grs+1
  1854     0C8A  0874               	movf	??_sqrt,w
  1855     0C8B  00A7               	movwf	sqrt@grs
  1856     0C8C  3001               	movlw	1
  1857     0C8D  00F4               	movwf	??_sqrt
  1858     0C8E                     u3525:
  1859     0C8E  1003               	clrc
  1860     0C8F  0DA2               	rlf	sqrt@tfrac,f
  1861     0C90  0DA3               	rlf	sqrt@tfrac+1,f
  1862     0C91  0DA4               	rlf	sqrt@tfrac+2,f
  1863     0C92  0DA5               	rlf	sqrt@tfrac+3,f
  1864     0C93  0BF4               	decfsz	??_sqrt,f
  1865     0C94  2C8E               	goto	u3525
  1866     0C95                     l2576:
  1867     0C95  3001               	movlw	1
  1868     0C96  00FF               	movwf	btemp+1
  1869     0C97  087F               	movf	btemp+1,w
  1870     0C98  07A1               	addwf	sqrt@i,f
  1871     0C99                     l2578:
  1872     0C99  3019               	movlw	25
  1873     0C9A  0221               	subwf	sqrt@i,w
  1874     0C9B  1C03               	skipc
  1875     0C9C  2C9E               	goto	u3531
  1876     0C9D  2C9F               	goto	u3530
  1877     0C9E                     u3531:
  1878     0C9E  2C23               	goto	l2570
  1879     0C9F                     u3530:
  1880     0C9F                     l2580:
  1881     0C9F  0831               	movf	sqrt@frac,w
  1882     0CA0  00F4               	movwf	??_sqrt
  1883     0CA1  0832               	movf	sqrt@frac+1,w
  1884     0CA2  00F5               	movwf	??_sqrt+1
  1885     0CA3  0833               	movf	sqrt@frac+2,w
  1886     0CA4  00F6               	movwf	??_sqrt+2
  1887     0CA5  0834               	movf	sqrt@frac+3,w
  1888     0CA6  00F7               	movwf	??_sqrt+3
  1889     0CA7  3001               	movlw	1
  1890     0CA8                     u3545:
  1891     0CA8  1003               	clrc
  1892     0CA9  0CF7               	rrf	??_sqrt+3,f
  1893     0CAA  0CF6               	rrf	??_sqrt+2,f
  1894     0CAB  0CF5               	rrf	??_sqrt+1,f
  1895     0CAC  0CF4               	rrf	??_sqrt,f
  1896     0CAD                     u3540:
  1897     0CAD  3EFF               	addlw	-1
  1898     0CAE  1D03               	skipz
  1899     0CAF  2CA8               	goto	u3545
  1900     0CB0  0877               	movf	??_sqrt+3,w
  1901     0CB1  00B4               	movwf	sqrt@frac+3
  1902     0CB2  0876               	movf	??_sqrt+2,w
  1903     0CB3  00B3               	movwf	sqrt@frac+2
  1904     0CB4  0875               	movf	??_sqrt+1,w
  1905     0CB5  00B2               	movwf	sqrt@frac+1
  1906     0CB6  0874               	movf	??_sqrt,w
  1907     0CB7  00B1               	movwf	sqrt@frac
  1908     0CB8                     l2582:
  1909     0CB8  3001               	movlw	1
  1910     0CB9  0531               	andwf	sqrt@frac,w
  1911     0CBA  00A7               	movwf	sqrt@grs
  1912     0CBB  3000               	movlw	0
  1913     0CBC  0532               	andwf	sqrt@frac+1,w
  1914     0CBD  00A8               	movwf	sqrt@grs+1
  1915     0CBE  3000               	movlw	0
  1916     0CBF  0533               	andwf	sqrt@frac+2,w
  1917     0CC0  00A9               	movwf	sqrt@grs+2
  1918     0CC1  3000               	movlw	0
  1919     0CC2  0534               	andwf	sqrt@frac+3,w
  1920     0CC3  00AA               	movwf	sqrt@grs+3
  1921     0CC4                     l2584:
  1922     0CC4  0831               	movf	sqrt@frac,w
  1923     0CC5  00F4               	movwf	??_sqrt
  1924     0CC6  0832               	movf	sqrt@frac+1,w
  1925     0CC7  00F5               	movwf	??_sqrt+1
  1926     0CC8  0833               	movf	sqrt@frac+2,w
  1927     0CC9  00F6               	movwf	??_sqrt+2
  1928     0CCA  0834               	movf	sqrt@frac+3,w
  1929     0CCB  00F7               	movwf	??_sqrt+3
  1930     0CCC  3001               	movlw	1
  1931     0CCD                     u3555:
  1932     0CCD  1003               	clrc
  1933     0CCE  0CF7               	rrf	??_sqrt+3,f
  1934     0CCF  0CF6               	rrf	??_sqrt+2,f
  1935     0CD0  0CF5               	rrf	??_sqrt+1,f
  1936     0CD1  0CF4               	rrf	??_sqrt,f
  1937     0CD2                     u3550:
  1938     0CD2  3EFF               	addlw	-1
  1939     0CD3  1D03               	skipz
  1940     0CD4  2CCD               	goto	u3555
  1941     0CD5  0877               	movf	??_sqrt+3,w
  1942     0CD6  00B4               	movwf	sqrt@frac+3
  1943     0CD7  0876               	movf	??_sqrt+2,w
  1944     0CD8  00B3               	movwf	sqrt@frac+2
  1945     0CD9  0875               	movf	??_sqrt+1,w
  1946     0CDA  00B2               	movwf	sqrt@frac+1
  1947     0CDB  0874               	movf	??_sqrt,w
  1948     0CDC  00B1               	movwf	sqrt@frac
  1949     0CDD  0827               	movf	sqrt@grs,w
  1950     0CDE  07B1               	addwf	sqrt@frac,f
  1951     0CDF  0828               	movf	sqrt@grs+1,w
  1952     0CE0  1103               	clrz
  1953     0CE1  1803               	skipnc
  1954     0CE2  3E01               	addlw	1
  1955     0CE3  1903               	skipnz
  1956     0CE4  2CE6               	goto	u3561
  1957     0CE5  07B2               	addwf	sqrt@frac+1,f
  1958     0CE6                     u3561:
  1959     0CE6  0829               	movf	sqrt@grs+2,w
  1960     0CE7  1103               	clrz
  1961     0CE8  1803               	skipnc
  1962     0CE9  3E01               	addlw	1
  1963     0CEA  1903               	skipnz
  1964     0CEB  2CED               	goto	u3562
  1965     0CEC  07B3               	addwf	sqrt@frac+2,f
  1966     0CED                     u3562:
  1967     0CED  082A               	movf	sqrt@grs+3,w
  1968     0CEE  1103               	clrz
  1969     0CEF  1803               	skipnc
  1970     0CF0  3E01               	addlw	1
  1971     0CF1  1903               	skipnz
  1972     0CF2  2CF4               	goto	u3563
  1973     0CF3  07B4               	addwf	sqrt@frac+3,f
  1974     0CF4                     u3563:
  1975     0CF4                     l2586:
  1976     0CF4  1C34               	btfss	sqrt@frac+3,0
  1977     0CF5  2CF7               	goto	u3571
  1978     0CF6  2CF8               	goto	u3570
  1979     0CF7                     u3571:
  1980     0CF7  2D17               	goto	l2592
  1981     0CF8                     u3570:
  1982     0CF8                     l2588:
  1983     0CF8  0831               	movf	sqrt@frac,w
  1984     0CF9  00F4               	movwf	??_sqrt
  1985     0CFA  0832               	movf	sqrt@frac+1,w
  1986     0CFB  00F5               	movwf	??_sqrt+1
  1987     0CFC  0833               	movf	sqrt@frac+2,w
  1988     0CFD  00F6               	movwf	??_sqrt+2
  1989     0CFE  0834               	movf	sqrt@frac+3,w
  1990     0CFF  00F7               	movwf	??_sqrt+3
  1991     0D00  3001               	movlw	1
  1992     0D01                     u3585:
  1993     0D01  1003               	clrc
  1994     0D02  0CF7               	rrf	??_sqrt+3,f
  1995     0D03  0CF6               	rrf	??_sqrt+2,f
  1996     0D04  0CF5               	rrf	??_sqrt+1,f
  1997     0D05  0CF4               	rrf	??_sqrt,f
  1998     0D06                     u3580:
  1999     0D06  3EFF               	addlw	-1
  2000     0D07  1D03               	skipz
  2001     0D08  2D01               	goto	u3585
  2002     0D09  0877               	movf	??_sqrt+3,w
  2003     0D0A  00B4               	movwf	sqrt@frac+3
  2004     0D0B  0876               	movf	??_sqrt+2,w
  2005     0D0C  00B3               	movwf	sqrt@frac+2
  2006     0D0D  0875               	movf	??_sqrt+1,w
  2007     0D0E  00B2               	movwf	sqrt@frac+1
  2008     0D0F  0874               	movf	??_sqrt,w
  2009     0D10  00B1               	movwf	sqrt@frac
  2010     0D11                     l2590:
  2011     0D11  3001               	movlw	1
  2012     0D12  07AB               	addwf	sqrt@exp,f
  2013     0D13  1803               	skipnc
  2014     0D14  0AAC               	incf	sqrt@exp+1,f
  2015     0D15  3000               	movlw	0
  2016     0D16  07AC               	addwf	sqrt@exp+1,f
  2017     0D17                     l2592:
  2018     0D17  30FF               	movlw	255
  2019     0D18  0531               	andwf	sqrt@frac,w
  2020     0D19  00AD               	movwf	sqrt@root
  2021     0D1A  30FF               	movlw	255
  2022     0D1B  0532               	andwf	sqrt@frac+1,w
  2023     0D1C  00AE               	movwf	sqrt@root+1
  2024     0D1D  307F               	movlw	127
  2025     0D1E  0533               	andwf	sqrt@frac+2,w
  2026     0D1F  00AF               	movwf	sqrt@root+2
  2027     0D20  3000               	movlw	0
  2028     0D21  0534               	andwf	sqrt@frac+3,w
  2029     0D22  00B0               	movwf	sqrt@root+3
  2030     0D23                     l2594:
  2031     0D23  082B               	movf	sqrt@exp,w
  2032     0D24  00A6               	movwf	sqrt@p
  2033     0D25                     l2596:
  2034     0D25  1C26               	btfss	sqrt@p,0
  2035     0D26  2D28               	goto	u3591
  2036     0D27  2D29               	goto	u3590
  2037     0D28                     u3591:
  2038     0D28  2D2A               	goto	l2600
  2039     0D29                     u3590:
  2040     0D29                     l2598:
  2041     0D29  17AF               	bsf	sqrt@root+2,7
  2042     0D2A                     l2600:
  2043     0D2A  0826               	movf	sqrt@p,w
  2044     0D2B  00F4               	movwf	??_sqrt
  2045     0D2C  1003               	clrc
  2046     0D2D  0C74               	rrf	??_sqrt,w
  2047     0D2E  00B0               	movwf	sqrt@root+3
  2048     0D2F                     l2602:
  2049     0D2F  307F               	movlw	127
  2050     0D30  00FF               	movwf	btemp+1
  2051     0D31  087F               	movf	btemp+1,w
  2052     0D32  05B0               	andwf	sqrt@root+3,f
  2053     0D33                     l2604:
  2054     0D33  0830               	movf	sqrt@root+3,w
  2055     0D34  00F3               	movwf	?_sqrt+3
  2056     0D35  082F               	movf	sqrt@root+2,w
  2057     0D36  00F2               	movwf	?_sqrt+2
  2058     0D37  082E               	movf	sqrt@root+1,w
  2059     0D38  00F1               	movwf	?_sqrt+1
  2060     0D39  082D               	movf	sqrt@root,w
  2061     0D3A  00F0               	movwf	?_sqrt
  2062     0D3B                     l610:
  2063     0D3B  0008               	return
  2064     0D3C                     __end_of_sqrt:
  2065                           
  2066                           	psect	text2
  2067     174C                     __ptext2:	
  2068 ;; *************** function _show *****************
  2069 ;; Defined at:
  2070 ;;		line 139 in file "main_scale.c"
  2071 ;; Parameters:    Size  Location     Type
  2072 ;;  s               2    3[COMMON] PTR unsigned char 
  2073 ;;		 -> STR_3(8), STR_2(8), STR_1(5), cadena(15), 
  2074 ;; Auto vars:     Size  Location     Type
  2075 ;;		None
  2076 ;; Return value:  Size  Location     Type
  2077 ;;                  1    wreg      void 
  2078 ;; Registers used:
  2079 ;;		wreg, fsr0l, fsr0h, status,2, status,0, btemp+1, pclath, cstack
  2080 ;; Tracked objects:
  2081 ;;		On entry : 0/0
  2082 ;;		On exit  : 0/0
  2083 ;;		Unchanged: 0/0
  2084 ;; Data sizes:     COMMON   BANK0   BANK1   BANK3   BANK2
  2085 ;;      Params:         2       0       0       0       0
  2086 ;;      Locals:         0       0       0       0       0
  2087 ;;      Temps:          0       0       0       0       0
  2088 ;;      Totals:         2       0       0       0       0
  2089 ;;Total ram usage:        2 bytes
  2090 ;; Hardware stack levels used: 1
  2091 ;; Hardware stack levels required when called: 2
  2092 ;; This function calls:
  2093 ;;		_dat
  2094 ;; This function is called by:
  2095 ;;		_main
  2096 ;; This function uses a non-reentrant model
  2097 ;;
  2098                           
  2099     174C                     _show:	
  2100                           ;psect for function _show
  2101                           
  2102     174C                     l2490:	
  2103                           ;incstack = 0
  2104                           ; Regs used in _show: [wreg-fsr0h+status,2+status,0+btemp+1+pclath+cstack]
  2105                           
  2106                           
  2107                           ;main_scale.c: 139: void show(unsigned char *s);main_scale.c: 140: {;main_scale.c: 141: 
      +                              while(*s) {
  2108     174C  2F61               	goto	l2496
  2109     174D                     l2492:
  2110                           
  2111                           ;main_scale.c: 142:         dat(*s++);
  2112     174D  0874               	movf	show@s+1,w
  2113     174E  00FF               	movwf	btemp+1
  2114     174F  0873               	movf	show@s,w
  2115     1750  0084               	movwf	4
  2116     1751  120A  118A  2003  160A  118A  	fcall	stringtab
  2117     1756  160A  118A  271E  160A  118A  	fcall	_dat
  2118     175B                     l2494:
  2119     175B  3001               	movlw	1
  2120     175C  07F3               	addwf	show@s,f
  2121     175D  1803               	skipnc
  2122     175E  0AF4               	incf	show@s+1,f
  2123     175F  3000               	movlw	0
  2124     1760  07F4               	addwf	show@s+1,f
  2125     1761                     l2496:
  2126                           
  2127                           ;main_scale.c: 141:     while(*s) {
  2128     1761  0874               	movf	show@s+1,w
  2129     1762  1283               	bcf	3,5	;RP0=0, select bank0
  2130     1763  1303               	bcf	3,6	;RP1=0, select bank0
  2131     1764  00FF               	movwf	btemp+1
  2132     1765  0873               	movf	show@s,w
  2133     1766  0084               	movwf	4
  2134     1767  120A  118A  2003  160A  118A  	fcall	stringtab
  2135     176C  3A00               	xorlw	0
  2136     176D  1D03               	skipz
  2137     176E  2F70               	goto	u3361
  2138     176F  2F71               	goto	u3360
  2139     1770                     u3361:
  2140     1770  2F4D               	goto	l2492
  2141     1771                     u3360:
  2142     1771                     l84:
  2143     1771  0008               	return
  2144     1772                     __end_of_show:
  2145                           
  2146                           	psect	text3
  2147     171E                     __ptext3:	
  2148 ;; *************** function _dat *****************
  2149 ;; Defined at:
  2150 ;;		line 129 in file "main_scale.c"
  2151 ;; Parameters:    Size  Location     Type
  2152 ;;  b               1    wreg     unsigned char 
  2153 ;; Auto vars:     Size  Location     Type
  2154 ;;  b               1    2[COMMON] unsigned char 
  2155 ;; Return value:  Size  Location     Type
  2156 ;;                  1    wreg      void 
  2157 ;; Registers used:
  2158 ;;		wreg, status,2, status,0, pclath, cstack
  2159 ;; Tracked objects:
  2160 ;;		On entry : 0/0
  2161 ;;		On exit  : 0/0
  2162 ;;		Unchanged: 0/0
  2163 ;; Data sizes:     COMMON   BANK0   BANK1   BANK3   BANK2
  2164 ;;      Params:         0       0       0       0       0
  2165 ;;      Locals:         1       0       0       0       0
  2166 ;;      Temps:          0       0       0       0       0
  2167 ;;      Totals:         1       0       0       0       0
  2168 ;;Total ram usage:        1 bytes
  2169 ;; Hardware stack levels used: 1
  2170 ;; Hardware stack levels required when called: 1
  2171 ;; This function calls:
  2172 ;;		_delay
  2173 ;; This function is called by:
  2174 ;;		_show
  2175 ;; This function uses a non-reentrant model
  2176 ;;
  2177                           
  2178     171E                     _dat:	
  2179                           ;psect for function _dat
  2180                           
  2181                           
  2182                           ;incstack = 0
  2183                           ; Regs used in _dat: [wreg+status,2+status,0+pclath+cstack]
  2184                           ;dat@b stored from wreg
  2185     171E  00F2               	movwf	dat@b
  2186     171F                     l2020:
  2187                           
  2188                           ;main_scale.c: 129: void dat(unsigned char b);main_scale.c: 130: {;main_scale.c: 131:   
      +                            PORTB=b;
  2189     171F  0872               	movf	dat@b,w
  2190     1720  1283               	bcf	3,5	;RP0=0, select bank0
  2191     1721  1303               	bcf	3,6	;RP1=0, select bank0
  2192     1722  0086               	movwf	6	;volatile
  2193     1723                     l2022:
  2194                           
  2195                           ;main_scale.c: 132:     RC0=1;
  2196     1723  1407               	bsf	7,0	;volatile
  2197     1724                     l2024:
  2198                           
  2199                           ;main_scale.c: 133:     RC1=0;
  2200     1724  1087               	bcf	7,1	;volatile
  2201     1725                     l2026:
  2202                           
  2203                           ;main_scale.c: 134:     RC2=1;
  2204     1725  1507               	bsf	7,2	;volatile
  2205     1726                     l2028:
  2206                           
  2207                           ;main_scale.c: 135:     delay(1000);
  2208     1726  30E8               	movlw	232
  2209     1727  00F0               	movwf	delay@cnt
  2210     1728  3003               	movlw	3
  2211     1729  00F1               	movwf	delay@cnt+1
  2212     172A  160A  118A  26FA  160A  118A  	fcall	_delay
  2213     172F                     l2030:
  2214                           
  2215                           ;main_scale.c: 136:     RC2=0;
  2216     172F  1283               	bcf	3,5	;RP0=0, select bank0
  2217     1730  1303               	bcf	3,6	;RP1=0, select bank0
  2218     1731  1107               	bcf	7,2	;volatile
  2219     1732                     l78:
  2220     1732  0008               	return
  2221     1733                     __end_of_dat:
  2222                           
  2223                           	psect	text4
  2224     1733                     __ptext4:	
  2225 ;; *************** function _lcd_init *****************
  2226 ;; Defined at:
  2227 ;;		line 111 in file "main_scale.c"
  2228 ;; Parameters:    Size  Location     Type
  2229 ;;		None
  2230 ;; Auto vars:     Size  Location     Type
  2231 ;;		None
  2232 ;; Return value:  Size  Location     Type
  2233 ;;                  1    wreg      void 
  2234 ;; Registers used:
  2235 ;;		wreg, status,2, status,0, pclath, cstack
  2236 ;; Tracked objects:
  2237 ;;		On entry : 0/0
  2238 ;;		On exit  : 0/0
  2239 ;;		Unchanged: 0/0
  2240 ;; Data sizes:     COMMON   BANK0   BANK1   BANK3   BANK2
  2241 ;;      Params:         0       0       0       0       0
  2242 ;;      Locals:         0       0       0       0       0
  2243 ;;      Temps:          0       0       0       0       0
  2244 ;;      Totals:         0       0       0       0       0
  2245 ;;Total ram usage:        0 bytes
  2246 ;; Hardware stack levels used: 1
  2247 ;; Hardware stack levels required when called: 2
  2248 ;; This function calls:
  2249 ;;		_cmd
  2250 ;; This function is called by:
  2251 ;;		_main
  2252 ;; This function uses a non-reentrant model
  2253 ;;
  2254                           
  2255     1733                     _lcd_init:	
  2256                           ;psect for function _lcd_init
  2257                           
  2258     1733                     l2488:	
  2259                           ;incstack = 0
  2260                           ; Regs used in _lcd_init: [wreg+status,2+status,0+pclath+cstack]
  2261                           
  2262                           
  2263                           ;main_scale.c: 113:     cmd(0x38);
  2264     1733  3038               	movlw	56
  2265     1734  160A  118A  2709  160A  118A  	fcall	_cmd
  2266                           
  2267                           ;main_scale.c: 114:     cmd(0x0c);
  2268     1739  300C               	movlw	12
  2269     173A  160A  118A  2709  160A  118A  	fcall	_cmd
  2270                           
  2271                           ;main_scale.c: 115:     cmd(0x06);
  2272     173F  3006               	movlw	6
  2273     1740  160A  118A  2709  160A  118A  	fcall	_cmd
  2274                           
  2275                           ;main_scale.c: 116:     cmd(0x80);
  2276     1745  3080               	movlw	128
  2277     1746  160A  118A  2709  160A  118A  	fcall	_cmd
  2278     174B                     l72:
  2279     174B  0008               	return
  2280     174C                     __end_of_lcd_init:
  2281                           
  2282                           	psect	text5
  2283     1709                     __ptext5:	
  2284 ;; *************** function _cmd *****************
  2285 ;; Defined at:
  2286 ;;		line 119 in file "main_scale.c"
  2287 ;; Parameters:    Size  Location     Type
  2288 ;;  a               1    wreg     unsigned char 
  2289 ;; Auto vars:     Size  Location     Type
  2290 ;;  a               1    2[COMMON] unsigned char 
  2291 ;; Return value:  Size  Location     Type
  2292 ;;                  1    wreg      void 
  2293 ;; Registers used:
  2294 ;;		wreg, status,2, status,0, pclath, cstack
  2295 ;; Tracked objects:
  2296 ;;		On entry : 0/0
  2297 ;;		On exit  : 0/0
  2298 ;;		Unchanged: 0/0
  2299 ;; Data sizes:     COMMON   BANK0   BANK1   BANK3   BANK2
  2300 ;;      Params:         0       0       0       0       0
  2301 ;;      Locals:         1       0       0       0       0
  2302 ;;      Temps:          0       0       0       0       0
  2303 ;;      Totals:         1       0       0       0       0
  2304 ;;Total ram usage:        1 bytes
  2305 ;; Hardware stack levels used: 1
  2306 ;; Hardware stack levels required when called: 1
  2307 ;; This function calls:
  2308 ;;		_delay
  2309 ;; This function is called by:
  2310 ;;		_lcd_init
  2311 ;;		_main
  2312 ;; This function uses a non-reentrant model
  2313 ;;
  2314                           
  2315     1709                     _cmd:	
  2316                           ;psect for function _cmd
  2317                           
  2318                           
  2319                           ;incstack = 0
  2320                           ; Regs used in _cmd: [wreg+status,2+status,0+pclath+cstack]
  2321                           ;cmd@a stored from wreg
  2322     1709  00F2               	movwf	cmd@a
  2323     170A                     l2008:
  2324                           
  2325                           ;main_scale.c: 119: void cmd(unsigned char a);main_scale.c: 120: {;main_scale.c: 121:   
      +                            PORTB=a;
  2326     170A  0872               	movf	cmd@a,w
  2327     170B  1283               	bcf	3,5	;RP0=0, select bank0
  2328     170C  1303               	bcf	3,6	;RP1=0, select bank0
  2329     170D  0086               	movwf	6	;volatile
  2330     170E                     l2010:
  2331                           
  2332                           ;main_scale.c: 122:     RC0=0;
  2333     170E  1007               	bcf	7,0	;volatile
  2334     170F                     l2012:
  2335                           
  2336                           ;main_scale.c: 123:     RC1=0;
  2337     170F  1087               	bcf	7,1	;volatile
  2338     1710                     l2014:
  2339                           
  2340                           ;main_scale.c: 124:     RC2=1;
  2341     1710  1507               	bsf	7,2	;volatile
  2342     1711                     l2016:
  2343                           
  2344                           ;main_scale.c: 125:     delay(1000);
  2345     1711  30E8               	movlw	232
  2346     1712  00F0               	movwf	delay@cnt
  2347     1713  3003               	movlw	3
  2348     1714  00F1               	movwf	delay@cnt+1
  2349     1715  160A  118A  26FA  160A  118A  	fcall	_delay
  2350     171A                     l2018:
  2351                           
  2352                           ;main_scale.c: 126:     RC2=0;
  2353     171A  1283               	bcf	3,5	;RP0=0, select bank0
  2354     171B  1303               	bcf	3,6	;RP1=0, select bank0
  2355     171C  1107               	bcf	7,2	;volatile
  2356     171D                     l75:
  2357     171D  0008               	return
  2358     171E                     __end_of_cmd:
  2359                           
  2360                           	psect	text6
  2361     0064                     __ptext6:	
  2362 ;; *************** function _float_LCD *****************
  2363 ;; Defined at:
  2364 ;;		line 87 in file "main_scale.c"
  2365 ;; Parameters:    Size  Location     Type
  2366 ;;  value           4   24[BANK1 ] float 
  2367 ;; Auto vars:     Size  Location     Type
  2368 ;;  i               2   33[BANK1 ] int 
  2369 ;;  pow_10          2   31[BANK1 ] int 
  2370 ;;  v_temp          2   29[BANK1 ] int 
  2371 ;;  flag            1   28[BANK1 ] unsigned char 
  2372 ;; Return value:  Size  Location     Type
  2373 ;;                  1    wreg      void 
  2374 ;; Registers used:
  2375 ;;		wreg, fsr0l, fsr0h, status,2, status,0, btemp+1, pclath, cstack
  2376 ;; Tracked objects:
  2377 ;;		On entry : 0/0
  2378 ;;		On exit  : 0/0
  2379 ;;		Unchanged: 0/0
  2380 ;; Data sizes:     COMMON   BANK0   BANK1   BANK3   BANK2
  2381 ;;      Params:         0       0       4       0       0
  2382 ;;      Locals:         0       0       7       0       0
  2383 ;;      Temps:          0       0       0       0       0
  2384 ;;      Totals:         0       0      11       0       0
  2385 ;;Total ram usage:       11 bytes
  2386 ;; Hardware stack levels used: 1
  2387 ;; Hardware stack levels required when called: 2
  2388 ;; This function calls:
  2389 ;;		___awdiv
  2390 ;;		___fldiv
  2391 ;;		___flmul
  2392 ;;		___flsub
  2393 ;;		___fltol
  2394 ;;		___xxtofl
  2395 ;;		_num_s
  2396 ;; This function is called by:
  2397 ;;		_main
  2398 ;; This function uses a non-reentrant model
  2399 ;;
  2400                           
  2401     0064                     _float_LCD:	
  2402                           ;psect for function _float_LCD
  2403                           
  2404     0064                     l2456:	
  2405                           ;incstack = 0
  2406                           ; Regs used in _float_LCD: [wreg-fsr0h+status,2+status,0+btemp+1+pclath+cstack]
  2407                           
  2408                           
  2409                           ;main_scale.c: 88:     char flag = 0;
  2410     0064  1683               	bsf	3,5	;RP0=1, select bank1
  2411     0065  1303               	bcf	3,6	;RP1=0, select bank1
  2412     0066  01BC               	clrf	float_LCD@flag^(0+128)
  2413     0067                     l2458:
  2414                           
  2415                           ;main_scale.c: 90:     int pow_10 = 1000;
  2416     0067  30E8               	movlw	232
  2417     0068  00BF               	movwf	float_LCD@pow_10^(0+128)
  2418     0069  3003               	movlw	3
  2419     006A  00C0               	movwf	(float_LCD@pow_10^(0+128)+1)
  2420     006B                     l2460:
  2421                           
  2422                           ;main_scale.c: 91:     for (int i = 0; i<8; i++){
  2423     006B  01C1               	clrf	float_LCD@i^(0+128)
  2424     006C  01C2               	clrf	(float_LCD@i+1)^(0+128)
  2425     006D                     l2466:
  2426                           
  2427                           ;main_scale.c: 92:         if(i == 4)
  2428     006D  3004               	movlw	4
  2429     006E  1683               	bsf	3,5	;RP0=1, select bank1
  2430     006F  1303               	bcf	3,6	;RP1=0, select bank1
  2431     0070  0641               	xorwf	float_LCD@i^(0+128),w
  2432     0071  0442               	iorwf	(float_LCD@i+1)^(0+128),w
  2433     0072  1D03               	btfss	3,2
  2434     0073  2875               	goto	u3331
  2435     0074  2876               	goto	u3330
  2436     0075                     u3331:
  2437     0075  28BC               	goto	l2474
  2438     0076                     u3330:
  2439     0076                     l2468:
  2440                           
  2441                           ;main_scale.c: 93:         {;main_scale.c: 94:             cadena[4] = '.';
  2442     0076  302E               	movlw	46
  2443     0077  00E1               	movwf	(_cadena^(0+128)+4)
  2444     0078                     l2470:
  2445                           
  2446                           ;main_scale.c: 95:             value = value *1000;
  2447     0078  3044               	movlw	68
  2448     0079  1283               	bcf	3,5	;RP0=0, select bank0
  2449     007A  1303               	bcf	3,6	;RP1=0, select bank0
  2450     007B  00B8               	movwf	___flmul@b+3
  2451     007C  307A               	movlw	122
  2452     007D  00B7               	movwf	___flmul@b+2
  2453     007E  3000               	movlw	0
  2454     007F  00B6               	movwf	___flmul@b+1
  2455     0080  3000               	movlw	0
  2456     0081  00B5               	movwf	___flmul@b
  2457     0082  1683               	bsf	3,5	;RP0=1, select bank1
  2458     0083  1303               	bcf	3,6	;RP1=0, select bank1
  2459     0084  083B               	movf	(float_LCD@value+3)^(0+128),w
  2460     0085  1283               	bcf	3,5	;RP0=0, select bank0
  2461     0086  1303               	bcf	3,6	;RP1=0, select bank0
  2462     0087  00BC               	movwf	___flmul@a+3
  2463     0088  1683               	bsf	3,5	;RP0=1, select bank1
  2464     0089  1303               	bcf	3,6	;RP1=0, select bank1
  2465     008A  083A               	movf	(float_LCD@value+2)^(0+128),w
  2466     008B  1283               	bcf	3,5	;RP0=0, select bank0
  2467     008C  1303               	bcf	3,6	;RP1=0, select bank0
  2468     008D  00BB               	movwf	___flmul@a+2
  2469     008E  1683               	bsf	3,5	;RP0=1, select bank1
  2470     008F  1303               	bcf	3,6	;RP1=0, select bank1
  2471     0090  0839               	movf	(float_LCD@value+1)^(0+128),w
  2472     0091  1283               	bcf	3,5	;RP0=0, select bank0
  2473     0092  1303               	bcf	3,6	;RP1=0, select bank0
  2474     0093  00BA               	movwf	___flmul@a+1
  2475     0094  1683               	bsf	3,5	;RP0=1, select bank1
  2476     0095  1303               	bcf	3,6	;RP1=0, select bank1
  2477     0096  0838               	movf	float_LCD@value^(0+128),w
  2478     0097  1283               	bcf	3,5	;RP0=0, select bank0
  2479     0098  1303               	bcf	3,6	;RP1=0, select bank0
  2480     0099  00B9               	movwf	___flmul@a
  2481     009A  120A  118A  24AE  120A  118A  	fcall	___flmul
  2482     009F  1283               	bcf	3,5	;RP0=0, select bank0
  2483     00A0  1303               	bcf	3,6	;RP1=0, select bank0
  2484     00A1  0838               	movf	?___flmul+3,w
  2485     00A2  1683               	bsf	3,5	;RP0=1, select bank1
  2486     00A3  1303               	bcf	3,6	;RP1=0, select bank1
  2487     00A4  00BB               	movwf	(float_LCD@value+3)^(0+128)
  2488     00A5  1283               	bcf	3,5	;RP0=0, select bank0
  2489     00A6  1303               	bcf	3,6	;RP1=0, select bank0
  2490     00A7  0837               	movf	?___flmul+2,w
  2491     00A8  1683               	bsf	3,5	;RP0=1, select bank1
  2492     00A9  1303               	bcf	3,6	;RP1=0, select bank1
  2493     00AA  00BA               	movwf	(float_LCD@value+2)^(0+128)
  2494     00AB  1283               	bcf	3,5	;RP0=0, select bank0
  2495     00AC  1303               	bcf	3,6	;RP1=0, select bank0
  2496     00AD  0836               	movf	?___flmul+1,w
  2497     00AE  1683               	bsf	3,5	;RP0=1, select bank1
  2498     00AF  1303               	bcf	3,6	;RP1=0, select bank1
  2499     00B0  00B9               	movwf	(float_LCD@value+1)^(0+128)
  2500     00B1  1283               	bcf	3,5	;RP0=0, select bank0
  2501     00B2  1303               	bcf	3,6	;RP1=0, select bank0
  2502     00B3  0835               	movf	?___flmul,w
  2503     00B4  1683               	bsf	3,5	;RP0=1, select bank1
  2504     00B5  1303               	bcf	3,6	;RP1=0, select bank1
  2505     00B6  00B8               	movwf	float_LCD@value^(0+128)
  2506     00B7                     l2472:
  2507                           
  2508                           ;main_scale.c: 96:             pow_10 = 100;
  2509     00B7  3064               	movlw	100
  2510     00B8  00BF               	movwf	float_LCD@pow_10^(0+128)
  2511     00B9  3000               	movlw	0
  2512     00BA  00C0               	movwf	(float_LCD@pow_10^(0+128)+1)
  2513                           
  2514                           ;main_scale.c: 97:             continue;
  2515     00BB  29A4               	goto	l2484
  2516     00BC                     l2474:
  2517                           
  2518                           ;main_scale.c: 99:         v_temp = (int)(value/pow_10);
  2519     00BC  083B               	movf	(float_LCD@value+3)^(0+128),w
  2520     00BD  1283               	bcf	3,5	;RP0=0, select bank0
  2521     00BE  1303               	bcf	3,6	;RP1=0, select bank0
  2522     00BF  00D6               	movwf	___fldiv@b+3
  2523     00C0  1683               	bsf	3,5	;RP0=1, select bank1
  2524     00C1  1303               	bcf	3,6	;RP1=0, select bank1
  2525     00C2  083A               	movf	(float_LCD@value+2)^(0+128),w
  2526     00C3  1283               	bcf	3,5	;RP0=0, select bank0
  2527     00C4  1303               	bcf	3,6	;RP1=0, select bank0
  2528     00C5  00D5               	movwf	___fldiv@b+2
  2529     00C6  1683               	bsf	3,5	;RP0=1, select bank1
  2530     00C7  1303               	bcf	3,6	;RP1=0, select bank1
  2531     00C8  0839               	movf	(float_LCD@value+1)^(0+128),w
  2532     00C9  1283               	bcf	3,5	;RP0=0, select bank0
  2533     00CA  1303               	bcf	3,6	;RP1=0, select bank0
  2534     00CB  00D4               	movwf	___fldiv@b+1
  2535     00CC  1683               	bsf	3,5	;RP0=1, select bank1
  2536     00CD  1303               	bcf	3,6	;RP1=0, select bank1
  2537     00CE  0838               	movf	float_LCD@value^(0+128),w
  2538     00CF  1283               	bcf	3,5	;RP0=0, select bank0
  2539     00D0  1303               	bcf	3,6	;RP1=0, select bank0
  2540     00D1  00D3               	movwf	___fldiv@b
  2541     00D2  1683               	bsf	3,5	;RP0=1, select bank1
  2542     00D3  1303               	bcf	3,6	;RP1=0, select bank1
  2543     00D4  083F               	movf	float_LCD@pow_10^(0+128),w
  2544     00D5  00F0               	movwf	___xxtofl@val
  2545     00D6  0840               	movf	(float_LCD@pow_10+1)^(0+128),w
  2546     00D7  00F1               	movwf	___xxtofl@val+1
  2547     00D8  3000               	movlw	0
  2548     00D9  1BF1               	btfsc	___xxtofl@val+1,7
  2549     00DA  30FF               	movlw	255
  2550     00DB  00F2               	movwf	___xxtofl@val+2
  2551     00DC  00F3               	movwf	___xxtofl@val+3
  2552     00DD  3001               	movlw	1
  2553     00DE  120A  158A  20DF  120A  118A  	fcall	___xxtofl
  2554     00E3  0873               	movf	?___xxtofl+3,w
  2555     00E4  1283               	bcf	3,5	;RP0=0, select bank0
  2556     00E5  1303               	bcf	3,6	;RP1=0, select bank0
  2557     00E6  00D2               	movwf	___fldiv@a+3
  2558     00E7  0872               	movf	?___xxtofl+2,w
  2559     00E8  00D1               	movwf	___fldiv@a+2
  2560     00E9  0871               	movf	?___xxtofl+1,w
  2561     00EA  00D0               	movwf	___fldiv@a+1
  2562     00EB  0870               	movf	?___xxtofl,w
  2563     00EC  00CF               	movwf	___fldiv@a
  2564     00ED  120A  158A  2197  120A  118A  	fcall	___fldiv
  2565     00F2  1283               	bcf	3,5	;RP0=0, select bank0
  2566     00F3  1303               	bcf	3,6	;RP1=0, select bank0
  2567     00F4  0852               	movf	?___fldiv+3,w
  2568     00F5  00EC               	movwf	___fltol@f1+3
  2569     00F6  0851               	movf	?___fldiv+2,w
  2570     00F7  00EB               	movwf	___fltol@f1+2
  2571     00F8  0850               	movf	?___fldiv+1,w
  2572     00F9  00EA               	movwf	___fltol@f1+1
  2573     00FA  084F               	movf	?___fldiv,w
  2574     00FB  00E9               	movwf	___fltol@f1
  2575     00FC  120A  158A  204F  120A  118A  	fcall	___fltol
  2576     0101  1283               	bcf	3,5	;RP0=0, select bank0
  2577     0102  1303               	bcf	3,6	;RP1=0, select bank0
  2578     0103  086A               	movf	?___fltol+1,w
  2579     0104  1683               	bsf	3,5	;RP0=1, select bank1
  2580     0105  1303               	bcf	3,6	;RP1=0, select bank1
  2581     0106  00BE               	movwf	(float_LCD@v_temp+1)^(0+128)
  2582     0107  1283               	bcf	3,5	;RP0=0, select bank0
  2583     0108  1303               	bcf	3,6	;RP1=0, select bank0
  2584     0109  0869               	movf	?___fltol,w
  2585     010A  1683               	bsf	3,5	;RP0=1, select bank1
  2586     010B  1303               	bcf	3,6	;RP1=0, select bank1
  2587     010C  00BD               	movwf	float_LCD@v_temp^(0+128)
  2588     010D                     l2476:
  2589                           
  2590                           ;main_scale.c: 100:         cadena[i] = num_s(v_temp,flag);
  2591     010D  083E               	movf	(float_LCD@v_temp+1)^(0+128),w
  2592     010E  00F1               	movwf	num_s@val+1
  2593     010F  083D               	movf	float_LCD@v_temp^(0+128),w
  2594     0110  00F0               	movwf	num_s@val
  2595     0111  083C               	movf	float_LCD@flag^(0+128),w
  2596     0112  00F2               	movwf	num_s@flag
  2597     0113  120A  118A  2025  120A  118A  	fcall	_num_s
  2598     0118  00FF               	movwf	btemp+1
  2599     0119  1683               	bsf	3,5	;RP0=1, select bank1
  2600     011A  1303               	bcf	3,6	;RP1=0, select bank1
  2601     011B  0841               	movf	float_LCD@i^(0+128),w
  2602     011C  3EDD               	addlw	(low (_cadena| 0))& (0+255)
  2603     011D  0084               	movwf	4
  2604     011E  087F               	movf	btemp+1,w
  2605     011F  1383               	bcf	3,7	;select IRP bank1
  2606     0120  0080               	movwf	0
  2607     0121                     l2478:
  2608                           
  2609                           ;main_scale.c: 101:         if(v_temp != 0){flag = 1;}
  2610     0121  083D               	movf	float_LCD@v_temp^(0+128),w
  2611     0122  043E               	iorwf	(float_LCD@v_temp+1)^(0+128),w
  2612     0123  1903               	btfsc	3,2
  2613     0124  2926               	goto	u3341
  2614     0125  2927               	goto	u3340
  2615     0126                     u3341:
  2616     0126  2929               	goto	l2482
  2617     0127                     u3340:
  2618     0127                     l2480:
  2619     0127  01BC               	clrf	float_LCD@flag^(0+128)
  2620     0128  0ABC               	incf	float_LCD@flag^(0+128),f
  2621     0129                     l2482:
  2622                           
  2623                           ;main_scale.c: 102:         value = value - ((float)v_temp*pow_10);
  2624     0129  083F               	movf	float_LCD@pow_10^(0+128),w
  2625     012A  00F0               	movwf	___xxtofl@val
  2626     012B  0840               	movf	(float_LCD@pow_10+1)^(0+128),w
  2627     012C  00F1               	movwf	___xxtofl@val+1
  2628     012D  3000               	movlw	0
  2629     012E  1BF1               	btfsc	___xxtofl@val+1,7
  2630     012F  30FF               	movlw	255
  2631     0130  00F2               	movwf	___xxtofl@val+2
  2632     0131  00F3               	movwf	___xxtofl@val+3
  2633     0132  3001               	movlw	1
  2634     0133  120A  158A  20DF  120A  118A  	fcall	___xxtofl
  2635     0138  0873               	movf	?___xxtofl+3,w
  2636     0139  1283               	bcf	3,5	;RP0=0, select bank0
  2637     013A  1303               	bcf	3,6	;RP1=0, select bank0
  2638     013B  00B8               	movwf	___flmul@b+3
  2639     013C  0872               	movf	?___xxtofl+2,w
  2640     013D  00B7               	movwf	___flmul@b+2
  2641     013E  0871               	movf	?___xxtofl+1,w
  2642     013F  00B6               	movwf	___flmul@b+1
  2643     0140  0870               	movf	?___xxtofl,w
  2644     0141  00B5               	movwf	___flmul@b
  2645     0142  1683               	bsf	3,5	;RP0=1, select bank1
  2646     0143  1303               	bcf	3,6	;RP1=0, select bank1
  2647     0144  083D               	movf	float_LCD@v_temp^(0+128),w
  2648     0145  00F0               	movwf	___xxtofl@val
  2649     0146  083E               	movf	(float_LCD@v_temp+1)^(0+128),w
  2650     0147  00F1               	movwf	___xxtofl@val+1
  2651     0148  3000               	movlw	0
  2652     0149  1BF1               	btfsc	___xxtofl@val+1,7
  2653     014A  30FF               	movlw	255
  2654     014B  00F2               	movwf	___xxtofl@val+2
  2655     014C  00F3               	movwf	___xxtofl@val+3
  2656     014D  3001               	movlw	1
  2657     014E  120A  158A  20DF  120A  118A  	fcall	___xxtofl
  2658     0153  0873               	movf	?___xxtofl+3,w
  2659     0154  1283               	bcf	3,5	;RP0=0, select bank0
  2660     0155  1303               	bcf	3,6	;RP1=0, select bank0
  2661     0156  00BC               	movwf	___flmul@a+3
  2662     0157  0872               	movf	?___xxtofl+2,w
  2663     0158  00BB               	movwf	___flmul@a+2
  2664     0159  0871               	movf	?___xxtofl+1,w
  2665     015A  00BA               	movwf	___flmul@a+1
  2666     015B  0870               	movf	?___xxtofl,w
  2667     015C  00B9               	movwf	___flmul@a
  2668     015D  120A  118A  24AE  120A  118A  	fcall	___flmul
  2669     0162  1283               	bcf	3,5	;RP0=0, select bank0
  2670     0163  1303               	bcf	3,6	;RP1=0, select bank0
  2671     0164  0838               	movf	?___flmul+3,w
  2672     0165  1683               	bsf	3,5	;RP0=1, select bank1
  2673     0166  1303               	bcf	3,6	;RP1=0, select bank1
  2674     0167  00B3               	movwf	(___flsub@a+3)^(0+128)
  2675     0168  1283               	bcf	3,5	;RP0=0, select bank0
  2676     0169  1303               	bcf	3,6	;RP1=0, select bank0
  2677     016A  0837               	movf	?___flmul+2,w
  2678     016B  1683               	bsf	3,5	;RP0=1, select bank1
  2679     016C  1303               	bcf	3,6	;RP1=0, select bank1
  2680     016D  00B2               	movwf	(___flsub@a+2)^(0+128)
  2681     016E  1283               	bcf	3,5	;RP0=0, select bank0
  2682     016F  1303               	bcf	3,6	;RP1=0, select bank0
  2683     0170  0836               	movf	?___flmul+1,w
  2684     0171  1683               	bsf	3,5	;RP0=1, select bank1
  2685     0172  1303               	bcf	3,6	;RP1=0, select bank1
  2686     0173  00B1               	movwf	(___flsub@a+1)^(0+128)
  2687     0174  1283               	bcf	3,5	;RP0=0, select bank0
  2688     0175  1303               	bcf	3,6	;RP1=0, select bank0
  2689     0176  0835               	movf	?___flmul,w
  2690     0177  1683               	bsf	3,5	;RP0=1, select bank1
  2691     0178  1303               	bcf	3,6	;RP1=0, select bank1
  2692     0179  00B0               	movwf	___flsub@a^(0+128)
  2693     017A  083B               	movf	(float_LCD@value+3)^(0+128),w
  2694     017B  00B7               	movwf	(___flsub@b+3)^(0+128)
  2695     017C  083A               	movf	(float_LCD@value+2)^(0+128),w
  2696     017D  00B6               	movwf	(___flsub@b+2)^(0+128)
  2697     017E  0839               	movf	(float_LCD@value+1)^(0+128),w
  2698     017F  00B5               	movwf	(___flsub@b+1)^(0+128)
  2699     0180  0838               	movf	float_LCD@value^(0+128),w
  2700     0181  00B4               	movwf	___flsub@b^(0+128)
  2701     0182  120A  158A  2001  120A  118A  	fcall	___flsub
  2702     0187  1683               	bsf	3,5	;RP0=1, select bank1
  2703     0188  1303               	bcf	3,6	;RP1=0, select bank1
  2704     0189  0833               	movf	(?___flsub+3)^(0+128),w
  2705     018A  00BB               	movwf	(float_LCD@value+3)^(0+128)
  2706     018B  0832               	movf	(?___flsub+2)^(0+128),w
  2707     018C  00BA               	movwf	(float_LCD@value+2)^(0+128)
  2708     018D  0831               	movf	(?___flsub+1)^(0+128),w
  2709     018E  00B9               	movwf	(float_LCD@value+1)^(0+128)
  2710     018F  0830               	movf	?___flsub^(0+128),w
  2711     0190  00B8               	movwf	float_LCD@value^(0+128)
  2712                           
  2713                           ;main_scale.c: 103:         pow_10 = pow_10/10;
  2714     0191  300A               	movlw	10
  2715     0192  00F0               	movwf	___awdiv@divisor
  2716     0193  3000               	movlw	0
  2717     0194  00F1               	movwf	___awdiv@divisor+1
  2718     0195  0840               	movf	(float_LCD@pow_10+1)^(0+128),w
  2719     0196  00F3               	movwf	___awdiv@dividend+1
  2720     0197  083F               	movf	float_LCD@pow_10^(0+128),w
  2721     0198  00F2               	movwf	___awdiv@dividend
  2722     0199  160A  118A  2799  120A  118A  	fcall	___awdiv
  2723     019E  0871               	movf	?___awdiv+1,w
  2724     019F  1683               	bsf	3,5	;RP0=1, select bank1
  2725     01A0  1303               	bcf	3,6	;RP1=0, select bank1
  2726     01A1  00C0               	movwf	(float_LCD@pow_10+1)^(0+128)
  2727     01A2  0870               	movf	?___awdiv,w
  2728     01A3  00BF               	movwf	float_LCD@pow_10^(0+128)
  2729     01A4                     l2484:
  2730     01A4  3001               	movlw	1
  2731     01A5  07C1               	addwf	float_LCD@i^(0+128),f
  2732     01A6  1803               	skipnc
  2733     01A7  0AC2               	incf	(float_LCD@i+1)^(0+128),f
  2734     01A8  3000               	movlw	0
  2735     01A9  07C2               	addwf	(float_LCD@i+1)^(0+128),f
  2736     01AA                     l2486:
  2737     01AA  0842               	movf	(float_LCD@i+1)^(0+128),w
  2738     01AB  3A80               	xorlw	128
  2739     01AC  00FF               	movwf	btemp+1
  2740     01AD  3080               	movlw	128
  2741     01AE  027F               	subwf	btemp+1,w
  2742     01AF  1D03               	skipz
  2743     01B0  29B3               	goto	u3355
  2744     01B1  3008               	movlw	8
  2745     01B2  0241               	subwf	float_LCD@i^(0+128),w
  2746     01B3                     u3355:
  2747     01B3  1C03               	skipc
  2748     01B4  29B6               	goto	u3351
  2749     01B5  29B7               	goto	u3350
  2750     01B6                     u3351:
  2751     01B6  286D               	goto	l2466
  2752     01B7                     u3350:
  2753     01B7                     l63:
  2754     01B7  0008               	return
  2755     01B8                     __end_of_float_LCD:
  2756                           
  2757                           	psect	text7
  2758     0025                     __ptext7:	
  2759 ;; *************** function _num_s *****************
  2760 ;; Defined at:
  2761 ;;		line 52 in file "main_scale.c"
  2762 ;; Parameters:    Size  Location     Type
  2763 ;;  val             2    0[COMMON] int 
  2764 ;;  flag            1    2[COMMON] unsigned char 
  2765 ;; Auto vars:     Size  Location     Type
  2766 ;;		None
  2767 ;; Return value:  Size  Location     Type
  2768 ;;                  1    wreg      unsigned char 
  2769 ;; Registers used:
  2770 ;;		wreg, fsr0l, fsr0h, status,2, status,0
  2771 ;; Tracked objects:
  2772 ;;		On entry : 0/0
  2773 ;;		On exit  : 0/0
  2774 ;;		Unchanged: 0/0
  2775 ;; Data sizes:     COMMON   BANK0   BANK1   BANK3   BANK2
  2776 ;;      Params:         3       0       0       0       0
  2777 ;;      Locals:         0       0       0       0       0
  2778 ;;      Temps:          0       0       0       0       0
  2779 ;;      Totals:         3       0       0       0       0
  2780 ;;Total ram usage:        3 bytes
  2781 ;; Hardware stack levels used: 1
  2782 ;; This function calls:
  2783 ;;		Nothing
  2784 ;; This function is called by:
  2785 ;;		_float_LCD
  2786 ;; This function uses a non-reentrant model
  2787 ;;
  2788                           
  2789     0025                     _num_s:	
  2790                           ;psect for function _num_s
  2791                           
  2792     0025                     l1934:	
  2793                           ;incstack = 0
  2794                           ; Regs used in _num_s: [wreg-fsr0h+status,2+status,0]
  2795                           
  2796                           
  2797                           ;main_scale.c: 53:     switch(val){
  2798     0025  2841               	goto	l2002
  2799     0026                     l1936:
  2800                           
  2801                           ;main_scale.c: 55:             return '1';
  2802     0026  3031               	movlw	49
  2803     0027  2863               	goto	l43
  2804     0028                     l1942:
  2805                           
  2806                           ;main_scale.c: 58:             return '2';
  2807     0028  3032               	movlw	50
  2808     0029  2863               	goto	l43
  2809     002A                     l1948:
  2810                           
  2811                           ;main_scale.c: 61:             return '3';
  2812     002A  3033               	movlw	51
  2813     002B  2863               	goto	l43
  2814     002C                     l1954:
  2815                           
  2816                           ;main_scale.c: 64:             return '4';
  2817     002C  3034               	movlw	52
  2818     002D  2863               	goto	l43
  2819     002E                     l1960:
  2820                           
  2821                           ;main_scale.c: 67:             return '5';
  2822     002E  3035               	movlw	53
  2823     002F  2863               	goto	l43
  2824     0030                     l1966:
  2825                           
  2826                           ;main_scale.c: 70:             return '6';
  2827     0030  3036               	movlw	54
  2828     0031  2863               	goto	l43
  2829     0032                     l1972:
  2830                           
  2831                           ;main_scale.c: 73:             return '7';
  2832     0032  3037               	movlw	55
  2833     0033  2863               	goto	l43
  2834     0034                     l1978:
  2835                           
  2836                           ;main_scale.c: 76:             return '8';
  2837     0034  3038               	movlw	56
  2838     0035  2863               	goto	l43
  2839     0036                     l1984:
  2840                           
  2841                           ;main_scale.c: 79:             return '9';
  2842     0036  3039               	movlw	57
  2843     0037  2863               	goto	l43
  2844     0038                     l1990:
  2845                           
  2846                           ;main_scale.c: 82:             if (flag == 0){return ' ';}
  2847     0038  0872               	movf	num_s@flag,w
  2848     0039  1D03               	btfss	3,2
  2849     003A  283C               	goto	u2321
  2850     003B  283D               	goto	u2320
  2851     003C                     u2321:
  2852     003C  283F               	goto	l1998
  2853     003D                     u2320:
  2854     003D                     l1992:
  2855     003D  3020               	movlw	32
  2856     003E  2863               	goto	l43
  2857     003F                     l1998:
  2858     003F  3030               	movlw	48
  2859     0040  2863               	goto	l43
  2860     0041                     l2002:
  2861                           
  2862                           ; Switch on 2 bytes has been partitioned into a top level switch of size 1, and 1 sub-sw
      +                          itches
  2863                           ; Switch size 1, requested type "simple"
  2864                           ; Number of cases is 1, Range of values is 0 to 0
  2865                           ; switch strategies available:
  2866                           ; Name         Instructions Cycles
  2867                           ; simple_byte            4     3 (average)
  2868                           ; direct_byte           11     8 (fixed)
  2869                           ; jumptable            260     6 (fixed)
  2870                           ;	Chosen strategy is simple_byte
  2871     0041  0871               	movf	num_s@val+1,w
  2872     0042  3A00               	xorlw	0	; case 0
  2873     0043  1903               	skipnz
  2874     0044  2846               	goto	l2712
  2875     0045  2838               	goto	l1990
  2876     0046                     l2712:
  2877                           
  2878                           ; Switch size 1, requested type "simple"
  2879                           ; Number of cases is 9, Range of values is 1 to 9
  2880                           ; switch strategies available:
  2881                           ; Name         Instructions Cycles
  2882                           ; simple_byte           28    15 (average)
  2883                           ; direct_byte           38    11 (fixed)
  2884                           ; jumptable            263     9 (fixed)
  2885                           ;	Chosen strategy is simple_byte
  2886     0046  0870               	movf	num_s@val,w
  2887     0047  3A01               	xorlw	1	; case 1
  2888     0048  1903               	skipnz
  2889     0049  2826               	goto	l1936
  2890     004A  3A03               	xorlw	3	; case 2
  2891     004B  1903               	skipnz
  2892     004C  2828               	goto	l1942
  2893     004D  3A01               	xorlw	1	; case 3
  2894     004E  1903               	skipnz
  2895     004F  282A               	goto	l1948
  2896     0050  3A07               	xorlw	7	; case 4
  2897     0051  1903               	skipnz
  2898     0052  282C               	goto	l1954
  2899     0053  3A01               	xorlw	1	; case 5
  2900     0054  1903               	skipnz
  2901     0055  282E               	goto	l1960
  2902     0056  3A03               	xorlw	3	; case 6
  2903     0057  1903               	skipnz
  2904     0058  2830               	goto	l1966
  2905     0059  3A01               	xorlw	1	; case 7
  2906     005A  1903               	skipnz
  2907     005B  2832               	goto	l1972
  2908     005C  3A0F               	xorlw	15	; case 8
  2909     005D  1903               	skipnz
  2910     005E  2834               	goto	l1978
  2911     005F  3A01               	xorlw	1	; case 9
  2912     0060  1903               	skipnz
  2913     0061  2836               	goto	l1984
  2914     0062  2838               	goto	l1990
  2915     0063                     l43:
  2916     0063  0008               	return
  2917     0064                     __end_of_num_s:
  2918                           
  2919                           	psect	text8
  2920     08DF                     __ptext8:	
  2921 ;; *************** function ___xxtofl *****************
  2922 ;; Defined at:
  2923 ;;		line 10 in file "C:\Program Files\Microchip\xc8\v2.41\pic\sources\c90\common\xxtofl.c"
  2924 ;; Parameters:    Size  Location     Type
  2925 ;;  sign            1    wreg     unsigned char 
  2926 ;;  val             4    0[COMMON] long 
  2927 ;; Auto vars:     Size  Location     Type
  2928 ;;  sign            1    8[COMMON] unsigned char 
  2929 ;;  arg             4   10[COMMON] unsigned long 
  2930 ;;  exp             1    9[COMMON] unsigned char 
  2931 ;; Return value:  Size  Location     Type
  2932 ;;                  4    0[COMMON] unsigned char 
  2933 ;; Registers used:
  2934 ;;		wreg, status,2, status,0, btemp+1
  2935 ;; Tracked objects:
  2936 ;;		On entry : 0/0
  2937 ;;		On exit  : 0/0
  2938 ;;		Unchanged: 0/0
  2939 ;; Data sizes:     COMMON   BANK0   BANK1   BANK3   BANK2
  2940 ;;      Params:         4       0       0       0       0
  2941 ;;      Locals:         6       0       0       0       0
  2942 ;;      Temps:          4       0       0       0       0
  2943 ;;      Totals:        14       0       0       0       0
  2944 ;;Total ram usage:       14 bytes
  2945 ;; Hardware stack levels used: 1
  2946 ;; This function calls:
  2947 ;;		Nothing
  2948 ;; This function is called by:
  2949 ;;		_float_LCD
  2950 ;;		_main
  2951 ;; This function uses a non-reentrant model
  2952 ;;
  2953                           
  2954     08DF                     ___xxtofl:	
  2955                           ;psect for function ___xxtofl
  2956                           
  2957                           
  2958                           ;incstack = 0
  2959                           ; Regs used in ___xxtofl: [wreg+status,2+status,0+btemp+1]
  2960                           ;___xxtofl@sign stored from wreg
  2961     08DF  00F8               	movwf	___xxtofl@sign
  2962     08E0                     l2408:
  2963     08E0  0878               	movf	___xxtofl@sign,w
  2964     08E1  1903               	btfsc	3,2
  2965     08E2  28E4               	goto	u3191
  2966     08E3  28E5               	goto	u3190
  2967     08E4                     u3191:
  2968     08E4  28F9               	goto	l2414
  2969     08E5                     u3190:
  2970     08E5                     l2410:
  2971     08E5  1FF3               	btfss	___xxtofl@val+3,7
  2972     08E6  28E8               	goto	u3201
  2973     08E7  28E9               	goto	u3200
  2974     08E8                     u3201:
  2975     08E8  28F9               	goto	l2414
  2976     08E9                     u3200:
  2977     08E9                     l2412:
  2978     08E9  0970               	comf	___xxtofl@val,w
  2979     08EA  00FA               	movwf	___xxtofl@arg
  2980     08EB  0971               	comf	___xxtofl@val+1,w
  2981     08EC  00FB               	movwf	___xxtofl@arg+1
  2982     08ED  0972               	comf	___xxtofl@val+2,w
  2983     08EE  00FC               	movwf	___xxtofl@arg+2
  2984     08EF  0973               	comf	___xxtofl@val+3,w
  2985     08F0  00FD               	movwf	___xxtofl@arg+3
  2986     08F1  0AFA               	incf	___xxtofl@arg,f
  2987     08F2  1903               	skipnz
  2988     08F3  0AFB               	incf	___xxtofl@arg+1,f
  2989     08F4  1903               	skipnz
  2990     08F5  0AFC               	incf	___xxtofl@arg+2,f
  2991     08F6  1903               	skipnz
  2992     08F7  0AFD               	incf	___xxtofl@arg+3,f
  2993     08F8  2901               	goto	l643
  2994     08F9                     l2414:
  2995     08F9  0873               	movf	___xxtofl@val+3,w
  2996     08FA  00FD               	movwf	___xxtofl@arg+3
  2997     08FB  0872               	movf	___xxtofl@val+2,w
  2998     08FC  00FC               	movwf	___xxtofl@arg+2
  2999     08FD  0871               	movf	___xxtofl@val+1,w
  3000     08FE  00FB               	movwf	___xxtofl@arg+1
  3001     08FF  0870               	movf	___xxtofl@val,w
  3002     0900  00FA               	movwf	___xxtofl@arg
  3003     0901                     l643:
  3004     0901  0873               	movf	___xxtofl@val+3,w
  3005     0902  0472               	iorwf	___xxtofl@val+2,w
  3006     0903  0471               	iorwf	___xxtofl@val+1,w
  3007     0904  0470               	iorwf	___xxtofl@val,w
  3008     0905  1D03               	skipz
  3009     0906  2908               	goto	u3211
  3010     0907  2909               	goto	u3210
  3011     0908                     u3211:
  3012     0908  2912               	goto	l2420
  3013     0909                     u3210:
  3014     0909                     l2416:
  3015     0909  3000               	movlw	0
  3016     090A  00F3               	movwf	?___xxtofl+3
  3017     090B  3000               	movlw	0
  3018     090C  00F2               	movwf	?___xxtofl+2
  3019     090D  3000               	movlw	0
  3020     090E  00F1               	movwf	?___xxtofl+1
  3021     090F  3000               	movlw	0
  3022     0910  00F0               	movwf	?___xxtofl
  3023     0911  2996               	goto	l645
  3024     0912                     l2420:
  3025     0912  3096               	movlw	150
  3026     0913  00F9               	movwf	___xxtofl@exp
  3027     0914  2922               	goto	l2426
  3028     0915                     l2422:
  3029     0915  3001               	movlw	1
  3030     0916  00FF               	movwf	btemp+1
  3031     0917  087F               	movf	btemp+1,w
  3032     0918  07F9               	addwf	___xxtofl@exp,f
  3033     0919                     l2424:
  3034     0919  3001               	movlw	1
  3035     091A                     u3225:
  3036     091A  1003               	clrc
  3037     091B  0CFD               	rrf	___xxtofl@arg+3,f
  3038     091C  0CFC               	rrf	___xxtofl@arg+2,f
  3039     091D  0CFB               	rrf	___xxtofl@arg+1,f
  3040     091E  0CFA               	rrf	___xxtofl@arg,f
  3041     091F  3EFF               	addlw	-1
  3042     0920  1D03               	skipz
  3043     0921  291A               	goto	u3225
  3044     0922                     l2426:
  3045     0922  30FE               	movlw	254
  3046     0923  057D               	andwf	___xxtofl@arg+3,w
  3047     0924  1D03               	btfss	3,2
  3048     0925  2927               	goto	u3231
  3049     0926  2928               	goto	u3230
  3050     0927                     u3231:
  3051     0927  2915               	goto	l2422
  3052     0928                     u3230:
  3053     0928  2944               	goto	l2434
  3054     0929                     l2428:
  3055     0929  3001               	movlw	1
  3056     092A  00FF               	movwf	btemp+1
  3057     092B  087F               	movf	btemp+1,w
  3058     092C  07F9               	addwf	___xxtofl@exp,f
  3059     092D                     l2430:
  3060     092D  3001               	movlw	1
  3061     092E  07FA               	addwf	___xxtofl@arg,f
  3062     092F  3000               	movlw	0
  3063     0930  1803               	skipnc
  3064     0931  3001               	movlw	1
  3065     0932  07FB               	addwf	___xxtofl@arg+1,f
  3066     0933  3000               	movlw	0
  3067     0934  1803               	skipnc
  3068     0935  3001               	movlw	1
  3069     0936  07FC               	addwf	___xxtofl@arg+2,f
  3070     0937  3000               	movlw	0
  3071     0938  1803               	skipnc
  3072     0939  3001               	movlw	1
  3073     093A  07FD               	addwf	___xxtofl@arg+3,f
  3074     093B                     l2432:
  3075     093B  3001               	movlw	1
  3076     093C                     u3245:
  3077     093C  1003               	clrc
  3078     093D  0CFD               	rrf	___xxtofl@arg+3,f
  3079     093E  0CFC               	rrf	___xxtofl@arg+2,f
  3080     093F  0CFB               	rrf	___xxtofl@arg+1,f
  3081     0940  0CFA               	rrf	___xxtofl@arg,f
  3082     0941  3EFF               	addlw	-1
  3083     0942  1D03               	skipz
  3084     0943  293C               	goto	u3245
  3085     0944                     l2434:
  3086     0944  30FF               	movlw	255
  3087     0945  057D               	andwf	___xxtofl@arg+3,w
  3088     0946  1D03               	btfss	3,2
  3089     0947  2949               	goto	u3251
  3090     0948  294A               	goto	u3250
  3091     0949                     u3251:
  3092     0949  2929               	goto	l2428
  3093     094A                     u3250:
  3094     094A  2956               	goto	l2438
  3095     094B                     l2436:
  3096     094B  3001               	movlw	1
  3097     094C  02F9               	subwf	___xxtofl@exp,f
  3098     094D  3001               	movlw	1
  3099     094E  00F4               	movwf	??___xxtofl
  3100     094F                     u3265:
  3101     094F  1003               	clrc
  3102     0950  0DFA               	rlf	___xxtofl@arg,f
  3103     0951  0DFB               	rlf	___xxtofl@arg+1,f
  3104     0952  0DFC               	rlf	___xxtofl@arg+2,f
  3105     0953  0DFD               	rlf	___xxtofl@arg+3,f
  3106     0954  0BF4               	decfsz	??___xxtofl,f
  3107     0955  294F               	goto	u3265
  3108     0956                     l2438:
  3109     0956  1BFC               	btfsc	___xxtofl@arg+2,7
  3110     0957  2959               	goto	u3271
  3111     0958  295A               	goto	u3270
  3112     0959                     u3271:
  3113     0959  2960               	goto	l656
  3114     095A                     u3270:
  3115     095A                     l2440:
  3116     095A  3002               	movlw	2
  3117     095B  0279               	subwf	___xxtofl@exp,w
  3118     095C  1803               	skipnc
  3119     095D  295F               	goto	u3281
  3120     095E  2960               	goto	u3280
  3121     095F                     u3281:
  3122     095F  294B               	goto	l2436
  3123     0960                     u3280:
  3124     0960                     l656:
  3125     0960  1879               	btfsc	___xxtofl@exp,0
  3126     0961  2963               	goto	u3291
  3127     0962  2964               	goto	u3290
  3128     0963                     u3291:
  3129     0963  296C               	goto	l657
  3130     0964                     u3290:
  3131     0964                     l2442:
  3132     0964  30FF               	movlw	255
  3133     0965  05FA               	andwf	___xxtofl@arg,f
  3134     0966  30FF               	movlw	255
  3135     0967  05FB               	andwf	___xxtofl@arg+1,f
  3136     0968  307F               	movlw	127
  3137     0969  05FC               	andwf	___xxtofl@arg+2,f
  3138     096A  30FF               	movlw	255
  3139     096B  05FD               	andwf	___xxtofl@arg+3,f
  3140     096C                     l657:
  3141     096C  1003               	clrc
  3142     096D  0CF9               	rrf	___xxtofl@exp,f
  3143     096E                     l2444:
  3144     096E  0879               	movf	___xxtofl@exp,w
  3145     096F  00F4               	movwf	??___xxtofl
  3146     0970  01F5               	clrf	??___xxtofl+1
  3147     0971  01F6               	clrf	??___xxtofl+2
  3148     0972  01F7               	clrf	??___xxtofl+3
  3149     0973  3018               	movlw	24
  3150     0974                     u3305:
  3151     0974  1003               	clrc
  3152     0975  0DF4               	rlf	??___xxtofl,f
  3153     0976  0DF5               	rlf	??___xxtofl+1,f
  3154     0977  0DF6               	rlf	??___xxtofl+2,f
  3155     0978  0DF7               	rlf	??___xxtofl+3,f
  3156     0979                     u3300:
  3157     0979  3EFF               	addlw	-1
  3158     097A  1D03               	skipz
  3159     097B  2974               	goto	u3305
  3160     097C  0874               	movf	??___xxtofl,w
  3161     097D  04FA               	iorwf	___xxtofl@arg,f
  3162     097E  0875               	movf	??___xxtofl+1,w
  3163     097F  04FB               	iorwf	___xxtofl@arg+1,f
  3164     0980  0876               	movf	??___xxtofl+2,w
  3165     0981  04FC               	iorwf	___xxtofl@arg+2,f
  3166     0982  0877               	movf	??___xxtofl+3,w
  3167     0983  04FD               	iorwf	___xxtofl@arg+3,f
  3168     0984                     l2446:
  3169     0984  0878               	movf	___xxtofl@sign,w
  3170     0985  1903               	btfsc	3,2
  3171     0986  2988               	goto	u3311
  3172     0987  2989               	goto	u3310
  3173     0988                     u3311:
  3174     0988  298E               	goto	l2452
  3175     0989                     u3310:
  3176     0989                     l2448:
  3177     0989  1FF3               	btfss	___xxtofl@val+3,7
  3178     098A  298C               	goto	u3321
  3179     098B  298D               	goto	u3320
  3180     098C                     u3321:
  3181     098C  298E               	goto	l2452
  3182     098D                     u3320:
  3183     098D                     l2450:
  3184     098D  17FD               	bsf	___xxtofl@arg+3,7
  3185     098E                     l2452:
  3186     098E  087D               	movf	___xxtofl@arg+3,w
  3187     098F  00F3               	movwf	?___xxtofl+3
  3188     0990  087C               	movf	___xxtofl@arg+2,w
  3189     0991  00F2               	movwf	?___xxtofl+2
  3190     0992  087B               	movf	___xxtofl@arg+1,w
  3191     0993  00F1               	movwf	?___xxtofl+1
  3192     0994  087A               	movf	___xxtofl@arg,w
  3193     0995  00F0               	movwf	?___xxtofl
  3194     0996                     l645:
  3195     0996  0008               	return
  3196     0997                     __end_of___xxtofl:
  3197                           
  3198                           	psect	text9
  3199     084F                     __ptext9:	
  3200 ;; *************** function ___fltol *****************
  3201 ;; Defined at:
  3202 ;;		line 43 in file "C:\Program Files\Microchip\xc8\v2.41\pic\sources\c90\common\fltol.c"
  3203 ;; Parameters:    Size  Location     Type
  3204 ;;  f1              4   73[BANK0 ] unsigned char 
  3205 ;; Auto vars:     Size  Location     Type
  3206 ;;  exp1            1   78[BANK0 ] unsigned char 
  3207 ;;  sign1           1   77[BANK0 ] unsigned char 
  3208 ;; Return value:  Size  Location     Type
  3209 ;;                  4   73[BANK0 ] long 
  3210 ;; Registers used:
  3211 ;;		wreg, status,2, status,0, btemp+1
  3212 ;; Tracked objects:
  3213 ;;		On entry : 0/0
  3214 ;;		On exit  : 0/0
  3215 ;;		Unchanged: 0/0
  3216 ;; Data sizes:     COMMON   BANK0   BANK1   BANK3   BANK2
  3217 ;;      Params:         0       4       0       0       0
  3218 ;;      Locals:         0       2       0       0       0
  3219 ;;      Temps:          0       0       4       0       0
  3220 ;;      Totals:         0       6       4       0       0
  3221 ;;Total ram usage:       10 bytes
  3222 ;; Hardware stack levels used: 1
  3223 ;; This function calls:
  3224 ;;		Nothing
  3225 ;; This function is called by:
  3226 ;;		_float_LCD
  3227 ;; This function uses a non-reentrant model
  3228 ;;
  3229                           
  3230     084F                     ___fltol:	
  3231                           ;psect for function ___fltol
  3232                           
  3233     084F                     l2076:	
  3234                           ;incstack = 0
  3235                           ; Regs used in ___fltol: [wreg+status,2+status,0+btemp+1]
  3236                           
  3237     084F  1003               	clrc
  3238     0850  1283               	bcf	3,5	;RP0=0, select bank0
  3239     0851  1303               	bcf	3,6	;RP1=0, select bank0
  3240     0852  0D6B               	rlf	___fltol@f1+2,w
  3241     0853  0D6C               	rlf	___fltol@f1+3,w
  3242     0854  00EE               	movwf	___fltol@exp1
  3243     0855  086E               	movf	___fltol@exp1,w
  3244     0856  1D03               	btfss	3,2
  3245     0857  2859               	goto	u2431
  3246     0858  285A               	goto	u2430
  3247     0859                     u2431:
  3248     0859  2863               	goto	l2082
  3249     085A                     u2430:
  3250     085A                     l2078:
  3251     085A  3000               	movlw	0
  3252     085B  00EC               	movwf	?___fltol+3
  3253     085C  3000               	movlw	0
  3254     085D  00EB               	movwf	?___fltol+2
  3255     085E  3000               	movlw	0
  3256     085F  00EA               	movwf	?___fltol+1
  3257     0860  3000               	movlw	0
  3258     0861  00E9               	movwf	?___fltol
  3259     0862  28DE               	goto	l376
  3260     0863                     l2082:
  3261     0863  0869               	movf	___fltol@f1,w
  3262     0864  1683               	bsf	3,5	;RP0=1, select bank1
  3263     0865  1303               	bcf	3,6	;RP1=0, select bank1
  3264     0866  00A0               	movwf	??___fltol^(0+128)
  3265     0867  1283               	bcf	3,5	;RP0=0, select bank0
  3266     0868  1303               	bcf	3,6	;RP1=0, select bank0
  3267     0869  086A               	movf	___fltol@f1+1,w
  3268     086A  1683               	bsf	3,5	;RP0=1, select bank1
  3269     086B  1303               	bcf	3,6	;RP1=0, select bank1
  3270     086C  00A1               	movwf	(??___fltol^(0+128)+1)
  3271     086D  1283               	bcf	3,5	;RP0=0, select bank0
  3272     086E  1303               	bcf	3,6	;RP1=0, select bank0
  3273     086F  086B               	movf	___fltol@f1+2,w
  3274     0870  1683               	bsf	3,5	;RP0=1, select bank1
  3275     0871  1303               	bcf	3,6	;RP1=0, select bank1
  3276     0872  00A2               	movwf	(??___fltol^(0+128)+2)
  3277     0873  1283               	bcf	3,5	;RP0=0, select bank0
  3278     0874  1303               	bcf	3,6	;RP1=0, select bank0
  3279     0875  086C               	movf	___fltol@f1+3,w
  3280     0876  1683               	bsf	3,5	;RP0=1, select bank1
  3281     0877  1303               	bcf	3,6	;RP1=0, select bank1
  3282     0878  00A3               	movwf	(??___fltol^(0+128)+3)
  3283     0879  301F               	movlw	31
  3284     087A                     u2445:
  3285     087A  1003               	clrc
  3286     087B  0CA3               	rrf	(??___fltol^(0+128)+3),f
  3287     087C  0CA2               	rrf	(??___fltol^(0+128)+2),f
  3288     087D  0CA1               	rrf	(??___fltol^(0+128)+1),f
  3289     087E  0CA0               	rrf	??___fltol^(0+128),f
  3290     087F                     u2440:
  3291     087F  3EFF               	addlw	-1
  3292     0880  1D03               	skipz
  3293     0881  287A               	goto	u2445
  3294     0882  0820               	movf	??___fltol^(0+128),w
  3295     0883  1283               	bcf	3,5	;RP0=0, select bank0
  3296     0884  1303               	bcf	3,6	;RP1=0, select bank0
  3297     0885  00ED               	movwf	___fltol@sign1
  3298     0886                     l2084:
  3299     0886  17EB               	bsf	___fltol@f1+2,7
  3300     0887                     l2086:
  3301     0887  30FF               	movlw	255
  3302     0888  05E9               	andwf	___fltol@f1,f
  3303     0889  30FF               	movlw	255
  3304     088A  05EA               	andwf	___fltol@f1+1,f
  3305     088B  30FF               	movlw	255
  3306     088C  05EB               	andwf	___fltol@f1+2,f
  3307     088D  3000               	movlw	0
  3308     088E  05EC               	andwf	___fltol@f1+3,f
  3309     088F                     l2088:
  3310     088F  3096               	movlw	150
  3311     0890  02EE               	subwf	___fltol@exp1,f
  3312     0891                     l2090:
  3313     0891  1FEE               	btfss	___fltol@exp1,7
  3314     0892  2894               	goto	u2451
  3315     0893  2895               	goto	u2450
  3316     0894                     u2451:
  3317     0894  28AF               	goto	l2102
  3318     0895                     u2450:
  3319     0895                     l2092:
  3320     0895  086E               	movf	___fltol@exp1,w
  3321     0896  3A80               	xorlw	128
  3322     0897  3E97               	addlw	151
  3323     0898  1803               	skipnc
  3324     0899  289B               	goto	u2461
  3325     089A  289C               	goto	u2460
  3326     089B                     u2461:
  3327     089B  289D               	goto	l2098
  3328     089C                     u2460:
  3329     089C  285A               	goto	l2078
  3330     089D                     l2098:
  3331     089D  3001               	movlw	1
  3332     089E                     u2475:
  3333     089E  1003               	clrc
  3334     089F  0CEC               	rrf	___fltol@f1+3,f
  3335     08A0  0CEB               	rrf	___fltol@f1+2,f
  3336     08A1  0CEA               	rrf	___fltol@f1+1,f
  3337     08A2  0CE9               	rrf	___fltol@f1,f
  3338     08A3  3EFF               	addlw	-1
  3339     08A4  1D03               	skipz
  3340     08A5  289E               	goto	u2475
  3341     08A6                     l2100:
  3342     08A6  3001               	movlw	1
  3343     08A7  00FF               	movwf	btemp+1
  3344     08A8  087F               	movf	btemp+1,w
  3345     08A9  07EE               	addwf	___fltol@exp1,f
  3346     08AA  1D03               	btfss	3,2
  3347     08AB  28AD               	goto	u2481
  3348     08AC  28AE               	goto	u2480
  3349     08AD                     u2481:
  3350     08AD  289D               	goto	l2098
  3351     08AE                     u2480:
  3352     08AE  28CE               	goto	l2110
  3353     08AF                     l2102:
  3354     08AF  3020               	movlw	32
  3355     08B0  026E               	subwf	___fltol@exp1,w
  3356     08B1  1C03               	skipc
  3357     08B2  28B4               	goto	u2491
  3358     08B3  28B5               	goto	u2490
  3359     08B4                     u2491:
  3360     08B4  28C9               	goto	l383
  3361     08B5                     u2490:
  3362     08B5  285A               	goto	l2078
  3363     08B6                     l2108:
  3364     08B6  3001               	movlw	1
  3365     08B7  1683               	bsf	3,5	;RP0=1, select bank1
  3366     08B8  1303               	bcf	3,6	;RP1=0, select bank1
  3367     08B9  00A0               	movwf	??___fltol^(0+128)
  3368     08BA                     u2505:
  3369     08BA  1003               	clrc
  3370     08BB  1283               	bcf	3,5	;RP0=0, select bank0
  3371     08BC  1303               	bcf	3,6	;RP1=0, select bank0
  3372     08BD  0DE9               	rlf	___fltol@f1,f
  3373     08BE  0DEA               	rlf	___fltol@f1+1,f
  3374     08BF  0DEB               	rlf	___fltol@f1+2,f
  3375     08C0  0DEC               	rlf	___fltol@f1+3,f
  3376     08C1  1683               	bsf	3,5	;RP0=1, select bank1
  3377     08C2  1303               	bcf	3,6	;RP1=0, select bank1
  3378     08C3  0BA0               	decfsz	??___fltol^(0+128),f
  3379     08C4  28BA               	goto	u2505
  3380     08C5  3001               	movlw	1
  3381     08C6  1283               	bcf	3,5	;RP0=0, select bank0
  3382     08C7  1303               	bcf	3,6	;RP1=0, select bank0
  3383     08C8  02EE               	subwf	___fltol@exp1,f
  3384     08C9                     l383:
  3385     08C9  086E               	movf	___fltol@exp1,w
  3386     08CA  1D03               	btfss	3,2
  3387     08CB  28CD               	goto	u2511
  3388     08CC  28CE               	goto	u2510
  3389     08CD                     u2511:
  3390     08CD  28B6               	goto	l2108
  3391     08CE                     u2510:
  3392     08CE                     l2110:
  3393     08CE  086D               	movf	___fltol@sign1,w
  3394     08CF  1903               	btfsc	3,2
  3395     08D0  28D2               	goto	u2521
  3396     08D1  28D3               	goto	u2520
  3397     08D2                     u2521:
  3398     08D2  28DE               	goto	l386
  3399     08D3                     u2520:
  3400     08D3                     l2112:
  3401     08D3  09E9               	comf	___fltol@f1,f
  3402     08D4  09EA               	comf	___fltol@f1+1,f
  3403     08D5  09EB               	comf	___fltol@f1+2,f
  3404     08D6  09EC               	comf	___fltol@f1+3,f
  3405     08D7  0AE9               	incf	___fltol@f1,f
  3406     08D8  1903               	skipnz
  3407     08D9  0AEA               	incf	___fltol@f1+1,f
  3408     08DA  1903               	skipnz
  3409     08DB  0AEB               	incf	___fltol@f1+2,f
  3410     08DC  1903               	skipnz
  3411     08DD  0AEC               	incf	___fltol@f1+3,f
  3412     08DE                     l386:
  3413     08DE                     l376:
  3414     08DE  0008               	return
  3415     08DF                     __end_of___fltol:
  3416                           
  3417                           	psect	text10
  3418     0801                     __ptext10:	
  3419 ;; *************** function ___flsub *****************
  3420 ;; Defined at:
  3421 ;;		line 242 in file "C:\Program Files\Microchip\xc8\v2.41\pic\sources\c90\common\sprcadd.c"
  3422 ;; Parameters:    Size  Location     Type
  3423 ;;  a               4   16[BANK1 ] long 
  3424 ;;  b               4   20[BANK1 ] long 
  3425 ;; Auto vars:     Size  Location     Type
  3426 ;;		None
  3427 ;; Return value:  Size  Location     Type
  3428 ;;                  4   16[BANK1 ] long 
  3429 ;; Registers used:
  3430 ;;		wreg, status,2, status,0, btemp+1, pclath, cstack
  3431 ;; Tracked objects:
  3432 ;;		On entry : 0/0
  3433 ;;		On exit  : 0/0
  3434 ;;		Unchanged: 0/0
  3435 ;; Data sizes:     COMMON   BANK0   BANK1   BANK3   BANK2
  3436 ;;      Params:         0       0       8       0       0
  3437 ;;      Locals:         0       0       0       0       0
  3438 ;;      Temps:          0       0       0       0       0
  3439 ;;      Totals:         0       0       8       0       0
  3440 ;;Total ram usage:        8 bytes
  3441 ;; Hardware stack levels used: 1
  3442 ;; Hardware stack levels required when called: 1
  3443 ;; This function calls:
  3444 ;;		___fladd
  3445 ;; This function is called by:
  3446 ;;		_float_LCD
  3447 ;; This function uses a non-reentrant model
  3448 ;;
  3449                           
  3450     0801                     ___flsub:	
  3451                           ;psect for function ___flsub
  3452                           
  3453     0801                     l2114:	
  3454                           ;incstack = 0
  3455                           ; Regs used in ___flsub: [wreg+status,2+status,0+btemp+1+pclath+cstack]
  3456                           
  3457     0801  3080               	movlw	128
  3458     0802  1683               	bsf	3,5	;RP0=1, select bank1
  3459     0803  1303               	bcf	3,6	;RP1=0, select bank1
  3460     0804  06B3               	xorwf	(___flsub@a+3)^(0+128),f
  3461     0805                     l2116:
  3462     0805  0837               	movf	(___flsub@b+3)^(0+128),w
  3463     0806  00A3               	movwf	(___fladd@b+3)^(0+128)
  3464     0807  0836               	movf	(___flsub@b+2)^(0+128),w
  3465     0808  00A2               	movwf	(___fladd@b+2)^(0+128)
  3466     0809  0835               	movf	(___flsub@b+1)^(0+128),w
  3467     080A  00A1               	movwf	(___fladd@b+1)^(0+128)
  3468     080B  0834               	movf	___flsub@b^(0+128),w
  3469     080C  00A0               	movwf	___fladd@b^(0+128)
  3470     080D  0833               	movf	(___flsub@a+3)^(0+128),w
  3471     080E  00A7               	movwf	(___fladd@a+3)^(0+128)
  3472     080F  0832               	movf	(___flsub@a+2)^(0+128),w
  3473     0810  00A6               	movwf	(___fladd@a+2)^(0+128)
  3474     0811  0831               	movf	(___flsub@a+1)^(0+128),w
  3475     0812  00A5               	movwf	(___fladd@a+1)^(0+128)
  3476     0813  0830               	movf	___flsub@a^(0+128),w
  3477     0814  00A4               	movwf	___fladd@a^(0+128)
  3478     0815  120A  118A  21B8  120A  158A  	fcall	___fladd
  3479     081A  1683               	bsf	3,5	;RP0=1, select bank1
  3480     081B  1303               	bcf	3,6	;RP1=0, select bank1
  3481     081C  0823               	movf	(?___fladd+3)^(0+128),w
  3482     081D  00B3               	movwf	(?___flsub+3)^(0+128)
  3483     081E  0822               	movf	(?___fladd+2)^(0+128),w
  3484     081F  00B2               	movwf	(?___flsub+2)^(0+128)
  3485     0820  0821               	movf	(?___fladd+1)^(0+128),w
  3486     0821  00B1               	movwf	(?___flsub+1)^(0+128)
  3487     0822  0820               	movf	?___fladd^(0+128),w
  3488     0823  00B0               	movwf	?___flsub^(0+128)
  3489     0824                     l529:
  3490     0824  0008               	return
  3491     0825                     __end_of___flsub:
  3492                           
  3493                           	psect	text11
  3494     01B8                     __ptext11:	
  3495 ;; *************** function ___fladd *****************
  3496 ;; Defined at:
  3497 ;;		line 10 in file "C:\Program Files\Microchip\xc8\v2.41\pic\sources\c90\common\sprcadd.c"
  3498 ;; Parameters:    Size  Location     Type
  3499 ;;  b               4    0[BANK1 ] long 
  3500 ;;  a               4    4[BANK1 ] long 
  3501 ;; Auto vars:     Size  Location     Type
  3502 ;;  grs             1   76[BANK0 ] unsigned char 
  3503 ;;  bexp            1   75[BANK0 ] unsigned char 
  3504 ;;  aexp            1   74[BANK0 ] unsigned char 
  3505 ;;  signs           1   73[BANK0 ] unsigned char 
  3506 ;; Return value:  Size  Location     Type
  3507 ;;                  4    0[BANK1 ] unsigned char 
  3508 ;; Registers used:
  3509 ;;		wreg, status,2, status,0, btemp+1
  3510 ;; Tracked objects:
  3511 ;;		On entry : 0/0
  3512 ;;		On exit  : 0/0
  3513 ;;		Unchanged: 0/0
  3514 ;; Data sizes:     COMMON   BANK0   BANK1   BANK3   BANK2
  3515 ;;      Params:         0       0       8       0       0
  3516 ;;      Locals:         0       4       0       0       0
  3517 ;;      Temps:          0       0       8       0       0
  3518 ;;      Totals:         0       4      16       0       0
  3519 ;;Total ram usage:       20 bytes
  3520 ;; Hardware stack levels used: 1
  3521 ;; This function calls:
  3522 ;;		Nothing
  3523 ;; This function is called by:
  3524 ;;		_main
  3525 ;;		___flsub
  3526 ;; This function uses a non-reentrant model
  3527 ;;
  3528                           
  3529     01B8                     ___fladd:	
  3530                           ;psect for function ___fladd
  3531                           
  3532     01B8                     l1720:	
  3533                           ;incstack = 0
  3534                           ; Regs used in ___fladd: [wreg+status,2+status,0+btemp+1]
  3535                           
  3536     01B8  1683               	bsf	3,5	;RP0=1, select bank1
  3537     01B9  1303               	bcf	3,6	;RP1=0, select bank1
  3538     01BA  0823               	movf	(___fladd@b^(0+128)+3),w
  3539     01BB  3980               	andlw	128
  3540     01BC  1283               	bcf	3,5	;RP0=0, select bank0
  3541     01BD  1303               	bcf	3,6	;RP1=0, select bank0
  3542     01BE  00E9               	movwf	___fladd@signs
  3543     01BF                     l1722:
  3544     01BF  1683               	bsf	3,5	;RP0=1, select bank1
  3545     01C0  1303               	bcf	3,6	;RP1=0, select bank1
  3546     01C1  0823               	movf	(___fladd@b^(0+128)+3),w
  3547     01C2  00A8               	movwf	??___fladd^(0+128)
  3548     01C3  0728               	addwf	??___fladd^(0+128),w
  3549     01C4  1283               	bcf	3,5	;RP0=0, select bank0
  3550     01C5  1303               	bcf	3,6	;RP1=0, select bank0
  3551     01C6  00EB               	movwf	___fladd@bexp
  3552     01C7                     l1724:
  3553     01C7  1683               	bsf	3,5	;RP0=1, select bank1
  3554     01C8  1303               	bcf	3,6	;RP1=0, select bank1
  3555     01C9  1FA2               	btfss	(___fladd@b^(0+128)+2),7
  3556     01CA  29CC               	goto	u1831
  3557     01CB  29CD               	goto	u1830
  3558     01CC                     u1831:
  3559     01CC  29D0               	goto	l1728
  3560     01CD                     u1830:
  3561     01CD                     l1726:
  3562     01CD  1283               	bcf	3,5	;RP0=0, select bank0
  3563     01CE  1303               	bcf	3,6	;RP1=0, select bank0
  3564     01CF  146B               	bsf	___fladd@bexp,0
  3565     01D0                     l1728:
  3566     01D0  1283               	bcf	3,5	;RP0=0, select bank0
  3567     01D1  086B               	movf	___fladd@bexp,w
  3568     01D2  1903               	btfsc	3,2
  3569     01D3  29D5               	goto	u1841
  3570     01D4  29D6               	goto	u1840
  3571     01D5                     u1841:
  3572     01D5  29EA               	goto	l1738
  3573     01D6                     u1840:
  3574     01D6                     l1730:
  3575     01D6  0A6B               	incf	___fladd@bexp,w
  3576     01D7  1D03               	btfss	3,2
  3577     01D8  29DA               	goto	u1851
  3578     01D9  29DB               	goto	u1850
  3579     01DA                     u1851:
  3580     01DA  29E5               	goto	l1734
  3581     01DB                     u1850:
  3582     01DB                     l1732:
  3583     01DB  3000               	movlw	0
  3584     01DC  1683               	bsf	3,5	;RP0=1, select bank1
  3585     01DD  1303               	bcf	3,6	;RP1=0, select bank1
  3586     01DE  00A3               	movwf	(___fladd@b+3)^(0+128)
  3587     01DF  3000               	movlw	0
  3588     01E0  00A2               	movwf	(___fladd@b+2)^(0+128)
  3589     01E1  3000               	movlw	0
  3590     01E2  00A1               	movwf	(___fladd@b+1)^(0+128)
  3591     01E3  3000               	movlw	0
  3592     01E4  00A0               	movwf	___fladd@b^(0+128)
  3593     01E5                     l1734:
  3594     01E5  1683               	bsf	3,5	;RP0=1, select bank1
  3595     01E6  1303               	bcf	3,6	;RP1=0, select bank1
  3596     01E7  17A2               	bsf	(___fladd@b^(0+128)+2),7
  3597     01E8                     l1736:
  3598     01E8  01A3               	clrf	(___fladd@b^(0+128)+3)
  3599     01E9  29F4               	goto	l1740
  3600     01EA                     l1738:
  3601     01EA  3000               	movlw	0
  3602     01EB  1683               	bsf	3,5	;RP0=1, select bank1
  3603     01EC  1303               	bcf	3,6	;RP1=0, select bank1
  3604     01ED  00A3               	movwf	(___fladd@b+3)^(0+128)
  3605     01EE  3000               	movlw	0
  3606     01EF  00A2               	movwf	(___fladd@b+2)^(0+128)
  3607     01F0  3000               	movlw	0
  3608     01F1  00A1               	movwf	(___fladd@b+1)^(0+128)
  3609     01F2  3000               	movlw	0
  3610     01F3  00A0               	movwf	___fladd@b^(0+128)
  3611     01F4                     l1740:
  3612     01F4  0827               	movf	(___fladd@a^(0+128)+3),w
  3613     01F5  3980               	andlw	128
  3614     01F6  1283               	bcf	3,5	;RP0=0, select bank0
  3615     01F7  1303               	bcf	3,6	;RP1=0, select bank0
  3616     01F8  00EA               	movwf	___fladd@aexp
  3617     01F9                     l1742:
  3618     01F9  086A               	movf	___fladd@aexp,w
  3619     01FA  0669               	xorwf	___fladd@signs,w
  3620     01FB  1903               	skipnz
  3621     01FC  29FE               	goto	u1861
  3622     01FD  29FF               	goto	u1860
  3623     01FE                     u1861:
  3624     01FE  2A00               	goto	l1746
  3625     01FF                     u1860:
  3626     01FF                     l1744:
  3627     01FF  1769               	bsf	___fladd@signs,6
  3628     0200                     l1746:
  3629     0200  1683               	bsf	3,5	;RP0=1, select bank1
  3630     0201  1303               	bcf	3,6	;RP1=0, select bank1
  3631     0202  0827               	movf	(___fladd@a^(0+128)+3),w
  3632     0203  00A8               	movwf	??___fladd^(0+128)
  3633     0204  0728               	addwf	??___fladd^(0+128),w
  3634     0205  1283               	bcf	3,5	;RP0=0, select bank0
  3635     0206  1303               	bcf	3,6	;RP1=0, select bank0
  3636     0207  00EA               	movwf	___fladd@aexp
  3637     0208                     l1748:
  3638     0208  1683               	bsf	3,5	;RP0=1, select bank1
  3639     0209  1303               	bcf	3,6	;RP1=0, select bank1
  3640     020A  1FA6               	btfss	(___fladd@a^(0+128)+2),7
  3641     020B  2A0D               	goto	u1871
  3642     020C  2A0E               	goto	u1870
  3643     020D                     u1871:
  3644     020D  2A11               	goto	l1752
  3645     020E                     u1870:
  3646     020E                     l1750:
  3647     020E  1283               	bcf	3,5	;RP0=0, select bank0
  3648     020F  1303               	bcf	3,6	;RP1=0, select bank0
  3649     0210  146A               	bsf	___fladd@aexp,0
  3650     0211                     l1752:
  3651     0211  1283               	bcf	3,5	;RP0=0, select bank0
  3652     0212  086A               	movf	___fladd@aexp,w
  3653     0213  1903               	btfsc	3,2
  3654     0214  2A16               	goto	u1881
  3655     0215  2A17               	goto	u1880
  3656     0216                     u1881:
  3657     0216  2A2B               	goto	l1762
  3658     0217                     u1880:
  3659     0217                     l1754:
  3660     0217  0A6A               	incf	___fladd@aexp,w
  3661     0218  1D03               	btfss	3,2
  3662     0219  2A1B               	goto	u1891
  3663     021A  2A1C               	goto	u1890
  3664     021B                     u1891:
  3665     021B  2A26               	goto	l1758
  3666     021C                     u1890:
  3667     021C                     l1756:
  3668     021C  3000               	movlw	0
  3669     021D  1683               	bsf	3,5	;RP0=1, select bank1
  3670     021E  1303               	bcf	3,6	;RP1=0, select bank1
  3671     021F  00A7               	movwf	(___fladd@a+3)^(0+128)
  3672     0220  3000               	movlw	0
  3673     0221  00A6               	movwf	(___fladd@a+2)^(0+128)
  3674     0222  3000               	movlw	0
  3675     0223  00A5               	movwf	(___fladd@a+1)^(0+128)
  3676     0224  3000               	movlw	0
  3677     0225  00A4               	movwf	___fladd@a^(0+128)
  3678     0226                     l1758:
  3679     0226  1683               	bsf	3,5	;RP0=1, select bank1
  3680     0227  1303               	bcf	3,6	;RP1=0, select bank1
  3681     0228  17A6               	bsf	(___fladd@a^(0+128)+2),7
  3682     0229                     l1760:
  3683     0229  01A7               	clrf	(___fladd@a^(0+128)+3)
  3684     022A  2A35               	goto	l483
  3685     022B                     l1762:
  3686     022B  3000               	movlw	0
  3687     022C  1683               	bsf	3,5	;RP0=1, select bank1
  3688     022D  1303               	bcf	3,6	;RP1=0, select bank1
  3689     022E  00A7               	movwf	(___fladd@a+3)^(0+128)
  3690     022F  3000               	movlw	0
  3691     0230  00A6               	movwf	(___fladd@a+2)^(0+128)
  3692     0231  3000               	movlw	0
  3693     0232  00A5               	movwf	(___fladd@a+1)^(0+128)
  3694     0233  3000               	movlw	0
  3695     0234  00A4               	movwf	___fladd@a^(0+128)
  3696     0235                     l483:
  3697     0235  1283               	bcf	3,5	;RP0=0, select bank0
  3698     0236  1303               	bcf	3,6	;RP1=0, select bank0
  3699     0237  086B               	movf	___fladd@bexp,w
  3700     0238  026A               	subwf	___fladd@aexp,w
  3701     0239  1803               	skipnc
  3702     023A  2A3C               	goto	u1901
  3703     023B  2A3D               	goto	u1900
  3704     023C                     u1901:
  3705     023C  2A85               	goto	l1798
  3706     023D                     u1900:
  3707     023D                     l1764:
  3708     023D  1F69               	btfss	___fladd@signs,6
  3709     023E  2A40               	goto	u1911
  3710     023F  2A41               	goto	u1910
  3711     0240                     u1911:
  3712     0240  2A45               	goto	l1768
  3713     0241                     u1910:
  3714     0241                     l1766:
  3715     0241  3080               	movlw	128
  3716     0242  00FF               	movwf	btemp+1
  3717     0243  087F               	movf	btemp+1,w
  3718     0244  06E9               	xorwf	___fladd@signs,f
  3719     0245                     l1768:
  3720     0245  086B               	movf	___fladd@bexp,w
  3721     0246  00EC               	movwf	___fladd@grs
  3722     0247                     l1770:
  3723     0247  086A               	movf	___fladd@aexp,w
  3724     0248  00EB               	movwf	___fladd@bexp
  3725     0249                     l1772:
  3726     0249  086C               	movf	___fladd@grs,w
  3727     024A  00EA               	movwf	___fladd@aexp
  3728     024B                     l1774:
  3729     024B  1683               	bsf	3,5	;RP0=1, select bank1
  3730     024C  1303               	bcf	3,6	;RP1=0, select bank1
  3731     024D  0820               	movf	___fladd@b^(0+128),w
  3732     024E  1283               	bcf	3,5	;RP0=0, select bank0
  3733     024F  1303               	bcf	3,6	;RP1=0, select bank0
  3734     0250  00EC               	movwf	___fladd@grs
  3735     0251                     l1776:
  3736     0251  1683               	bsf	3,5	;RP0=1, select bank1
  3737     0252  1303               	bcf	3,6	;RP1=0, select bank1
  3738     0253  0824               	movf	___fladd@a^(0+128),w
  3739     0254  00A0               	movwf	___fladd@b^(0+128)
  3740     0255                     l1778:
  3741     0255  1283               	bcf	3,5	;RP0=0, select bank0
  3742     0256  1303               	bcf	3,6	;RP1=0, select bank0
  3743     0257  086C               	movf	___fladd@grs,w
  3744     0258  1683               	bsf	3,5	;RP0=1, select bank1
  3745     0259  1303               	bcf	3,6	;RP1=0, select bank1
  3746     025A  00A4               	movwf	___fladd@a^(0+128)
  3747     025B                     l1780:
  3748     025B  0821               	movf	(___fladd@b^(0+128)+1),w
  3749     025C  1283               	bcf	3,5	;RP0=0, select bank0
  3750     025D  1303               	bcf	3,6	;RP1=0, select bank0
  3751     025E  00EC               	movwf	___fladd@grs
  3752     025F                     l1782:
  3753     025F  1683               	bsf	3,5	;RP0=1, select bank1
  3754     0260  1303               	bcf	3,6	;RP1=0, select bank1
  3755     0261  0825               	movf	(___fladd@a^(0+128)+1),w
  3756     0262  00A1               	movwf	(___fladd@b^(0+128)+1)
  3757     0263                     l1784:
  3758     0263  1283               	bcf	3,5	;RP0=0, select bank0
  3759     0264  1303               	bcf	3,6	;RP1=0, select bank0
  3760     0265  086C               	movf	___fladd@grs,w
  3761     0266  1683               	bsf	3,5	;RP0=1, select bank1
  3762     0267  1303               	bcf	3,6	;RP1=0, select bank1
  3763     0268  00A5               	movwf	(___fladd@a^(0+128)+1)
  3764     0269                     l1786:
  3765     0269  0822               	movf	(___fladd@b^(0+128)+2),w
  3766     026A  1283               	bcf	3,5	;RP0=0, select bank0
  3767     026B  1303               	bcf	3,6	;RP1=0, select bank0
  3768     026C  00EC               	movwf	___fladd@grs
  3769     026D                     l1788:
  3770     026D  1683               	bsf	3,5	;RP0=1, select bank1
  3771     026E  1303               	bcf	3,6	;RP1=0, select bank1
  3772     026F  0826               	movf	(___fladd@a^(0+128)+2),w
  3773     0270  00A2               	movwf	(___fladd@b^(0+128)+2)
  3774     0271                     l1790:
  3775     0271  1283               	bcf	3,5	;RP0=0, select bank0
  3776     0272  1303               	bcf	3,6	;RP1=0, select bank0
  3777     0273  086C               	movf	___fladd@grs,w
  3778     0274  1683               	bsf	3,5	;RP0=1, select bank1
  3779     0275  1303               	bcf	3,6	;RP1=0, select bank1
  3780     0276  00A6               	movwf	(___fladd@a^(0+128)+2)
  3781     0277                     l1792:
  3782     0277  0823               	movf	(___fladd@b^(0+128)+3),w
  3783     0278  1283               	bcf	3,5	;RP0=0, select bank0
  3784     0279  1303               	bcf	3,6	;RP1=0, select bank0
  3785     027A  00EC               	movwf	___fladd@grs
  3786     027B                     l1794:
  3787     027B  1683               	bsf	3,5	;RP0=1, select bank1
  3788     027C  1303               	bcf	3,6	;RP1=0, select bank1
  3789     027D  0827               	movf	(___fladd@a^(0+128)+3),w
  3790     027E  00A3               	movwf	(___fladd@b^(0+128)+3)
  3791     027F                     l1796:
  3792     027F  1283               	bcf	3,5	;RP0=0, select bank0
  3793     0280  1303               	bcf	3,6	;RP1=0, select bank0
  3794     0281  086C               	movf	___fladd@grs,w
  3795     0282  1683               	bsf	3,5	;RP0=1, select bank1
  3796     0283  1303               	bcf	3,6	;RP1=0, select bank1
  3797     0284  00A7               	movwf	(___fladd@a^(0+128)+3)
  3798     0285                     l1798:
  3799     0285  1283               	bcf	3,5	;RP0=0, select bank0
  3800     0286  01EC               	clrf	___fladd@grs
  3801     0287                     l1800:
  3802     0287  086A               	movf	___fladd@aexp,w
  3803     0288  1683               	bsf	3,5	;RP0=1, select bank1
  3804     0289  1303               	bcf	3,6	;RP1=0, select bank1
  3805     028A  00A8               	movwf	??___fladd^(0+128)
  3806     028B  01A9               	clrf	(??___fladd^(0+128)+1)
  3807     028C  0829               	movf	(??___fladd+1)^(0+128),w
  3808     028D  00AB               	movwf	((??___fladd+2)^(0+128)+1)
  3809     028E  1283               	bcf	3,5	;RP0=0, select bank0
  3810     028F  1303               	bcf	3,6	;RP1=0, select bank0
  3811     0290  086B               	movf	___fladd@bexp,w
  3812     0291  1683               	bsf	3,5	;RP0=1, select bank1
  3813     0292  1303               	bcf	3,6	;RP1=0, select bank1
  3814     0293  0228               	subwf	??___fladd^(0+128),w
  3815     0294  00AA               	movwf	(??___fladd+2)^(0+128)
  3816     0295  1C03               	skipc
  3817     0296  03AB               	decf	((??___fladd+2)^(0+128)+1),f
  3818     0297  082B               	movf	(??___fladd+3)^(0+128),w
  3819     0298  3A80               	xorlw	128
  3820     0299  00FF               	movwf	btemp+1
  3821     029A  3080               	movlw	128
  3822     029B  027F               	subwf	btemp+1,w
  3823     029C  1D03               	skipz
  3824     029D  2AA0               	goto	u1925
  3825     029E  301A               	movlw	26
  3826     029F  022A               	subwf	(??___fladd+2)^(0+128),w
  3827     02A0                     u1925:
  3828     02A0  1C03               	skipc
  3829     02A1  2AA3               	goto	u1921
  3830     02A2  2AA4               	goto	u1920
  3831     02A3                     u1921:
  3832     02A3  2AED               	goto	l1816
  3833     02A4                     u1920:
  3834     02A4                     l1802:
  3835     02A4  1683               	bsf	3,5	;RP0=1, select bank1
  3836     02A5  1303               	bcf	3,6	;RP1=0, select bank1
  3837     02A6  0823               	movf	(___fladd@b+3)^(0+128),w
  3838     02A7  0422               	iorwf	(___fladd@b+2)^(0+128),w
  3839     02A8  0421               	iorwf	(___fladd@b+1)^(0+128),w
  3840     02A9  0420               	iorwf	___fladd@b^(0+128),w
  3841     02AA  1D03               	skipz
  3842     02AB  2AAD               	goto	u1931
  3843     02AC  2AAF               	goto	u1930
  3844     02AD                     u1931:
  3845     02AD  3001               	movlw	1
  3846     02AE  2AB0               	goto	u1940
  3847     02AF                     u1930:
  3848     02AF  3000               	movlw	0
  3849     02B0                     u1940:
  3850     02B0  1283               	bcf	3,5	;RP0=0, select bank0
  3851     02B1  1303               	bcf	3,6	;RP1=0, select bank0
  3852     02B2  00EC               	movwf	___fladd@grs
  3853     02B3  3000               	movlw	0
  3854     02B4  1683               	bsf	3,5	;RP0=1, select bank1
  3855     02B5  1303               	bcf	3,6	;RP1=0, select bank1
  3856     02B6  00A3               	movwf	(___fladd@b+3)^(0+128)
  3857     02B7  3000               	movlw	0
  3858     02B8  00A2               	movwf	(___fladd@b+2)^(0+128)
  3859     02B9  3000               	movlw	0
  3860     02BA  00A1               	movwf	(___fladd@b+1)^(0+128)
  3861     02BB  3000               	movlw	0
  3862     02BC  00A0               	movwf	___fladd@b^(0+128)
  3863     02BD  1283               	bcf	3,5	;RP0=0, select bank0
  3864     02BE  1303               	bcf	3,6	;RP1=0, select bank0
  3865     02BF  086A               	movf	___fladd@aexp,w
  3866     02C0  00EB               	movwf	___fladd@bexp
  3867     02C1  2AF5               	goto	l487
  3868     02C2                     l489:
  3869     02C2  1C6C               	btfss	___fladd@grs,0
  3870     02C3  2AC5               	goto	u1951
  3871     02C4  2AC6               	goto	u1950
  3872     02C5                     u1951:
  3873     02C5  2AD1               	goto	l1806
  3874     02C6                     u1950:
  3875     02C6                     l1804:
  3876     02C6  086C               	movf	___fladd@grs,w
  3877     02C7  1683               	bsf	3,5	;RP0=1, select bank1
  3878     02C8  1303               	bcf	3,6	;RP1=0, select bank1
  3879     02C9  00A8               	movwf	??___fladd^(0+128)
  3880     02CA  1003               	clrc
  3881     02CB  0C28               	rrf	??___fladd^(0+128),w
  3882     02CC  3801               	iorlw	1
  3883     02CD  1283               	bcf	3,5	;RP0=0, select bank0
  3884     02CE  1303               	bcf	3,6	;RP1=0, select bank0
  3885     02CF  00EC               	movwf	___fladd@grs
  3886     02D0  2AD3               	goto	l1808
  3887     02D1                     l1806:
  3888     02D1  1003               	clrc
  3889     02D2  0CEC               	rrf	___fladd@grs,f
  3890     02D3                     l1808:
  3891     02D3  1683               	bsf	3,5	;RP0=1, select bank1
  3892     02D4  1303               	bcf	3,6	;RP1=0, select bank1
  3893     02D5  1C20               	btfss	___fladd@b^(0+128),0
  3894     02D6  2AD8               	goto	u1961
  3895     02D7  2AD9               	goto	u1960
  3896     02D8                     u1961:
  3897     02D8  2ADC               	goto	l1812
  3898     02D9                     u1960:
  3899     02D9                     l1810:
  3900     02D9  1283               	bcf	3,5	;RP0=0, select bank0
  3901     02DA  1303               	bcf	3,6	;RP1=0, select bank0
  3902     02DB  17EC               	bsf	___fladd@grs,7
  3903     02DC                     l1812:
  3904     02DC  3001               	movlw	1
  3905     02DD  1683               	bsf	3,5	;RP0=1, select bank1
  3906     02DE  1303               	bcf	3,6	;RP1=0, select bank1
  3907     02DF  00A8               	movwf	??___fladd^(0+128)
  3908     02E0                     u1975:
  3909     02E0  0D23               	rlf	(___fladd@b+3)^(0+128),w
  3910     02E1  0CA3               	rrf	(___fladd@b+3)^(0+128),f
  3911     02E2  0CA2               	rrf	(___fladd@b+2)^(0+128),f
  3912     02E3  0CA1               	rrf	(___fladd@b+1)^(0+128),f
  3913     02E4  0CA0               	rrf	___fladd@b^(0+128),f
  3914     02E5  0BA8               	decfsz	(??___fladd^(0+128))& (0+127),f
  3915     02E6  2AE0               	goto	u1975
  3916     02E7                     l1814:
  3917     02E7  3001               	movlw	1
  3918     02E8  00FF               	movwf	btemp+1
  3919     02E9  087F               	movf	btemp+1,w
  3920     02EA  1283               	bcf	3,5	;RP0=0, select bank0
  3921     02EB  1303               	bcf	3,6	;RP1=0, select bank0
  3922     02EC  07EB               	addwf	___fladd@bexp,f
  3923     02ED                     l1816:
  3924     02ED  1283               	bcf	3,5	;RP0=0, select bank0
  3925     02EE  1303               	bcf	3,6	;RP1=0, select bank0
  3926     02EF  086A               	movf	___fladd@aexp,w
  3927     02F0  026B               	subwf	___fladd@bexp,w
  3928     02F1  1C03               	skipc
  3929     02F2  2AF4               	goto	u1981
  3930     02F3  2AF5               	goto	u1980
  3931     02F4                     u1981:
  3932     02F4  2AC2               	goto	l489
  3933     02F5                     u1980:
  3934     02F5                     l487:
  3935     02F5  1B69               	btfsc	___fladd@signs,6
  3936     02F6  2AF8               	goto	u1991
  3937     02F7  2AF9               	goto	u1990
  3938     02F8                     u1991:
  3939     02F8  2B54               	goto	l1842
  3940     02F9                     u1990:
  3941     02F9                     l1818:
  3942     02F9  086B               	movf	___fladd@bexp,w
  3943     02FA  1D03               	btfss	3,2
  3944     02FB  2AFD               	goto	u2001
  3945     02FC  2AFE               	goto	u2000
  3946     02FD                     u2001:
  3947     02FD  2B09               	goto	l1824
  3948     02FE                     u2000:
  3949     02FE                     l1820:
  3950     02FE  3000               	movlw	0
  3951     02FF  1683               	bsf	3,5	;RP0=1, select bank1
  3952     0300  1303               	bcf	3,6	;RP1=0, select bank1
  3953     0301  00A3               	movwf	(?___fladd+3)^(0+128)
  3954     0302  3000               	movlw	0
  3955     0303  00A2               	movwf	(?___fladd+2)^(0+128)
  3956     0304  3000               	movlw	0
  3957     0305  00A1               	movwf	(?___fladd+1)^(0+128)
  3958     0306  3000               	movlw	0
  3959     0307  00A0               	movwf	?___fladd^(0+128)
  3960     0308  2CAD               	goto	l496
  3961     0309                     l1824:
  3962     0309  1683               	bsf	3,5	;RP0=1, select bank1
  3963     030A  1303               	bcf	3,6	;RP1=0, select bank1
  3964     030B  0824               	movf	___fladd@a^(0+128),w
  3965     030C  07A0               	addwf	___fladd@b^(0+128),f
  3966     030D  0825               	movf	(___fladd@a+1)^(0+128),w
  3967     030E  1103               	clrz
  3968     030F  1803               	skipnc
  3969     0310  3E01               	addlw	1
  3970     0311  1903               	skipnz
  3971     0312  2B14               	goto	u2011
  3972     0313  07A1               	addwf	(___fladd@b+1)^(0+128),f
  3973     0314                     u2011:
  3974     0314  0826               	movf	(___fladd@a+2)^(0+128),w
  3975     0315  1103               	clrz
  3976     0316  1803               	skipnc
  3977     0317  3E01               	addlw	1
  3978     0318  1903               	skipnz
  3979     0319  2B1B               	goto	u2012
  3980     031A  07A2               	addwf	(___fladd@b+2)^(0+128),f
  3981     031B                     u2012:
  3982     031B  0827               	movf	(___fladd@a+3)^(0+128),w
  3983     031C  1103               	clrz
  3984     031D  1803               	skipnc
  3985     031E  3E01               	addlw	1
  3986     031F  1903               	skipnz
  3987     0320  2B22               	goto	u2013
  3988     0321  07A3               	addwf	(___fladd@b+3)^(0+128),f
  3989     0322                     u2013:
  3990     0322                     l1826:
  3991     0322  1C23               	btfss	(___fladd@b+3)^(0+128),0
  3992     0323  2B25               	goto	u2021
  3993     0324  2B26               	goto	u2020
  3994     0325                     u2021:
  3995     0325  2C1B               	goto	l1878
  3996     0326                     u2020:
  3997     0326                     l1828:
  3998     0326  1283               	bcf	3,5	;RP0=0, select bank0
  3999     0327  1303               	bcf	3,6	;RP1=0, select bank0
  4000     0328  1C6C               	btfss	___fladd@grs,0
  4001     0329  2B2B               	goto	u2031
  4002     032A  2B2C               	goto	u2030
  4003     032B                     u2031:
  4004     032B  2B37               	goto	l1832
  4005     032C                     u2030:
  4006     032C                     l1830:
  4007     032C  086C               	movf	___fladd@grs,w
  4008     032D  1683               	bsf	3,5	;RP0=1, select bank1
  4009     032E  1303               	bcf	3,6	;RP1=0, select bank1
  4010     032F  00A8               	movwf	??___fladd^(0+128)
  4011     0330  1003               	clrc
  4012     0331  0C28               	rrf	??___fladd^(0+128),w
  4013     0332  3801               	iorlw	1
  4014     0333  1283               	bcf	3,5	;RP0=0, select bank0
  4015     0334  1303               	bcf	3,6	;RP1=0, select bank0
  4016     0335  00EC               	movwf	___fladd@grs
  4017     0336  2B39               	goto	l1834
  4018     0337                     l1832:
  4019     0337  1003               	clrc
  4020     0338  0CEC               	rrf	___fladd@grs,f
  4021     0339                     l1834:
  4022     0339  1683               	bsf	3,5	;RP0=1, select bank1
  4023     033A  1303               	bcf	3,6	;RP1=0, select bank1
  4024     033B  1C20               	btfss	___fladd@b^(0+128),0
  4025     033C  2B3E               	goto	u2041
  4026     033D  2B3F               	goto	u2040
  4027     033E                     u2041:
  4028     033E  2B42               	goto	l1838
  4029     033F                     u2040:
  4030     033F                     l1836:
  4031     033F  1283               	bcf	3,5	;RP0=0, select bank0
  4032     0340  1303               	bcf	3,6	;RP1=0, select bank0
  4033     0341  17EC               	bsf	___fladd@grs,7
  4034     0342                     l1838:
  4035     0342  3001               	movlw	1
  4036     0343  1683               	bsf	3,5	;RP0=1, select bank1
  4037     0344  1303               	bcf	3,6	;RP1=0, select bank1
  4038     0345  00A8               	movwf	??___fladd^(0+128)
  4039     0346                     u2055:
  4040     0346  0D23               	rlf	(___fladd@b+3)^(0+128),w
  4041     0347  0CA3               	rrf	(___fladd@b+3)^(0+128),f
  4042     0348  0CA2               	rrf	(___fladd@b+2)^(0+128),f
  4043     0349  0CA1               	rrf	(___fladd@b+1)^(0+128),f
  4044     034A  0CA0               	rrf	___fladd@b^(0+128),f
  4045     034B  0BA8               	decfsz	(??___fladd^(0+128))& (0+127),f
  4046     034C  2B46               	goto	u2055
  4047     034D                     l1840:
  4048     034D  3001               	movlw	1
  4049     034E  00FF               	movwf	btemp+1
  4050     034F  087F               	movf	btemp+1,w
  4051     0350  1283               	bcf	3,5	;RP0=0, select bank0
  4052     0351  1303               	bcf	3,6	;RP1=0, select bank0
  4053     0352  07EB               	addwf	___fladd@bexp,f
  4054     0353  2C1B               	goto	l1878
  4055     0354                     l1842:
  4056     0354  1683               	bsf	3,5	;RP0=1, select bank1
  4057     0355  1303               	bcf	3,6	;RP1=0, select bank1
  4058     0356  0823               	movf	(___fladd@b+3)^(0+128),w
  4059     0357  3A80               	xorlw	128
  4060     0358  00FF               	movwf	btemp+1
  4061     0359  0827               	movf	(___fladd@a+3)^(0+128),w
  4062     035A  3A80               	xorlw	128
  4063     035B  027F               	subwf	btemp+1,w
  4064     035C  1D03               	skipz
  4065     035D  2B68               	goto	u2063
  4066     035E  0826               	movf	(___fladd@a+2)^(0+128),w
  4067     035F  0222               	subwf	(___fladd@b+2)^(0+128),w
  4068     0360  1D03               	skipz
  4069     0361  2B68               	goto	u2063
  4070     0362  0825               	movf	(___fladd@a+1)^(0+128),w
  4071     0363  0221               	subwf	(___fladd@b+1)^(0+128),w
  4072     0364  1D03               	skipz
  4073     0365  2B68               	goto	u2063
  4074     0366  0824               	movf	___fladd@a^(0+128),w
  4075     0367  0220               	subwf	___fladd@b^(0+128),w
  4076     0368                     u2063:
  4077     0368  1803               	skipnc
  4078     0369  2B6B               	goto	u2061
  4079     036A  2B6C               	goto	u2060
  4080     036B                     u2061:
  4081     036B  2BC8               	goto	l1854
  4082     036C                     u2060:
  4083     036C                     l1844:
  4084     036C  30FF               	movlw	255
  4085     036D  00A8               	movwf	??___fladd^(0+128)
  4086     036E  30FF               	movlw	255
  4087     036F  00A9               	movwf	(??___fladd^(0+128)+1)
  4088     0370  30FF               	movlw	255
  4089     0371  00AA               	movwf	(??___fladd^(0+128)+2)
  4090     0372  30FF               	movlw	255
  4091     0373  00AB               	movwf	(??___fladd^(0+128)+3)
  4092     0374  0824               	movf	___fladd@a^(0+128),w
  4093     0375  00AC               	movwf	(??___fladd+4)^(0+128)
  4094     0376  0825               	movf	(___fladd@a+1)^(0+128),w
  4095     0377  00AD               	movwf	((??___fladd+4)^(0+128)+1)
  4096     0378  0826               	movf	(___fladd@a+2)^(0+128),w
  4097     0379  00AE               	movwf	((??___fladd+4)^(0+128)+2)
  4098     037A  0827               	movf	(___fladd@a+3)^(0+128),w
  4099     037B  00AF               	movwf	((??___fladd+4)^(0+128)+3)
  4100     037C  0820               	movf	___fladd@b^(0+128),w
  4101     037D  02AC               	subwf	(??___fladd+4)^(0+128),f
  4102     037E  0821               	movf	(___fladd@b+1)^(0+128),w
  4103     037F  1C03               	skipc
  4104     0380  0F21               	incfsz	(___fladd@b+1)^(0+128),w
  4105     0381  2B83               	goto	u2071
  4106     0382  2B84               	goto	u2072
  4107     0383                     u2071:
  4108     0383  02AD               	subwf	((??___fladd+4)^(0+128)+1),f
  4109     0384                     u2072:
  4110     0384  0822               	movf	(___fladd@b+2)^(0+128),w
  4111     0385  1C03               	skipc
  4112     0386  0F22               	incfsz	(___fladd@b+2)^(0+128),w
  4113     0387  2B89               	goto	u2073
  4114     0388  2B8A               	goto	u2074
  4115     0389                     u2073:
  4116     0389  02AE               	subwf	((??___fladd+4)^(0+128)+2),f
  4117     038A                     u2074:
  4118     038A  0823               	movf	(___fladd@b+3)^(0+128),w
  4119     038B  1C03               	skipc
  4120     038C  0F23               	incfsz	(___fladd@b+3)^(0+128),w
  4121     038D  2B8F               	goto	u2075
  4122     038E  2B90               	goto	u2076
  4123     038F                     u2075:
  4124     038F  02AF               	subwf	((??___fladd+4)^(0+128)+3),f
  4125     0390                     u2076:
  4126     0390  082C               	movf	(??___fladd+4)^(0+128),w
  4127     0391  07A8               	addwf	??___fladd^(0+128),f
  4128     0392  082D               	movf	(??___fladd+5)^(0+128),w
  4129     0393  1803               	skipnc
  4130     0394  0F2D               	incfsz	(??___fladd+5)^(0+128),w
  4131     0395  2B97               	goto	u2080
  4132     0396  2B98               	goto	u2081
  4133     0397                     u2080:
  4134     0397  07A9               	addwf	(??___fladd^(0+128)+1),f
  4135     0398                     u2081:
  4136     0398  082E               	movf	(??___fladd+6)^(0+128),w
  4137     0399  1803               	skipnc
  4138     039A  0F2E               	incfsz	(??___fladd+6)^(0+128),w
  4139     039B  2B9D               	goto	u2082
  4140     039C  2B9E               	goto	u2083
  4141     039D                     u2082:
  4142     039D  07AA               	addwf	(??___fladd^(0+128)+2),f
  4143     039E                     u2083:
  4144     039E  082F               	movf	(??___fladd+7)^(0+128),w
  4145     039F  1803               	skipnc
  4146     03A0  0A2F               	incf	(??___fladd+7)^(0+128),w
  4147     03A1  07AB               	addwf	(??___fladd^(0+128)+3),f
  4148     03A2  082B               	movf	(??___fladd+3)^(0+128),w
  4149     03A3  00A3               	movwf	(___fladd@b+3)^(0+128)
  4150     03A4  082A               	movf	(??___fladd+2)^(0+128),w
  4151     03A5  00A2               	movwf	(___fladd@b+2)^(0+128)
  4152     03A6  0829               	movf	(??___fladd+1)^(0+128),w
  4153     03A7  00A1               	movwf	(___fladd@b+1)^(0+128)
  4154     03A8  0828               	movf	??___fladd^(0+128),w
  4155     03A9  00A0               	movwf	___fladd@b^(0+128)
  4156     03AA                     l1846:
  4157     03AA  3080               	movlw	128
  4158     03AB  00FF               	movwf	btemp+1
  4159     03AC  087F               	movf	btemp+1,w
  4160     03AD  1283               	bcf	3,5	;RP0=0, select bank0
  4161     03AE  1303               	bcf	3,6	;RP1=0, select bank0
  4162     03AF  06E9               	xorwf	___fladd@signs,f
  4163     03B0                     l1848:
  4164     03B0  09EC               	comf	___fladd@grs,f
  4165     03B1  0AEC               	incf	___fladd@grs,f
  4166     03B2                     l1850:
  4167     03B2  086C               	movf	___fladd@grs,w
  4168     03B3  1D03               	btfss	3,2
  4169     03B4  2BB6               	goto	u2091
  4170     03B5  2BB7               	goto	u2090
  4171     03B6                     u2091:
  4172     03B6  2BD6               	goto	l504
  4173     03B7                     u2090:
  4174     03B7                     l1852:
  4175     03B7  3001               	movlw	1
  4176     03B8  1683               	bsf	3,5	;RP0=1, select bank1
  4177     03B9  1303               	bcf	3,6	;RP1=0, select bank1
  4178     03BA  07A0               	addwf	___fladd@b^(0+128),f
  4179     03BB  3000               	movlw	0
  4180     03BC  1803               	skipnc
  4181     03BD  3001               	movlw	1
  4182     03BE  07A1               	addwf	(___fladd@b+1)^(0+128),f
  4183     03BF  3000               	movlw	0
  4184     03C0  1803               	skipnc
  4185     03C1  3001               	movlw	1
  4186     03C2  07A2               	addwf	(___fladd@b+2)^(0+128),f
  4187     03C3  3000               	movlw	0
  4188     03C4  1803               	skipnc
  4189     03C5  3001               	movlw	1
  4190     03C6  07A3               	addwf	(___fladd@b+3)^(0+128),f
  4191     03C7  2BD6               	goto	l504
  4192     03C8                     l1854:
  4193     03C8  0824               	movf	___fladd@a^(0+128),w
  4194     03C9  02A0               	subwf	___fladd@b^(0+128),f
  4195     03CA  0825               	movf	(___fladd@a+1)^(0+128),w
  4196     03CB  1C03               	skipc
  4197     03CC  0F25               	incfsz	(___fladd@a+1)^(0+128),w
  4198     03CD  02A1               	subwf	(___fladd@b+1)^(0+128),f
  4199     03CE  0826               	movf	(___fladd@a+2)^(0+128),w
  4200     03CF  1C03               	skipc
  4201     03D0  0F26               	incfsz	(___fladd@a+2)^(0+128),w
  4202     03D1  02A2               	subwf	(___fladd@b+2)^(0+128),f
  4203     03D2  0827               	movf	(___fladd@a+3)^(0+128),w
  4204     03D3  1C03               	skipc
  4205     03D4  0F27               	incfsz	(___fladd@a+3)^(0+128),w
  4206     03D5  02A3               	subwf	(___fladd@b+3)^(0+128),f
  4207     03D6                     l504:
  4208     03D6  1683               	bsf	3,5	;RP0=1, select bank1
  4209     03D7  1303               	bcf	3,6	;RP1=0, select bank1
  4210     03D8  0823               	movf	(___fladd@b+3)^(0+128),w
  4211     03D9  0422               	iorwf	(___fladd@b+2)^(0+128),w
  4212     03DA  0421               	iorwf	(___fladd@b+1)^(0+128),w
  4213     03DB  0420               	iorwf	___fladd@b^(0+128),w
  4214     03DC  1D03               	skipz
  4215     03DD  2BDF               	goto	u2101
  4216     03DE  2BE0               	goto	u2100
  4217     03DF                     u2101:
  4218     03DF  2C15               	goto	l1876
  4219     03E0                     u2100:
  4220     03E0                     l1856:
  4221     03E0  1283               	bcf	3,5	;RP0=0, select bank0
  4222     03E1  1303               	bcf	3,6	;RP1=0, select bank0
  4223     03E2  086C               	movf	___fladd@grs,w
  4224     03E3  1D03               	btfss	3,2
  4225     03E4  2BE6               	goto	u2111
  4226     03E5  2BE7               	goto	u2110
  4227     03E6                     u2111:
  4228     03E6  2C15               	goto	l1876
  4229     03E7                     u2110:
  4230     03E7                     l1858:
  4231     03E7  3000               	movlw	0
  4232     03E8  1683               	bsf	3,5	;RP0=1, select bank1
  4233     03E9  1303               	bcf	3,6	;RP1=0, select bank1
  4234     03EA  00A3               	movwf	(?___fladd+3)^(0+128)
  4235     03EB  3000               	movlw	0
  4236     03EC  00A2               	movwf	(?___fladd+2)^(0+128)
  4237     03ED  3000               	movlw	0
  4238     03EE  00A1               	movwf	(?___fladd+1)^(0+128)
  4239     03EF  3000               	movlw	0
  4240     03F0  00A0               	movwf	?___fladd^(0+128)
  4241     03F1  2CAD               	goto	l496
  4242     03F2                     l1862:
  4243     03F2  3001               	movlw	1
  4244     03F3  00A8               	movwf	??___fladd^(0+128)
  4245     03F4                     u2125:
  4246     03F4  1003               	clrc
  4247     03F5  0DA0               	rlf	___fladd@b^(0+128),f
  4248     03F6  0DA1               	rlf	(___fladd@b+1)^(0+128),f
  4249     03F7  0DA2               	rlf	(___fladd@b+2)^(0+128),f
  4250     03F8  0DA3               	rlf	(___fladd@b+3)^(0+128),f
  4251     03F9  0BA8               	decfsz	??___fladd^(0+128),f
  4252     03FA  2BF4               	goto	u2125
  4253     03FB                     l1864:
  4254     03FB  1283               	bcf	3,5	;RP0=0, select bank0
  4255     03FC  1303               	bcf	3,6	;RP1=0, select bank0
  4256     03FD  1FEC               	btfss	___fladd@grs,7
  4257     03FE  2C00               	goto	u2131
  4258     03FF  2C01               	goto	u2130
  4259     0400                     u2131:
  4260     0400  2C04               	goto	l508
  4261     0401                     u2130:
  4262     0401                     l1866:
  4263     0401  1683               	bsf	3,5	;RP0=1, select bank1
  4264     0402  1303               	bcf	3,6	;RP1=0, select bank1
  4265     0403  1420               	bsf	___fladd@b^(0+128),0
  4266     0404                     l508:
  4267     0404  1283               	bcf	3,5	;RP0=0, select bank0
  4268     0405  1C6C               	btfss	___fladd@grs,0
  4269     0406  2C08               	goto	u2141
  4270     0407  2C09               	goto	u2140
  4271     0408                     u2141:
  4272     0408  2C0C               	goto	l1870
  4273     0409                     u2140:
  4274     0409                     l1868:
  4275     0409  1403               	setc
  4276     040A  0DEC               	rlf	___fladd@grs,f
  4277     040B  2C0E               	goto	l1872
  4278     040C                     l1870:
  4279     040C  1003               	clrc
  4280     040D  0DEC               	rlf	___fladd@grs,f
  4281     040E                     l1872:
  4282     040E  086B               	movf	___fladd@bexp,w
  4283     040F  1903               	btfsc	3,2
  4284     0410  2C12               	goto	u2151
  4285     0411  2C13               	goto	u2150
  4286     0412                     u2151:
  4287     0412  2C15               	goto	l1876
  4288     0413                     u2150:
  4289     0413                     l1874:
  4290     0413  3001               	movlw	1
  4291     0414  02EB               	subwf	___fladd@bexp,f
  4292     0415                     l1876:
  4293     0415  1683               	bsf	3,5	;RP0=1, select bank1
  4294     0416  1303               	bcf	3,6	;RP1=0, select bank1
  4295     0417  1FA2               	btfss	(___fladd@b+2)^(0+128),7
  4296     0418  2C1A               	goto	u2161
  4297     0419  2C1B               	goto	u2160
  4298     041A                     u2161:
  4299     041A  2BF2               	goto	l1862
  4300     041B                     u2160:
  4301     041B                     l1878:
  4302     041B  1283               	bcf	3,5	;RP0=0, select bank0
  4303     041C  01EA               	clrf	___fladd@aexp
  4304     041D                     l1880:
  4305     041D  1FEC               	btfss	___fladd@grs,7
  4306     041E  2C20               	goto	u2171
  4307     041F  2C21               	goto	u2170
  4308     0420                     u2171:
  4309     0420  2C32               	goto	l1888
  4310     0421                     u2170:
  4311     0421                     l1882:
  4312     0421  086C               	movf	___fladd@grs,w
  4313     0422  397F               	andlw	127
  4314     0423  1903               	btfsc	3,2
  4315     0424  2C26               	goto	u2181
  4316     0425  2C27               	goto	u2180
  4317     0426                     u2181:
  4318     0426  2C2B               	goto	l514
  4319     0427                     u2180:
  4320     0427                     l1884:
  4321     0427  1283               	bcf	3,5	;RP0=0, select bank0
  4322     0428  01EA               	clrf	___fladd@aexp
  4323     0429  0AEA               	incf	___fladd@aexp,f
  4324     042A  2C32               	goto	l1888
  4325     042B                     l514:
  4326     042B  1683               	bsf	3,5	;RP0=1, select bank1
  4327     042C  1303               	bcf	3,6	;RP1=0, select bank1
  4328     042D  1C20               	btfss	___fladd@b^(0+128),0
  4329     042E  2C30               	goto	u2191
  4330     042F  2C31               	goto	u2190
  4331     0430                     u2191:
  4332     0430  2C32               	goto	l1888
  4333     0431                     u2190:
  4334     0431  2C27               	goto	l1884
  4335     0432                     l1888:
  4336     0432  1283               	bcf	3,5	;RP0=0, select bank0
  4337     0433  086A               	movf	___fladd@aexp,w
  4338     0434  1903               	btfsc	3,2
  4339     0435  2C37               	goto	u2201
  4340     0436  2C38               	goto	u2200
  4341     0437                     u2201:
  4342     0437  2C70               	goto	l1898
  4343     0438                     u2200:
  4344     0438                     l1890:
  4345     0438  3001               	movlw	1
  4346     0439  1683               	bsf	3,5	;RP0=1, select bank1
  4347     043A  1303               	bcf	3,6	;RP1=0, select bank1
  4348     043B  07A0               	addwf	___fladd@b^(0+128),f
  4349     043C  3000               	movlw	0
  4350     043D  1803               	skipnc
  4351     043E  3001               	movlw	1
  4352     043F  07A1               	addwf	(___fladd@b+1)^(0+128),f
  4353     0440  3000               	movlw	0
  4354     0441  1803               	skipnc
  4355     0442  3001               	movlw	1
  4356     0443  07A2               	addwf	(___fladd@b+2)^(0+128),f
  4357     0444  3000               	movlw	0
  4358     0445  1803               	skipnc
  4359     0446  3001               	movlw	1
  4360     0447  07A3               	addwf	(___fladd@b+3)^(0+128),f
  4361     0448                     l1892:
  4362     0448  1C23               	btfss	(___fladd@b+3)^(0+128),0
  4363     0449  2C4B               	goto	u2211
  4364     044A  2C4C               	goto	u2210
  4365     044B                     u2211:
  4366     044B  2C70               	goto	l1898
  4367     044C                     u2210:
  4368     044C                     l1894:
  4369     044C  0820               	movf	___fladd@b^(0+128),w
  4370     044D  00A8               	movwf	??___fladd^(0+128)
  4371     044E  0821               	movf	(___fladd@b+1)^(0+128),w
  4372     044F  00A9               	movwf	(??___fladd^(0+128)+1)
  4373     0450  0822               	movf	(___fladd@b+2)^(0+128),w
  4374     0451  00AA               	movwf	(??___fladd^(0+128)+2)
  4375     0452  0823               	movf	(___fladd@b+3)^(0+128),w
  4376     0453  00AB               	movwf	(??___fladd^(0+128)+3)
  4377     0454  3001               	movlw	1
  4378     0455  00AC               	movwf	(??___fladd+4)^(0+128)
  4379     0456                     u2225:
  4380     0456  0D2B               	rlf	(??___fladd^(0+128)+3),w
  4381     0457  0CAB               	rrf	(??___fladd^(0+128)+3),f
  4382     0458  0CAA               	rrf	(??___fladd^(0+128)+2),f
  4383     0459  0CA9               	rrf	(??___fladd^(0+128)+1),f
  4384     045A  0CA8               	rrf	??___fladd^(0+128),f
  4385     045B                     u2220:
  4386     045B  0BAC               	decfsz	(??___fladd+4)^(0+128),f
  4387     045C  2C56               	goto	u2225
  4388     045D  082B               	movf	(??___fladd+3)^(0+128),w
  4389     045E  00A3               	movwf	(___fladd@b+3)^(0+128)
  4390     045F  082A               	movf	(??___fladd+2)^(0+128),w
  4391     0460  00A2               	movwf	(___fladd@b+2)^(0+128)
  4392     0461  0829               	movf	(??___fladd+1)^(0+128),w
  4393     0462  00A1               	movwf	(___fladd@b+1)^(0+128)
  4394     0463  0828               	movf	??___fladd^(0+128),w
  4395     0464  00A0               	movwf	___fladd@b^(0+128)
  4396     0465  1283               	bcf	3,5	;RP0=0, select bank0
  4397     0466  1303               	bcf	3,6	;RP1=0, select bank0
  4398     0467  0A6B               	incf	___fladd@bexp,w
  4399     0468  1903               	btfsc	3,2
  4400     0469  2C6B               	goto	u2231
  4401     046A  2C6C               	goto	u2230
  4402     046B                     u2231:
  4403     046B  2C70               	goto	l1898
  4404     046C                     u2230:
  4405     046C                     l1896:
  4406     046C  3001               	movlw	1
  4407     046D  00FF               	movwf	btemp+1
  4408     046E  087F               	movf	btemp+1,w
  4409     046F  07EB               	addwf	___fladd@bexp,f
  4410     0470                     l1898:
  4411     0470  1283               	bcf	3,5	;RP0=0, select bank0
  4412     0471  0A6B               	incf	___fladd@bexp,w
  4413     0472  1903               	btfsc	3,2
  4414     0473  2C75               	goto	u2241
  4415     0474  2C76               	goto	u2240
  4416     0475                     u2241:
  4417     0475  2C7B               	goto	l1902
  4418     0476                     u2240:
  4419     0476                     l1900:
  4420     0476  086B               	movf	___fladd@bexp,w
  4421     0477  1D03               	btfss	3,2
  4422     0478  2C7A               	goto	u2251
  4423     0479  2C7B               	goto	u2250
  4424     047A                     u2251:
  4425     047A  2C8D               	goto	l1908
  4426     047B                     u2250:
  4427     047B                     l1902:
  4428     047B  3000               	movlw	0
  4429     047C  1683               	bsf	3,5	;RP0=1, select bank1
  4430     047D  1303               	bcf	3,6	;RP1=0, select bank1
  4431     047E  00A3               	movwf	(___fladd@b+3)^(0+128)
  4432     047F  3000               	movlw	0
  4433     0480  00A2               	movwf	(___fladd@b+2)^(0+128)
  4434     0481  3000               	movlw	0
  4435     0482  00A1               	movwf	(___fladd@b+1)^(0+128)
  4436     0483  3000               	movlw	0
  4437     0484  00A0               	movwf	___fladd@b^(0+128)
  4438     0485                     l1904:
  4439     0485  1283               	bcf	3,5	;RP0=0, select bank0
  4440     0486  1303               	bcf	3,6	;RP1=0, select bank0
  4441     0487  086B               	movf	___fladd@bexp,w
  4442     0488  1D03               	btfss	3,2
  4443     0489  2C8B               	goto	u2261
  4444     048A  2C8C               	goto	u2260
  4445     048B                     u2261:
  4446     048B  2C8D               	goto	l1908
  4447     048C                     u2260:
  4448     048C                     l1906:
  4449     048C  01E9               	clrf	___fladd@signs
  4450     048D                     l1908:
  4451     048D  1C6B               	btfss	___fladd@bexp,0
  4452     048E  2C90               	goto	u2271
  4453     048F  2C91               	goto	u2270
  4454     0490                     u2271:
  4455     0490  2C95               	goto	l1912
  4456     0491                     u2270:
  4457     0491                     l1910:
  4458     0491  1683               	bsf	3,5	;RP0=1, select bank1
  4459     0492  1303               	bcf	3,6	;RP1=0, select bank1
  4460     0493  17A2               	bsf	(___fladd@b^(0+128)+2),7
  4461     0494  2C9B               	goto	l1914
  4462     0495                     l1912:
  4463     0495  307F               	movlw	127
  4464     0496  00FF               	movwf	btemp+1
  4465     0497  087F               	movf	btemp+1,w
  4466     0498  1683               	bsf	3,5	;RP0=1, select bank1
  4467     0499  1303               	bcf	3,6	;RP1=0, select bank1
  4468     049A  05A2               	andwf	(___fladd@b^(0+128)+2),f
  4469     049B                     l1914:
  4470     049B  1283               	bcf	3,5	;RP0=0, select bank0
  4471     049C  1303               	bcf	3,6	;RP1=0, select bank0
  4472     049D  086B               	movf	___fladd@bexp,w
  4473     049E  1683               	bsf	3,5	;RP0=1, select bank1
  4474     049F  1303               	bcf	3,6	;RP1=0, select bank1
  4475     04A0  00A8               	movwf	??___fladd^(0+128)
  4476     04A1  1003               	clrc
  4477     04A2  0C28               	rrf	??___fladd^(0+128),w
  4478     04A3  00A3               	movwf	(___fladd@b^(0+128)+3)
  4479     04A4                     l1916:
  4480     04A4  1283               	bcf	3,5	;RP0=0, select bank0
  4481     04A5  1303               	bcf	3,6	;RP1=0, select bank0
  4482     04A6  1FE9               	btfss	___fladd@signs,7
  4483     04A7  2CA9               	goto	u2281
  4484     04A8  2CAA               	goto	u2280
  4485     04A9                     u2281:
  4486     04A9  2CAD               	goto	l526
  4487     04AA                     u2280:
  4488     04AA                     l1918:
  4489     04AA  1683               	bsf	3,5	;RP0=1, select bank1
  4490     04AB  1303               	bcf	3,6	;RP1=0, select bank1
  4491     04AC  17A3               	bsf	(___fladd@b^(0+128)+3),7
  4492     04AD                     l526:
  4493     04AD                     l496:
  4494     04AD  0008               	return
  4495     04AE                     __end_of___fladd:
  4496                           
  4497                           	psect	text12
  4498     04AE                     __ptext12:	
  4499 ;; *************** function ___flmul *****************
  4500 ;; Defined at:
  4501 ;;		line 8 in file "C:\Program Files\Microchip\xc8\v2.41\pic\sources\c90\common\sprcmul.c"
  4502 ;; Parameters:    Size  Location     Type
  4503 ;;  b               4   21[BANK0 ] unsigned char 
  4504 ;;  a               4   25[BANK0 ] unsigned char 
  4505 ;; Auto vars:     Size  Location     Type
  4506 ;;  prod            4   41[BANK0 ] struct .
  4507 ;;  grs             4   35[BANK0 ] unsigned long 
  4508 ;;  temp            2   45[BANK0 ] struct .
  4509 ;;  bexp            1   40[BANK0 ] unsigned char 
  4510 ;;  aexp            1   39[BANK0 ] unsigned char 
  4511 ;;  sign            1   34[BANK0 ] unsigned char 
  4512 ;; Return value:  Size  Location     Type
  4513 ;;                  4   21[BANK0 ] unsigned char 
  4514 ;; Registers used:
  4515 ;;		wreg, status,2, status,0, btemp+1, pclath, cstack
  4516 ;; Tracked objects:
  4517 ;;		On entry : 0/0
  4518 ;;		On exit  : 0/0
  4519 ;;		Unchanged: 0/0
  4520 ;; Data sizes:     COMMON   BANK0   BANK1   BANK3   BANK2
  4521 ;;      Params:         0       8       0       0       0
  4522 ;;      Locals:         0      13       0       0       0
  4523 ;;      Temps:          0       5       0       0       0
  4524 ;;      Totals:         0      26       0       0       0
  4525 ;;Total ram usage:       26 bytes
  4526 ;; Hardware stack levels used: 1
  4527 ;; Hardware stack levels required when called: 1
  4528 ;; This function calls:
  4529 ;;		__Umul8_16
  4530 ;; This function is called by:
  4531 ;;		_float_LCD
  4532 ;;		_main
  4533 ;; This function uses a non-reentrant model
  4534 ;;
  4535                           
  4536     04AE                     ___flmul:	
  4537                           ;psect for function ___flmul
  4538                           
  4539     04AE                     l2266:	
  4540                           ;incstack = 0
  4541                           ; Regs used in ___flmul: [wreg+status,2+status,0+btemp+1+pclath+cstack]
  4542                           
  4543     04AE  1283               	bcf	3,5	;RP0=0, select bank0
  4544     04AF  1303               	bcf	3,6	;RP1=0, select bank0
  4545     04B0  0838               	movf	___flmul@b+3,w
  4546     04B1  3980               	andlw	128
  4547     04B2  00C2               	movwf	___flmul@sign
  4548     04B3                     l2268:
  4549     04B3  0838               	movf	___flmul@b+3,w
  4550     04B4  00BD               	movwf	??___flmul
  4551     04B5  073D               	addwf	??___flmul,w
  4552     04B6  00C8               	movwf	___flmul@bexp
  4553     04B7                     l2270:
  4554     04B7  1FB7               	btfss	___flmul@b+2,7
  4555     04B8  2CBA               	goto	u2821
  4556     04B9  2CBB               	goto	u2820
  4557     04BA                     u2821:
  4558     04BA  2CBC               	goto	l2274
  4559     04BB                     u2820:
  4560     04BB                     l2272:
  4561     04BB  1448               	bsf	___flmul@bexp,0
  4562     04BC                     l2274:
  4563     04BC  0848               	movf	___flmul@bexp,w
  4564     04BD  1903               	btfsc	3,2
  4565     04BE  2CC0               	goto	u2831
  4566     04BF  2CC1               	goto	u2830
  4567     04C0                     u2831:
  4568     04C0  2CD0               	goto	l2282
  4569     04C1                     u2830:
  4570     04C1                     l2276:
  4571     04C1  0A48               	incf	___flmul@bexp,w
  4572     04C2  1D03               	btfss	3,2
  4573     04C3  2CC5               	goto	u2841
  4574     04C4  2CC6               	goto	u2840
  4575     04C5                     u2841:
  4576     04C5  2CCE               	goto	l2280
  4577     04C6                     u2840:
  4578     04C6                     l2278:
  4579     04C6  3000               	movlw	0
  4580     04C7  00B8               	movwf	___flmul@b+3
  4581     04C8  3000               	movlw	0
  4582     04C9  00B7               	movwf	___flmul@b+2
  4583     04CA  3000               	movlw	0
  4584     04CB  00B6               	movwf	___flmul@b+1
  4585     04CC  3000               	movlw	0
  4586     04CD  00B5               	movwf	___flmul@b
  4587     04CE                     l2280:
  4588     04CE  17B7               	bsf	___flmul@b+2,7
  4589     04CF  2CD8               	goto	l2284
  4590     04D0                     l2282:
  4591     04D0  3000               	movlw	0
  4592     04D1  00B8               	movwf	___flmul@b+3
  4593     04D2  3000               	movlw	0
  4594     04D3  00B7               	movwf	___flmul@b+2
  4595     04D4  3000               	movlw	0
  4596     04D5  00B6               	movwf	___flmul@b+1
  4597     04D6  3000               	movlw	0
  4598     04D7  00B5               	movwf	___flmul@b
  4599     04D8                     l2284:
  4600     04D8  083C               	movf	___flmul@a+3,w
  4601     04D9  3980               	andlw	128
  4602     04DA  00FF               	movwf	btemp+1
  4603     04DB  087F               	movf	btemp+1,w
  4604     04DC  06C2               	xorwf	___flmul@sign,f
  4605     04DD                     l2286:
  4606     04DD  083C               	movf	___flmul@a+3,w
  4607     04DE  00BD               	movwf	??___flmul
  4608     04DF  073D               	addwf	??___flmul,w
  4609     04E0  00C7               	movwf	___flmul@aexp
  4610     04E1                     l2288:
  4611     04E1  1FBB               	btfss	___flmul@a+2,7
  4612     04E2  2CE4               	goto	u2851
  4613     04E3  2CE5               	goto	u2850
  4614     04E4                     u2851:
  4615     04E4  2CE6               	goto	l2292
  4616     04E5                     u2850:
  4617     04E5                     l2290:
  4618     04E5  1447               	bsf	___flmul@aexp,0
  4619     04E6                     l2292:
  4620     04E6  0847               	movf	___flmul@aexp,w
  4621     04E7  1903               	btfsc	3,2
  4622     04E8  2CEA               	goto	u2861
  4623     04E9  2CEB               	goto	u2860
  4624     04EA                     u2861:
  4625     04EA  2CFA               	goto	l2300
  4626     04EB                     u2860:
  4627     04EB                     l2294:
  4628     04EB  0A47               	incf	___flmul@aexp,w
  4629     04EC  1D03               	btfss	3,2
  4630     04ED  2CEF               	goto	u2871
  4631     04EE  2CF0               	goto	u2870
  4632     04EF                     u2871:
  4633     04EF  2CF8               	goto	l2298
  4634     04F0                     u2870:
  4635     04F0                     l2296:
  4636     04F0  3000               	movlw	0
  4637     04F1  00BC               	movwf	___flmul@a+3
  4638     04F2  3000               	movlw	0
  4639     04F3  00BB               	movwf	___flmul@a+2
  4640     04F4  3000               	movlw	0
  4641     04F5  00BA               	movwf	___flmul@a+1
  4642     04F6  3000               	movlw	0
  4643     04F7  00B9               	movwf	___flmul@a
  4644     04F8                     l2298:
  4645     04F8  17BB               	bsf	___flmul@a+2,7
  4646     04F9  2D02               	goto	l2302
  4647     04FA                     l2300:
  4648     04FA  3000               	movlw	0
  4649     04FB  00BC               	movwf	___flmul@a+3
  4650     04FC  3000               	movlw	0
  4651     04FD  00BB               	movwf	___flmul@a+2
  4652     04FE  3000               	movlw	0
  4653     04FF  00BA               	movwf	___flmul@a+1
  4654     0500  3000               	movlw	0
  4655     0501  00B9               	movwf	___flmul@a
  4656     0502                     l2302:
  4657     0502  0847               	movf	___flmul@aexp,w
  4658     0503  1903               	btfsc	3,2
  4659     0504  2D06               	goto	u2881
  4660     0505  2D07               	goto	u2880
  4661     0506                     u2881:
  4662     0506  2D0C               	goto	l2306
  4663     0507                     u2880:
  4664     0507                     l2304:
  4665     0507  0848               	movf	___flmul@bexp,w
  4666     0508  1D03               	btfss	3,2
  4667     0509  2D0B               	goto	u2891
  4668     050A  2D0C               	goto	u2890
  4669     050B                     u2891:
  4670     050B  2D15               	goto	l2310
  4671     050C                     u2890:
  4672     050C                     l2306:
  4673     050C  3000               	movlw	0
  4674     050D  00B8               	movwf	?___flmul+3
  4675     050E  3000               	movlw	0
  4676     050F  00B7               	movwf	?___flmul+2
  4677     0510  3000               	movlw	0
  4678     0511  00B6               	movwf	?___flmul+1
  4679     0512  3000               	movlw	0
  4680     0513  00B5               	movwf	?___flmul
  4681     0514  2FF2               	goto	l579
  4682     0515                     l2310:
  4683     0515  0835               	movf	___flmul@b,w
  4684     0516  00F0               	movwf	__Umul8_16@multiplicand
  4685     0517  083B               	movf	___flmul@a+2,w
  4686     0518  160A  118A  2772  120A  118A  	fcall	__Umul8_16
  4687     051D  0871               	movf	?__Umul8_16+1,w
  4688     051E  1283               	bcf	3,5	;RP0=0, select bank0
  4689     051F  1303               	bcf	3,6	;RP1=0, select bank0
  4690     0520  00CE               	movwf	___flmul@temp+1
  4691     0521  0870               	movf	?__Umul8_16,w
  4692     0522  00CD               	movwf	___flmul@temp
  4693     0523                     l2312:
  4694     0523  084D               	movf	___flmul@temp,w
  4695     0524  00BD               	movwf	??___flmul
  4696     0525  01BE               	clrf	??___flmul+1
  4697     0526  01BF               	clrf	??___flmul+2
  4698     0527  01C0               	clrf	??___flmul+3
  4699     0528  0840               	movf	??___flmul+3,w
  4700     0529  00C6               	movwf	___flmul@grs+3
  4701     052A  083F               	movf	??___flmul+2,w
  4702     052B  00C5               	movwf	___flmul@grs+2
  4703     052C  083E               	movf	??___flmul+1,w
  4704     052D  00C4               	movwf	___flmul@grs+1
  4705     052E  083D               	movf	??___flmul,w
  4706     052F  00C3               	movwf	___flmul@grs
  4707     0530                     l2314:
  4708     0530  084E               	movf	___flmul@temp+1,w
  4709     0531  00BD               	movwf	??___flmul
  4710     0532  01BE               	clrf	??___flmul+1
  4711     0533  01BF               	clrf	??___flmul+2
  4712     0534  01C0               	clrf	??___flmul+3
  4713     0535  0840               	movf	??___flmul+3,w
  4714     0536  00CC               	movwf	___flmul@prod+3
  4715     0537  083F               	movf	??___flmul+2,w
  4716     0538  00CB               	movwf	___flmul@prod+2
  4717     0539  083E               	movf	??___flmul+1,w
  4718     053A  00CA               	movwf	___flmul@prod+1
  4719     053B  083D               	movf	??___flmul,w
  4720     053C  00C9               	movwf	___flmul@prod
  4721     053D  0836               	movf	___flmul@b+1,w
  4722     053E  00F0               	movwf	__Umul8_16@multiplicand
  4723     053F  083A               	movf	___flmul@a+1,w
  4724     0540  160A  118A  2772  120A  118A  	fcall	__Umul8_16
  4725     0545  0871               	movf	?__Umul8_16+1,w
  4726     0546  1283               	bcf	3,5	;RP0=0, select bank0
  4727     0547  1303               	bcf	3,6	;RP1=0, select bank0
  4728     0548  00CE               	movwf	___flmul@temp+1
  4729     0549  0870               	movf	?__Umul8_16,w
  4730     054A  00CD               	movwf	___flmul@temp
  4731     054B                     l2316:
  4732     054B  084D               	movf	___flmul@temp,w
  4733     054C  00BD               	movwf	??___flmul
  4734     054D  01BE               	clrf	??___flmul+1
  4735     054E  01BF               	clrf	??___flmul+2
  4736     054F  01C0               	clrf	??___flmul+3
  4737     0550  083D               	movf	??___flmul,w
  4738     0551  07C3               	addwf	___flmul@grs,f
  4739     0552  083E               	movf	??___flmul+1,w
  4740     0553  1103               	clrz
  4741     0554  1803               	skipnc
  4742     0555  3E01               	addlw	1
  4743     0556  1903               	skipnz
  4744     0557  2D59               	goto	u2901
  4745     0558  07C4               	addwf	___flmul@grs+1,f
  4746     0559                     u2901:
  4747     0559  083F               	movf	??___flmul+2,w
  4748     055A  1103               	clrz
  4749     055B  1803               	skipnc
  4750     055C  3E01               	addlw	1
  4751     055D  1903               	skipnz
  4752     055E  2D60               	goto	u2902
  4753     055F  07C5               	addwf	___flmul@grs+2,f
  4754     0560                     u2902:
  4755     0560  0840               	movf	??___flmul+3,w
  4756     0561  1103               	clrz
  4757     0562  1803               	skipnc
  4758     0563  3E01               	addlw	1
  4759     0564  1903               	skipnz
  4760     0565  2D67               	goto	u2903
  4761     0566  07C6               	addwf	___flmul@grs+3,f
  4762     0567                     u2903:
  4763     0567                     l2318:
  4764     0567  084E               	movf	___flmul@temp+1,w
  4765     0568  00BD               	movwf	??___flmul
  4766     0569  01BE               	clrf	??___flmul+1
  4767     056A  01BF               	clrf	??___flmul+2
  4768     056B  01C0               	clrf	??___flmul+3
  4769     056C  083D               	movf	??___flmul,w
  4770     056D  07C9               	addwf	___flmul@prod,f
  4771     056E  083E               	movf	??___flmul+1,w
  4772     056F  1103               	clrz
  4773     0570  1803               	skipnc
  4774     0571  3E01               	addlw	1
  4775     0572  1903               	skipnz
  4776     0573  2D75               	goto	u2911
  4777     0574  07CA               	addwf	___flmul@prod+1,f
  4778     0575                     u2911:
  4779     0575  083F               	movf	??___flmul+2,w
  4780     0576  1103               	clrz
  4781     0577  1803               	skipnc
  4782     0578  3E01               	addlw	1
  4783     0579  1903               	skipnz
  4784     057A  2D7C               	goto	u2912
  4785     057B  07CB               	addwf	___flmul@prod+2,f
  4786     057C                     u2912:
  4787     057C  0840               	movf	??___flmul+3,w
  4788     057D  1103               	clrz
  4789     057E  1803               	skipnc
  4790     057F  3E01               	addlw	1
  4791     0580  1903               	skipnz
  4792     0581  2D83               	goto	u2913
  4793     0582  07CC               	addwf	___flmul@prod+3,f
  4794     0583                     u2913:
  4795     0583  0837               	movf	___flmul@b+2,w
  4796     0584  00F0               	movwf	__Umul8_16@multiplicand
  4797     0585  0839               	movf	___flmul@a,w
  4798     0586  160A  118A  2772  120A  118A  	fcall	__Umul8_16
  4799     058B  0871               	movf	?__Umul8_16+1,w
  4800     058C  1283               	bcf	3,5	;RP0=0, select bank0
  4801     058D  1303               	bcf	3,6	;RP1=0, select bank0
  4802     058E  00CE               	movwf	___flmul@temp+1
  4803     058F  0870               	movf	?__Umul8_16,w
  4804     0590  00CD               	movwf	___flmul@temp
  4805     0591                     l2320:
  4806     0591  084D               	movf	___flmul@temp,w
  4807     0592  00BD               	movwf	??___flmul
  4808     0593  01BE               	clrf	??___flmul+1
  4809     0594  01BF               	clrf	??___flmul+2
  4810     0595  01C0               	clrf	??___flmul+3
  4811     0596  083D               	movf	??___flmul,w
  4812     0597  07C3               	addwf	___flmul@grs,f
  4813     0598  083E               	movf	??___flmul+1,w
  4814     0599  1103               	clrz
  4815     059A  1803               	skipnc
  4816     059B  3E01               	addlw	1
  4817     059C  1903               	skipnz
  4818     059D  2D9F               	goto	u2921
  4819     059E  07C4               	addwf	___flmul@grs+1,f
  4820     059F                     u2921:
  4821     059F  083F               	movf	??___flmul+2,w
  4822     05A0  1103               	clrz
  4823     05A1  1803               	skipnc
  4824     05A2  3E01               	addlw	1
  4825     05A3  1903               	skipnz
  4826     05A4  2DA6               	goto	u2922
  4827     05A5  07C5               	addwf	___flmul@grs+2,f
  4828     05A6                     u2922:
  4829     05A6  0840               	movf	??___flmul+3,w
  4830     05A7  1103               	clrz
  4831     05A8  1803               	skipnc
  4832     05A9  3E01               	addlw	1
  4833     05AA  1903               	skipnz
  4834     05AB  2DAD               	goto	u2923
  4835     05AC  07C6               	addwf	___flmul@grs+3,f
  4836     05AD                     u2923:
  4837     05AD                     l2322:
  4838     05AD  084E               	movf	___flmul@temp+1,w
  4839     05AE  00BD               	movwf	??___flmul
  4840     05AF  01BE               	clrf	??___flmul+1
  4841     05B0  01BF               	clrf	??___flmul+2
  4842     05B1  01C0               	clrf	??___flmul+3
  4843     05B2  083D               	movf	??___flmul,w
  4844     05B3  07C9               	addwf	___flmul@prod,f
  4845     05B4  083E               	movf	??___flmul+1,w
  4846     05B5  1103               	clrz
  4847     05B6  1803               	skipnc
  4848     05B7  3E01               	addlw	1
  4849     05B8  1903               	skipnz
  4850     05B9  2DBB               	goto	u2931
  4851     05BA  07CA               	addwf	___flmul@prod+1,f
  4852     05BB                     u2931:
  4853     05BB  083F               	movf	??___flmul+2,w
  4854     05BC  1103               	clrz
  4855     05BD  1803               	skipnc
  4856     05BE  3E01               	addlw	1
  4857     05BF  1903               	skipnz
  4858     05C0  2DC2               	goto	u2932
  4859     05C1  07CB               	addwf	___flmul@prod+2,f
  4860     05C2                     u2932:
  4861     05C2  0840               	movf	??___flmul+3,w
  4862     05C3  1103               	clrz
  4863     05C4  1803               	skipnc
  4864     05C5  3E01               	addlw	1
  4865     05C6  1903               	skipnz
  4866     05C7  2DC9               	goto	u2933
  4867     05C8  07CC               	addwf	___flmul@prod+3,f
  4868     05C9                     u2933:
  4869     05C9                     l2324:
  4870     05C9  3008               	movlw	8
  4871     05CA  00BD               	movwf	??___flmul
  4872     05CB                     u2945:
  4873     05CB  1003               	clrc
  4874     05CC  0DC3               	rlf	___flmul@grs,f
  4875     05CD  0DC4               	rlf	___flmul@grs+1,f
  4876     05CE  0DC5               	rlf	___flmul@grs+2,f
  4877     05CF  0DC6               	rlf	___flmul@grs+3,f
  4878     05D0  0BBD               	decfsz	??___flmul,f
  4879     05D1  2DCB               	goto	u2945
  4880     05D2                     l2326:
  4881     05D2  0836               	movf	___flmul@b+1,w
  4882     05D3  00F0               	movwf	__Umul8_16@multiplicand
  4883     05D4  0839               	movf	___flmul@a,w
  4884     05D5  160A  118A  2772  120A  118A  	fcall	__Umul8_16
  4885     05DA  0871               	movf	?__Umul8_16+1,w
  4886     05DB  1283               	bcf	3,5	;RP0=0, select bank0
  4887     05DC  1303               	bcf	3,6	;RP1=0, select bank0
  4888     05DD  00CE               	movwf	___flmul@temp+1
  4889     05DE  0870               	movf	?__Umul8_16,w
  4890     05DF  00CD               	movwf	___flmul@temp
  4891     05E0                     l2328:
  4892     05E0  084D               	movf	___flmul@temp,w
  4893     05E1  00BD               	movwf	??___flmul
  4894     05E2  084E               	movf	___flmul@temp+1,w
  4895     05E3  00BE               	movwf	??___flmul+1
  4896     05E4  01BF               	clrf	??___flmul+2
  4897     05E5  01C0               	clrf	??___flmul+3
  4898     05E6  083D               	movf	??___flmul,w
  4899     05E7  07C3               	addwf	___flmul@grs,f
  4900     05E8  083E               	movf	??___flmul+1,w
  4901     05E9  1103               	clrz
  4902     05EA  1803               	skipnc
  4903     05EB  3E01               	addlw	1
  4904     05EC  1903               	skipnz
  4905     05ED  2DEF               	goto	u2951
  4906     05EE  07C4               	addwf	___flmul@grs+1,f
  4907     05EF                     u2951:
  4908     05EF  083F               	movf	??___flmul+2,w
  4909     05F0  1103               	clrz
  4910     05F1  1803               	skipnc
  4911     05F2  3E01               	addlw	1
  4912     05F3  1903               	skipnz
  4913     05F4  2DF6               	goto	u2952
  4914     05F5  07C5               	addwf	___flmul@grs+2,f
  4915     05F6                     u2952:
  4916     05F6  0840               	movf	??___flmul+3,w
  4917     05F7  1103               	clrz
  4918     05F8  1803               	skipnc
  4919     05F9  3E01               	addlw	1
  4920     05FA  1903               	skipnz
  4921     05FB  2DFD               	goto	u2953
  4922     05FC  07C6               	addwf	___flmul@grs+3,f
  4923     05FD                     u2953:
  4924     05FD                     l2330:
  4925     05FD  0835               	movf	___flmul@b,w
  4926     05FE  00F0               	movwf	__Umul8_16@multiplicand
  4927     05FF  083A               	movf	___flmul@a+1,w
  4928     0600  160A  118A  2772  120A  118A  	fcall	__Umul8_16
  4929     0605  0871               	movf	?__Umul8_16+1,w
  4930     0606  1283               	bcf	3,5	;RP0=0, select bank0
  4931     0607  1303               	bcf	3,6	;RP1=0, select bank0
  4932     0608  00CE               	movwf	___flmul@temp+1
  4933     0609  0870               	movf	?__Umul8_16,w
  4934     060A  00CD               	movwf	___flmul@temp
  4935     060B                     l2332:
  4936     060B  084D               	movf	___flmul@temp,w
  4937     060C  00BD               	movwf	??___flmul
  4938     060D  084E               	movf	___flmul@temp+1,w
  4939     060E  00BE               	movwf	??___flmul+1
  4940     060F  01BF               	clrf	??___flmul+2
  4941     0610  01C0               	clrf	??___flmul+3
  4942     0611  083D               	movf	??___flmul,w
  4943     0612  07C3               	addwf	___flmul@grs,f
  4944     0613  083E               	movf	??___flmul+1,w
  4945     0614  1103               	clrz
  4946     0615  1803               	skipnc
  4947     0616  3E01               	addlw	1
  4948     0617  1903               	skipnz
  4949     0618  2E1A               	goto	u2961
  4950     0619  07C4               	addwf	___flmul@grs+1,f
  4951     061A                     u2961:
  4952     061A  083F               	movf	??___flmul+2,w
  4953     061B  1103               	clrz
  4954     061C  1803               	skipnc
  4955     061D  3E01               	addlw	1
  4956     061E  1903               	skipnz
  4957     061F  2E21               	goto	u2962
  4958     0620  07C5               	addwf	___flmul@grs+2,f
  4959     0621                     u2962:
  4960     0621  0840               	movf	??___flmul+3,w
  4961     0622  1103               	clrz
  4962     0623  1803               	skipnc
  4963     0624  3E01               	addlw	1
  4964     0625  1903               	skipnz
  4965     0626  2E28               	goto	u2963
  4966     0627  07C6               	addwf	___flmul@grs+3,f
  4967     0628                     u2963:
  4968     0628                     l2334:
  4969     0628  3008               	movlw	8
  4970     0629  00BD               	movwf	??___flmul
  4971     062A                     u2975:
  4972     062A  1003               	clrc
  4973     062B  0DC3               	rlf	___flmul@grs,f
  4974     062C  0DC4               	rlf	___flmul@grs+1,f
  4975     062D  0DC5               	rlf	___flmul@grs+2,f
  4976     062E  0DC6               	rlf	___flmul@grs+3,f
  4977     062F  0BBD               	decfsz	??___flmul,f
  4978     0630  2E2A               	goto	u2975
  4979     0631  0835               	movf	___flmul@b,w
  4980     0632  00F0               	movwf	__Umul8_16@multiplicand
  4981     0633  0839               	movf	___flmul@a,w
  4982     0634  160A  118A  2772  120A  118A  	fcall	__Umul8_16
  4983     0639  0871               	movf	?__Umul8_16+1,w
  4984     063A  1283               	bcf	3,5	;RP0=0, select bank0
  4985     063B  1303               	bcf	3,6	;RP1=0, select bank0
  4986     063C  00CE               	movwf	___flmul@temp+1
  4987     063D  0870               	movf	?__Umul8_16,w
  4988     063E  00CD               	movwf	___flmul@temp
  4989     063F                     l2336:
  4990     063F  084D               	movf	___flmul@temp,w
  4991     0640  00BD               	movwf	??___flmul
  4992     0641  084E               	movf	___flmul@temp+1,w
  4993     0642  00BE               	movwf	??___flmul+1
  4994     0643  01BF               	clrf	??___flmul+2
  4995     0644  01C0               	clrf	??___flmul+3
  4996     0645  083D               	movf	??___flmul,w
  4997     0646  07C3               	addwf	___flmul@grs,f
  4998     0647  083E               	movf	??___flmul+1,w
  4999     0648  1103               	clrz
  5000     0649  1803               	skipnc
  5001     064A  3E01               	addlw	1
  5002     064B  1903               	skipnz
  5003     064C  2E4E               	goto	u2981
  5004     064D  07C4               	addwf	___flmul@grs+1,f
  5005     064E                     u2981:
  5006     064E  083F               	movf	??___flmul+2,w
  5007     064F  1103               	clrz
  5008     0650  1803               	skipnc
  5009     0651  3E01               	addlw	1
  5010     0652  1903               	skipnz
  5011     0653  2E55               	goto	u2982
  5012     0654  07C5               	addwf	___flmul@grs+2,f
  5013     0655                     u2982:
  5014     0655  0840               	movf	??___flmul+3,w
  5015     0656  1103               	clrz
  5016     0657  1803               	skipnc
  5017     0658  3E01               	addlw	1
  5018     0659  1903               	skipnz
  5019     065A  2E5C               	goto	u2983
  5020     065B  07C6               	addwf	___flmul@grs+3,f
  5021     065C                     u2983:
  5022     065C                     l2338:
  5023     065C  0836               	movf	___flmul@b+1,w
  5024     065D  00F0               	movwf	__Umul8_16@multiplicand
  5025     065E  083B               	movf	___flmul@a+2,w
  5026     065F  160A  118A  2772  120A  118A  	fcall	__Umul8_16
  5027     0664  0871               	movf	?__Umul8_16+1,w
  5028     0665  1283               	bcf	3,5	;RP0=0, select bank0
  5029     0666  1303               	bcf	3,6	;RP1=0, select bank0
  5030     0667  00CE               	movwf	___flmul@temp+1
  5031     0668  0870               	movf	?__Umul8_16,w
  5032     0669  00CD               	movwf	___flmul@temp
  5033     066A  084D               	movf	___flmul@temp,w
  5034     066B  00BD               	movwf	??___flmul
  5035     066C  084E               	movf	___flmul@temp+1,w
  5036     066D  00BE               	movwf	??___flmul+1
  5037     066E  01BF               	clrf	??___flmul+2
  5038     066F  01C0               	clrf	??___flmul+3
  5039     0670  083D               	movf	??___flmul,w
  5040     0671  07C9               	addwf	___flmul@prod,f
  5041     0672  083E               	movf	??___flmul+1,w
  5042     0673  1103               	clrz
  5043     0674  1803               	skipnc
  5044     0675  3E01               	addlw	1
  5045     0676  1903               	skipnz
  5046     0677  2E79               	goto	u2991
  5047     0678  07CA               	addwf	___flmul@prod+1,f
  5048     0679                     u2991:
  5049     0679  083F               	movf	??___flmul+2,w
  5050     067A  1103               	clrz
  5051     067B  1803               	skipnc
  5052     067C  3E01               	addlw	1
  5053     067D  1903               	skipnz
  5054     067E  2E80               	goto	u2992
  5055     067F  07CB               	addwf	___flmul@prod+2,f
  5056     0680                     u2992:
  5057     0680  0840               	movf	??___flmul+3,w
  5058     0681  1103               	clrz
  5059     0682  1803               	skipnc
  5060     0683  3E01               	addlw	1
  5061     0684  1903               	skipnz
  5062     0685  2E87               	goto	u2993
  5063     0686  07CC               	addwf	___flmul@prod+3,f
  5064     0687                     u2993:
  5065     0687                     l2340:
  5066     0687  0837               	movf	___flmul@b+2,w
  5067     0688  00F0               	movwf	__Umul8_16@multiplicand
  5068     0689  083A               	movf	___flmul@a+1,w
  5069     068A  160A  118A  2772  120A  118A  	fcall	__Umul8_16
  5070     068F  0871               	movf	?__Umul8_16+1,w
  5071     0690  1283               	bcf	3,5	;RP0=0, select bank0
  5072     0691  1303               	bcf	3,6	;RP1=0, select bank0
  5073     0692  00CE               	movwf	___flmul@temp+1
  5074     0693  0870               	movf	?__Umul8_16,w
  5075     0694  00CD               	movwf	___flmul@temp
  5076     0695                     l2342:
  5077     0695  084D               	movf	___flmul@temp,w
  5078     0696  00BD               	movwf	??___flmul
  5079     0697  084E               	movf	___flmul@temp+1,w
  5080     0698  00BE               	movwf	??___flmul+1
  5081     0699  01BF               	clrf	??___flmul+2
  5082     069A  01C0               	clrf	??___flmul+3
  5083     069B  083D               	movf	??___flmul,w
  5084     069C  07C9               	addwf	___flmul@prod,f
  5085     069D  083E               	movf	??___flmul+1,w
  5086     069E  1103               	clrz
  5087     069F  1803               	skipnc
  5088     06A0  3E01               	addlw	1
  5089     06A1  1903               	skipnz
  5090     06A2  2EA4               	goto	u3001
  5091     06A3  07CA               	addwf	___flmul@prod+1,f
  5092     06A4                     u3001:
  5093     06A4  083F               	movf	??___flmul+2,w
  5094     06A5  1103               	clrz
  5095     06A6  1803               	skipnc
  5096     06A7  3E01               	addlw	1
  5097     06A8  1903               	skipnz
  5098     06A9  2EAB               	goto	u3002
  5099     06AA  07CB               	addwf	___flmul@prod+2,f
  5100     06AB                     u3002:
  5101     06AB  0840               	movf	??___flmul+3,w
  5102     06AC  1103               	clrz
  5103     06AD  1803               	skipnc
  5104     06AE  3E01               	addlw	1
  5105     06AF  1903               	skipnz
  5106     06B0  2EB2               	goto	u3003
  5107     06B1  07CC               	addwf	___flmul@prod+3,f
  5108     06B2                     u3003:
  5109     06B2  0837               	movf	___flmul@b+2,w
  5110     06B3  00F0               	movwf	__Umul8_16@multiplicand
  5111     06B4  083B               	movf	___flmul@a+2,w
  5112     06B5  160A  118A  2772  120A  118A  	fcall	__Umul8_16
  5113     06BA  0871               	movf	?__Umul8_16+1,w
  5114     06BB  1283               	bcf	3,5	;RP0=0, select bank0
  5115     06BC  1303               	bcf	3,6	;RP1=0, select bank0
  5116     06BD  00CE               	movwf	___flmul@temp+1
  5117     06BE  0870               	movf	?__Umul8_16,w
  5118     06BF  00CD               	movwf	___flmul@temp
  5119     06C0                     l2344:
  5120     06C0  084D               	movf	___flmul@temp,w
  5121     06C1  00BD               	movwf	??___flmul
  5122     06C2  084E               	movf	___flmul@temp+1,w
  5123     06C3  00BE               	movwf	??___flmul+1
  5124     06C4  01BF               	clrf	??___flmul+2
  5125     06C5  01C0               	clrf	??___flmul+3
  5126     06C6  3008               	movlw	8
  5127     06C7                     u3015:
  5128     06C7  1003               	clrc
  5129     06C8  0DBD               	rlf	??___flmul,f
  5130     06C9  0DBE               	rlf	??___flmul+1,f
  5131     06CA  0DBF               	rlf	??___flmul+2,f
  5132     06CB  0DC0               	rlf	??___flmul+3,f
  5133     06CC                     u3010:
  5134     06CC  3EFF               	addlw	-1
  5135     06CD  1D03               	skipz
  5136     06CE  2EC7               	goto	u3015
  5137     06CF  083D               	movf	??___flmul,w
  5138     06D0  07C9               	addwf	___flmul@prod,f
  5139     06D1  083E               	movf	??___flmul+1,w
  5140     06D2  1103               	clrz
  5141     06D3  1803               	skipnc
  5142     06D4  3E01               	addlw	1
  5143     06D5  1903               	skipnz
  5144     06D6  2ED8               	goto	u3021
  5145     06D7  07CA               	addwf	___flmul@prod+1,f
  5146     06D8                     u3021:
  5147     06D8  083F               	movf	??___flmul+2,w
  5148     06D9  1103               	clrz
  5149     06DA  1803               	skipnc
  5150     06DB  3E01               	addlw	1
  5151     06DC  1903               	skipnz
  5152     06DD  2EDF               	goto	u3022
  5153     06DE  07CB               	addwf	___flmul@prod+2,f
  5154     06DF                     u3022:
  5155     06DF  0840               	movf	??___flmul+3,w
  5156     06E0  1103               	clrz
  5157     06E1  1803               	skipnc
  5158     06E2  3E01               	addlw	1
  5159     06E3  1903               	skipnz
  5160     06E4  2EE6               	goto	u3023
  5161     06E5  07CC               	addwf	___flmul@prod+3,f
  5162     06E6                     u3023:
  5163     06E6                     l2346:
  5164     06E6  0843               	movf	___flmul@grs,w
  5165     06E7  00BD               	movwf	??___flmul
  5166     06E8  0844               	movf	___flmul@grs+1,w
  5167     06E9  00BE               	movwf	??___flmul+1
  5168     06EA  0845               	movf	___flmul@grs+2,w
  5169     06EB  00BF               	movwf	??___flmul+2
  5170     06EC  0846               	movf	___flmul@grs+3,w
  5171     06ED  00C0               	movwf	??___flmul+3
  5172     06EE  3018               	movlw	24
  5173     06EF                     u3035:
  5174     06EF  1003               	clrc
  5175     06F0  0CC0               	rrf	??___flmul+3,f
  5176     06F1  0CBF               	rrf	??___flmul+2,f
  5177     06F2  0CBE               	rrf	??___flmul+1,f
  5178     06F3  0CBD               	rrf	??___flmul,f
  5179     06F4                     u3030:
  5180     06F4  3EFF               	addlw	-1
  5181     06F5  1D03               	skipz
  5182     06F6  2EEF               	goto	u3035
  5183     06F7  083D               	movf	??___flmul,w
  5184     06F8  07C9               	addwf	___flmul@prod,f
  5185     06F9  083E               	movf	??___flmul+1,w
  5186     06FA  1103               	clrz
  5187     06FB  1803               	skipnc
  5188     06FC  3E01               	addlw	1
  5189     06FD  1903               	skipnz
  5190     06FE  2F00               	goto	u3041
  5191     06FF  07CA               	addwf	___flmul@prod+1,f
  5192     0700                     u3041:
  5193     0700  083F               	movf	??___flmul+2,w
  5194     0701  1103               	clrz
  5195     0702  1803               	skipnc
  5196     0703  3E01               	addlw	1
  5197     0704  1903               	skipnz
  5198     0705  2F07               	goto	u3042
  5199     0706  07CB               	addwf	___flmul@prod+2,f
  5200     0707                     u3042:
  5201     0707  0840               	movf	??___flmul+3,w
  5202     0708  1103               	clrz
  5203     0709  1803               	skipnc
  5204     070A  3E01               	addlw	1
  5205     070B  1903               	skipnz
  5206     070C  2F0E               	goto	u3043
  5207     070D  07CC               	addwf	___flmul@prod+3,f
  5208     070E                     u3043:
  5209     070E                     l2348:
  5210     070E  3008               	movlw	8
  5211     070F  00BD               	movwf	??___flmul
  5212     0710                     u3055:
  5213     0710  1003               	clrc
  5214     0711  0DC3               	rlf	___flmul@grs,f
  5215     0712  0DC4               	rlf	___flmul@grs+1,f
  5216     0713  0DC5               	rlf	___flmul@grs+2,f
  5217     0714  0DC6               	rlf	___flmul@grs+3,f
  5218     0715  0BBD               	decfsz	??___flmul,f
  5219     0716  2F10               	goto	u3055
  5220     0717                     l2350:
  5221     0717  0848               	movf	___flmul@bexp,w
  5222     0718  0747               	addwf	___flmul@aexp,w
  5223     0719  00BD               	movwf	??___flmul
  5224     071A  01BE               	clrf	??___flmul+1
  5225     071B  0DBE               	rlf	??___flmul+1,f
  5226     071C  083D               	movf	??___flmul,w
  5227     071D  3E82               	addlw	130
  5228     071E  00CD               	movwf	___flmul@temp
  5229     071F  083E               	movf	??___flmul+1,w
  5230     0720  1803               	skipnc
  5231     0721  3E01               	addlw	1
  5232     0722  3EFF               	addlw	255
  5233     0723  00CE               	movwf	___flmul@temp+1
  5234     0724  2F42               	goto	l2362
  5235     0725                     l2352:
  5236     0725  3001               	movlw	1
  5237     0726  00BD               	movwf	??___flmul
  5238     0727                     u3065:
  5239     0727  1003               	clrc
  5240     0728  0DC9               	rlf	___flmul@prod,f
  5241     0729  0DCA               	rlf	___flmul@prod+1,f
  5242     072A  0DCB               	rlf	___flmul@prod+2,f
  5243     072B  0DCC               	rlf	___flmul@prod+3,f
  5244     072C  0BBD               	decfsz	??___flmul,f
  5245     072D  2F27               	goto	u3065
  5246     072E                     l2354:
  5247     072E  1FC6               	btfss	___flmul@grs+3,7
  5248     072F  2F31               	goto	u3071
  5249     0730  2F32               	goto	u3070
  5250     0731                     u3071:
  5251     0731  2F33               	goto	l2358
  5252     0732                     u3070:
  5253     0732                     l2356:
  5254     0732  1449               	bsf	___flmul@prod,0
  5255     0733                     l2358:
  5256     0733  3001               	movlw	1
  5257     0734  00BD               	movwf	??___flmul
  5258     0735                     u3085:
  5259     0735  1003               	clrc
  5260     0736  0DC3               	rlf	___flmul@grs,f
  5261     0737  0DC4               	rlf	___flmul@grs+1,f
  5262     0738  0DC5               	rlf	___flmul@grs+2,f
  5263     0739  0DC6               	rlf	___flmul@grs+3,f
  5264     073A  0BBD               	decfsz	??___flmul,f
  5265     073B  2F35               	goto	u3085
  5266     073C                     l2360:
  5267     073C  30FF               	movlw	255
  5268     073D  07CD               	addwf	___flmul@temp,f
  5269     073E  1803               	skipnc
  5270     073F  0ACE               	incf	___flmul@temp+1,f
  5271     0740  30FF               	movlw	255
  5272     0741  07CE               	addwf	___flmul@temp+1,f
  5273     0742                     l2362:
  5274     0742  1FCB               	btfss	___flmul@prod+2,7
  5275     0743  2F45               	goto	u3091
  5276     0744  2F46               	goto	u3090
  5277     0745                     u3091:
  5278     0745  2F25               	goto	l2352
  5279     0746                     u3090:
  5280     0746                     l2364:
  5281     0746  01C7               	clrf	___flmul@aexp
  5282     0747                     l2366:
  5283     0747  1FC6               	btfss	___flmul@grs+3,7
  5284     0748  2F4A               	goto	u3101
  5285     0749  2F4B               	goto	u3100
  5286     074A                     u3101:
  5287     074A  2F67               	goto	l2374
  5288     074B                     u3100:
  5289     074B                     l2368:
  5290     074B  30FF               	movlw	255
  5291     074C  0543               	andwf	___flmul@grs,w
  5292     074D  00BD               	movwf	??___flmul
  5293     074E  30FF               	movlw	255
  5294     074F  0544               	andwf	___flmul@grs+1,w
  5295     0750  00BE               	movwf	??___flmul+1
  5296     0751  30FF               	movlw	255
  5297     0752  0545               	andwf	___flmul@grs+2,w
  5298     0753  00BF               	movwf	??___flmul+2
  5299     0754  307F               	movlw	127
  5300     0755  0546               	andwf	___flmul@grs+3,w
  5301     0756  00C0               	movwf	??___flmul+3
  5302     0757  0840               	movf	??___flmul+3,w
  5303     0758  043F               	iorwf	??___flmul+2,w
  5304     0759  043E               	iorwf	??___flmul+1,w
  5305     075A  043D               	iorwf	??___flmul,w
  5306     075B  1903               	skipnz
  5307     075C  2F5E               	goto	u3111
  5308     075D  2F5F               	goto	u3110
  5309     075E                     u3111:
  5310     075E  2F62               	goto	l585
  5311     075F                     u3110:
  5312     075F                     l2370:
  5313     075F  01C7               	clrf	___flmul@aexp
  5314     0760  0AC7               	incf	___flmul@aexp,f
  5315     0761  2F67               	goto	l2374
  5316     0762                     l585:
  5317     0762  1C49               	btfss	___flmul@prod,0
  5318     0763  2F65               	goto	u3121
  5319     0764  2F66               	goto	u3120
  5320     0765                     u3121:
  5321     0765  2F67               	goto	l2374
  5322     0766                     u3120:
  5323     0766  2F5F               	goto	l2370
  5324     0767                     l2374:
  5325     0767  0847               	movf	___flmul@aexp,w
  5326     0768  1903               	btfsc	3,2
  5327     0769  2F6B               	goto	u3131
  5328     076A  2F6C               	goto	u3130
  5329     076B                     u3131:
  5330     076B  2F9D               	goto	l2384
  5331     076C                     u3130:
  5332     076C                     l2376:
  5333     076C  3001               	movlw	1
  5334     076D  07C9               	addwf	___flmul@prod,f
  5335     076E  3000               	movlw	0
  5336     076F  1803               	skipnc
  5337     0770  3001               	movlw	1
  5338     0771  07CA               	addwf	___flmul@prod+1,f
  5339     0772  3000               	movlw	0
  5340     0773  1803               	skipnc
  5341     0774  3001               	movlw	1
  5342     0775  07CB               	addwf	___flmul@prod+2,f
  5343     0776  3000               	movlw	0
  5344     0777  1803               	skipnc
  5345     0778  3001               	movlw	1
  5346     0779  07CC               	addwf	___flmul@prod+3,f
  5347     077A                     l2378:
  5348     077A  1C4C               	btfss	___flmul@prod+3,0
  5349     077B  2F7D               	goto	u3141
  5350     077C  2F7E               	goto	u3140
  5351     077D                     u3141:
  5352     077D  2F9D               	goto	l2384
  5353     077E                     u3140:
  5354     077E                     l2380:
  5355     077E  0849               	movf	___flmul@prod,w
  5356     077F  00BD               	movwf	??___flmul
  5357     0780  084A               	movf	___flmul@prod+1,w
  5358     0781  00BE               	movwf	??___flmul+1
  5359     0782  084B               	movf	___flmul@prod+2,w
  5360     0783  00BF               	movwf	??___flmul+2
  5361     0784  084C               	movf	___flmul@prod+3,w
  5362     0785  00C0               	movwf	??___flmul+3
  5363     0786  3001               	movlw	1
  5364     0787  00C1               	movwf	??___flmul+4
  5365     0788                     u3155:
  5366     0788  0D40               	rlf	??___flmul+3,w
  5367     0789  0CC0               	rrf	??___flmul+3,f
  5368     078A  0CBF               	rrf	??___flmul+2,f
  5369     078B  0CBE               	rrf	??___flmul+1,f
  5370     078C  0CBD               	rrf	??___flmul,f
  5371     078D                     u3150:
  5372     078D  0BC1               	decfsz	??___flmul+4,f
  5373     078E  2F88               	goto	u3155
  5374     078F  0840               	movf	??___flmul+3,w
  5375     0790  00CC               	movwf	___flmul@prod+3
  5376     0791  083F               	movf	??___flmul+2,w
  5377     0792  00CB               	movwf	___flmul@prod+2
  5378     0793  083E               	movf	??___flmul+1,w
  5379     0794  00CA               	movwf	___flmul@prod+1
  5380     0795  083D               	movf	??___flmul,w
  5381     0796  00C9               	movwf	___flmul@prod
  5382     0797                     l2382:
  5383     0797  3001               	movlw	1
  5384     0798  07CD               	addwf	___flmul@temp,f
  5385     0799  1803               	skipnc
  5386     079A  0ACE               	incf	___flmul@temp+1,f
  5387     079B  3000               	movlw	0
  5388     079C  07CE               	addwf	___flmul@temp+1,f
  5389     079D                     l2384:
  5390     079D  084E               	movf	___flmul@temp+1,w
  5391     079E  3A80               	xorlw	128
  5392     079F  00FF               	movwf	btemp+1
  5393     07A0  3080               	movlw	128
  5394     07A1  027F               	subwf	btemp+1,w
  5395     07A2  1D03               	skipz
  5396     07A3  2FA6               	goto	u3165
  5397     07A4  30FF               	movlw	255
  5398     07A5  024D               	subwf	___flmul@temp,w
  5399     07A6                     u3165:
  5400     07A6  1C03               	skipc
  5401     07A7  2FA9               	goto	u3161
  5402     07A8  2FAA               	goto	u3160
  5403     07A9                     u3161:
  5404     07A9  2FB5               	goto	l2388
  5405     07AA                     u3160:
  5406     07AA                     l2386:
  5407     07AA  307F               	movlw	127
  5408     07AB  1283               	bcf	3,5	;RP0=0, select bank0
  5409     07AC  1303               	bcf	3,6	;RP1=0, select bank0
  5410     07AD  00CC               	movwf	___flmul@prod+3
  5411     07AE  3080               	movlw	128
  5412     07AF  00CB               	movwf	___flmul@prod+2
  5413     07B0  3000               	movlw	0
  5414     07B1  00CA               	movwf	___flmul@prod+1
  5415     07B2  3000               	movlw	0
  5416     07B3  00C9               	movwf	___flmul@prod
  5417     07B4  2FE6               	goto	l2402
  5418     07B5                     l2388:
  5419     07B5  1283               	bcf	3,5	;RP0=0, select bank0
  5420     07B6  1303               	bcf	3,6	;RP1=0, select bank0
  5421     07B7  084E               	movf	___flmul@temp+1,w
  5422     07B8  3A80               	xorlw	128
  5423     07B9  00FF               	movwf	btemp+1
  5424     07BA  3080               	movlw	128
  5425     07BB  027F               	subwf	btemp+1,w
  5426     07BC  1D03               	skipz
  5427     07BD  2FC0               	goto	u3175
  5428     07BE  3001               	movlw	1
  5429     07BF  024D               	subwf	___flmul@temp,w
  5430     07C0                     u3175:
  5431     07C0  1803               	skipnc
  5432     07C1  2FC3               	goto	u3171
  5433     07C2  2FC4               	goto	u3170
  5434     07C3                     u3171:
  5435     07C3  2FD0               	goto	l2394
  5436     07C4                     u3170:
  5437     07C4                     l2390:
  5438     07C4  3000               	movlw	0
  5439     07C5  1283               	bcf	3,5	;RP0=0, select bank0
  5440     07C6  1303               	bcf	3,6	;RP1=0, select bank0
  5441     07C7  00CC               	movwf	___flmul@prod+3
  5442     07C8  3000               	movlw	0
  5443     07C9  00CB               	movwf	___flmul@prod+2
  5444     07CA  3000               	movlw	0
  5445     07CB  00CA               	movwf	___flmul@prod+1
  5446     07CC  3000               	movlw	0
  5447     07CD  00C9               	movwf	___flmul@prod
  5448     07CE                     l2392:
  5449     07CE  01C2               	clrf	___flmul@sign
  5450     07CF  2FE6               	goto	l2402
  5451     07D0                     l2394:
  5452     07D0  1283               	bcf	3,5	;RP0=0, select bank0
  5453     07D1  1303               	bcf	3,6	;RP1=0, select bank0
  5454     07D2  084D               	movf	___flmul@temp,w
  5455     07D3  00C8               	movwf	___flmul@bexp
  5456     07D4  30FF               	movlw	255
  5457     07D5  05C9               	andwf	___flmul@prod,f
  5458     07D6  30FF               	movlw	255
  5459     07D7  05CA               	andwf	___flmul@prod+1,f
  5460     07D8  307F               	movlw	127
  5461     07D9  05CB               	andwf	___flmul@prod+2,f
  5462     07DA  3000               	movlw	0
  5463     07DB  05CC               	andwf	___flmul@prod+3,f
  5464     07DC                     l2396:
  5465     07DC  1C48               	btfss	___flmul@bexp,0
  5466     07DD  2FDF               	goto	u3181
  5467     07DE  2FE0               	goto	u3180
  5468     07DF                     u3181:
  5469     07DF  2FE1               	goto	l2400
  5470     07E0                     u3180:
  5471     07E0                     l2398:
  5472     07E0  17CB               	bsf	___flmul@prod+2,7
  5473     07E1                     l2400:
  5474     07E1  0848               	movf	___flmul@bexp,w
  5475     07E2  00BD               	movwf	??___flmul
  5476     07E3  1003               	clrc
  5477     07E4  0C3D               	rrf	??___flmul,w
  5478     07E5  00CC               	movwf	___flmul@prod+3
  5479     07E6                     l2402:
  5480     07E6  0842               	movf	___flmul@sign,w
  5481     07E7  00FF               	movwf	btemp+1
  5482     07E8  087F               	movf	btemp+1,w
  5483     07E9  04CC               	iorwf	___flmul@prod+3,f
  5484     07EA                     l2404:
  5485     07EA  084C               	movf	___flmul@prod+3,w
  5486     07EB  00B8               	movwf	?___flmul+3
  5487     07EC  084B               	movf	___flmul@prod+2,w
  5488     07ED  00B7               	movwf	?___flmul+2
  5489     07EE  084A               	movf	___flmul@prod+1,w
  5490     07EF  00B6               	movwf	?___flmul+1
  5491     07F0  0849               	movf	___flmul@prod,w
  5492     07F1  00B5               	movwf	?___flmul
  5493     07F2                     l579:
  5494     07F2  0008               	return
  5495     07F3                     __end_of___flmul:
  5496                           
  5497                           	psect	text13
  5498     1772                     __ptext13:	
  5499 ;; *************** function __Umul8_16 *****************
  5500 ;; Defined at:
  5501 ;;		line 4 in file "C:\Program Files\Microchip\xc8\v2.41\pic\sources\c90\common\Umul8_16.c"
  5502 ;; Parameters:    Size  Location     Type
  5503 ;;  multiplier      1    wreg     unsigned char 
  5504 ;;  multiplicand    1    0[COMMON] unsigned char 
  5505 ;; Auto vars:     Size  Location     Type
  5506 ;;  multiplier      1    8[COMMON] unsigned char 
  5507 ;;  word_mpld       2    6[COMMON] unsigned int 
  5508 ;;  product         2    4[COMMON] unsigned int 
  5509 ;; Return value:  Size  Location     Type
  5510 ;;                  2    0[COMMON] unsigned int 
  5511 ;; Registers used:
  5512 ;;		wreg, status,2, status,0
  5513 ;; Tracked objects:
  5514 ;;		On entry : 0/0
  5515 ;;		On exit  : 0/0
  5516 ;;		Unchanged: 0/0
  5517 ;; Data sizes:     COMMON   BANK0   BANK1   BANK3   BANK2
  5518 ;;      Params:         2       0       0       0       0
  5519 ;;      Locals:         5       0       0       0       0
  5520 ;;      Temps:          2       0       0       0       0
  5521 ;;      Totals:         9       0       0       0       0
  5522 ;;Total ram usage:        9 bytes
  5523 ;; Hardware stack levels used: 1
  5524 ;; This function calls:
  5525 ;;		Nothing
  5526 ;; This function is called by:
  5527 ;;		___flmul
  5528 ;; This function uses a non-reentrant model
  5529 ;;
  5530                           
  5531     1772                     __Umul8_16:	
  5532                           ;psect for function __Umul8_16
  5533                           
  5534                           
  5535                           ;incstack = 0
  5536                           ; Regs used in __Umul8_16: [wreg+status,2+status,0]
  5537                           ;__Umul8_16@multiplier stored from wreg
  5538     1772  00F8               	movwf	__Umul8_16@multiplier
  5539     1773                     l1920:
  5540     1773  01F4               	clrf	__Umul8_16@product
  5541     1774  01F5               	clrf	__Umul8_16@product+1
  5542     1775                     l1922:
  5543     1775  0870               	movf	__Umul8_16@multiplicand,w
  5544     1776  00F2               	movwf	??__Umul8_16
  5545     1777  01F3               	clrf	??__Umul8_16+1
  5546     1778  0872               	movf	??__Umul8_16,w
  5547     1779  00F6               	movwf	__Umul8_16@word_mpld
  5548     177A  0873               	movf	??__Umul8_16+1,w
  5549     177B  00F7               	movwf	__Umul8_16@word_mpld+1
  5550     177C                     l1924:
  5551     177C  1C78               	btfss	__Umul8_16@multiplier,0
  5552     177D  2F7F               	goto	u2291
  5553     177E  2F80               	goto	u2290
  5554     177F                     u2291:
  5555     177F  2F86               	goto	l598
  5556     1780                     u2290:
  5557     1780                     l1926:
  5558     1780  0876               	movf	__Umul8_16@word_mpld,w
  5559     1781  07F4               	addwf	__Umul8_16@product,f
  5560     1782  1803               	skipnc
  5561     1783  0AF5               	incf	__Umul8_16@product+1,f
  5562     1784  0877               	movf	__Umul8_16@word_mpld+1,w
  5563     1785  07F5               	addwf	__Umul8_16@product+1,f
  5564     1786                     l598:
  5565     1786  3001               	movlw	1
  5566     1787                     u2305:
  5567     1787  1003               	clrc
  5568     1788  0DF6               	rlf	__Umul8_16@word_mpld,f
  5569     1789  0DF7               	rlf	__Umul8_16@word_mpld+1,f
  5570     178A  3EFF               	addlw	-1
  5571     178B  1D03               	skipz
  5572     178C  2F87               	goto	u2305
  5573     178D  1003               	clrc
  5574     178E  0CF8               	rrf	__Umul8_16@multiplier,f
  5575     178F                     l1928:
  5576     178F  0878               	movf	__Umul8_16@multiplier,w
  5577     1790  1D03               	btfss	3,2
  5578     1791  2F93               	goto	u2311
  5579     1792  2F94               	goto	u2310
  5580     1793                     u2311:
  5581     1793  2F7C               	goto	l1924
  5582     1794                     u2310:
  5583     1794                     l1930:
  5584     1794  0875               	movf	__Umul8_16@product+1,w
  5585     1795  00F1               	movwf	?__Umul8_16+1
  5586     1796  0874               	movf	__Umul8_16@product,w
  5587     1797  00F0               	movwf	?__Umul8_16
  5588     1798                     l600:
  5589     1798  0008               	return
  5590     1799                     __end_of__Umul8_16:
  5591                           
  5592                           	psect	text14
  5593     0997                     __ptext14:	
  5594 ;; *************** function ___fldiv *****************
  5595 ;; Defined at:
  5596 ;;		line 8 in file "C:\Program Files\Microchip\xc8\v2.41\pic\sources\c90\common\sprcdiv.c"
  5597 ;; Parameters:    Size  Location     Type
  5598 ;;  a               4   47[BANK0 ] unsigned int 
  5599 ;;  b               4   51[BANK0 ] unsigned int 
  5600 ;; Auto vars:     Size  Location     Type
  5601 ;;  grs             4   67[BANK0 ] unsigned long 
  5602 ;;  rem             4   60[BANK0 ] unsigned long 
  5603 ;;  new_exp         2   65[BANK0 ] int 
  5604 ;;  aexp            1   72[BANK0 ] unsigned char 
  5605 ;;  bexp            1   71[BANK0 ] unsigned char 
  5606 ;;  sign            1   64[BANK0 ] unsigned char 
  5607 ;; Return value:  Size  Location     Type
  5608 ;;                  4   47[BANK0 ] unsigned char 
  5609 ;; Registers used:
  5610 ;;		wreg, status,2, status,0, btemp+1
  5611 ;; Tracked objects:
  5612 ;;		On entry : 0/0
  5613 ;;		On exit  : 0/0
  5614 ;;		Unchanged: 0/0
  5615 ;; Data sizes:     COMMON   BANK0   BANK1   BANK3   BANK2
  5616 ;;      Params:         0       8       0       0       0
  5617 ;;      Locals:         0      13       0       0       0
  5618 ;;      Temps:          0       5       0       0       0
  5619 ;;      Totals:         0      26       0       0       0
  5620 ;;Total ram usage:       26 bytes
  5621 ;; Hardware stack levels used: 1
  5622 ;; This function calls:
  5623 ;;		Nothing
  5624 ;; This function is called by:
  5625 ;;		_float_LCD
  5626 ;;		_main
  5627 ;; This function uses a non-reentrant model
  5628 ;;
  5629                           
  5630     0997                     ___fldiv:	
  5631                           ;psect for function ___fldiv
  5632                           
  5633     0997                     l2120:	
  5634                           ;incstack = 0
  5635                           ; Regs used in ___fldiv: [wreg+status,2+status,0+btemp+1]
  5636                           
  5637     0997  1283               	bcf	3,5	;RP0=0, select bank0
  5638     0998  1303               	bcf	3,6	;RP1=0, select bank0
  5639     0999  0856               	movf	___fldiv@b+3,w
  5640     099A  3980               	andlw	128
  5641     099B  00E0               	movwf	___fldiv@sign
  5642     099C                     l2122:
  5643     099C  0856               	movf	___fldiv@b+3,w
  5644     099D  00D7               	movwf	??___fldiv
  5645     099E  0757               	addwf	??___fldiv,w
  5646     099F  00E7               	movwf	___fldiv@bexp
  5647     09A0                     l2124:
  5648     09A0  1FD5               	btfss	___fldiv@b+2,7
  5649     09A1  29A3               	goto	u2531
  5650     09A2  29A4               	goto	u2530
  5651     09A3                     u2531:
  5652     09A3  29A5               	goto	l2128
  5653     09A4                     u2530:
  5654     09A4                     l2126:
  5655     09A4  1467               	bsf	___fldiv@bexp,0
  5656     09A5                     l2128:
  5657     09A5  0867               	movf	___fldiv@bexp,w
  5658     09A6  1903               	btfsc	3,2
  5659     09A7  29A9               	goto	u2541
  5660     09A8  29AA               	goto	u2540
  5661     09A9                     u2541:
  5662     09A9  29BA               	goto	l2138
  5663     09AA                     u2540:
  5664     09AA                     l2130:
  5665     09AA  0A67               	incf	___fldiv@bexp,w
  5666     09AB  1D03               	btfss	3,2
  5667     09AC  29AE               	goto	u2551
  5668     09AD  29AF               	goto	u2550
  5669     09AE                     u2551:
  5670     09AE  29B7               	goto	l2134
  5671     09AF                     u2550:
  5672     09AF                     l2132:
  5673     09AF  3000               	movlw	0
  5674     09B0  00D6               	movwf	___fldiv@b+3
  5675     09B1  3000               	movlw	0
  5676     09B2  00D5               	movwf	___fldiv@b+2
  5677     09B3  3000               	movlw	0
  5678     09B4  00D4               	movwf	___fldiv@b+1
  5679     09B5  3000               	movlw	0
  5680     09B6  00D3               	movwf	___fldiv@b
  5681     09B7                     l2134:
  5682     09B7  17D5               	bsf	___fldiv@b+2,7
  5683     09B8                     l2136:
  5684     09B8  01D6               	clrf	___fldiv@b+3
  5685     09B9  29C2               	goto	l2140
  5686     09BA                     l2138:
  5687     09BA  3000               	movlw	0
  5688     09BB  00D6               	movwf	___fldiv@b+3
  5689     09BC  3000               	movlw	0
  5690     09BD  00D5               	movwf	___fldiv@b+2
  5691     09BE  3000               	movlw	0
  5692     09BF  00D4               	movwf	___fldiv@b+1
  5693     09C0  3000               	movlw	0
  5694     09C1  00D3               	movwf	___fldiv@b
  5695     09C2                     l2140:
  5696     09C2  0852               	movf	___fldiv@a+3,w
  5697     09C3  3980               	andlw	128
  5698     09C4  00FF               	movwf	btemp+1
  5699     09C5  087F               	movf	btemp+1,w
  5700     09C6  06E0               	xorwf	___fldiv@sign,f
  5701     09C7                     l2142:
  5702     09C7  0852               	movf	___fldiv@a+3,w
  5703     09C8  00D7               	movwf	??___fldiv
  5704     09C9  0757               	addwf	??___fldiv,w
  5705     09CA  00E8               	movwf	___fldiv@aexp
  5706     09CB                     l2144:
  5707     09CB  1FD1               	btfss	___fldiv@a+2,7
  5708     09CC  29CE               	goto	u2561
  5709     09CD  29CF               	goto	u2560
  5710     09CE                     u2561:
  5711     09CE  29D0               	goto	l2148
  5712     09CF                     u2560:
  5713     09CF                     l2146:
  5714     09CF  1468               	bsf	___fldiv@aexp,0
  5715     09D0                     l2148:
  5716     09D0  0868               	movf	___fldiv@aexp,w
  5717     09D1  1903               	btfsc	3,2
  5718     09D2  29D4               	goto	u2571
  5719     09D3  29D5               	goto	u2570
  5720     09D4                     u2571:
  5721     09D4  29E5               	goto	l2158
  5722     09D5                     u2570:
  5723     09D5                     l2150:
  5724     09D5  0A68               	incf	___fldiv@aexp,w
  5725     09D6  1D03               	btfss	3,2
  5726     09D7  29D9               	goto	u2581
  5727     09D8  29DA               	goto	u2580
  5728     09D9                     u2581:
  5729     09D9  29E2               	goto	l2154
  5730     09DA                     u2580:
  5731     09DA                     l2152:
  5732     09DA  3000               	movlw	0
  5733     09DB  00D2               	movwf	___fldiv@a+3
  5734     09DC  3000               	movlw	0
  5735     09DD  00D1               	movwf	___fldiv@a+2
  5736     09DE  3000               	movlw	0
  5737     09DF  00D0               	movwf	___fldiv@a+1
  5738     09E0  3000               	movlw	0
  5739     09E1  00CF               	movwf	___fldiv@a
  5740     09E2                     l2154:
  5741     09E2  17D1               	bsf	___fldiv@a+2,7
  5742     09E3                     l2156:
  5743     09E3  01D2               	clrf	___fldiv@a+3
  5744     09E4  29ED               	goto	l539
  5745     09E5                     l2158:
  5746     09E5  3000               	movlw	0
  5747     09E6  00D2               	movwf	___fldiv@a+3
  5748     09E7  3000               	movlw	0
  5749     09E8  00D1               	movwf	___fldiv@a+2
  5750     09E9  3000               	movlw	0
  5751     09EA  00D0               	movwf	___fldiv@a+1
  5752     09EB  3000               	movlw	0
  5753     09EC  00CF               	movwf	___fldiv@a
  5754     09ED                     l539:
  5755     09ED  0852               	movf	___fldiv@a+3,w
  5756     09EE  0451               	iorwf	___fldiv@a+2,w
  5757     09EF  0450               	iorwf	___fldiv@a+1,w
  5758     09F0  044F               	iorwf	___fldiv@a,w
  5759     09F1  1D03               	skipz
  5760     09F2  29F4               	goto	u2591
  5761     09F3  29F5               	goto	u2590
  5762     09F4                     u2591:
  5763     09F4  2A0E               	goto	l2168
  5764     09F5                     u2590:
  5765     09F5                     l2160:
  5766     09F5  3000               	movlw	0
  5767     09F6  00D6               	movwf	___fldiv@b+3
  5768     09F7  3000               	movlw	0
  5769     09F8  00D5               	movwf	___fldiv@b+2
  5770     09F9  3000               	movlw	0
  5771     09FA  00D4               	movwf	___fldiv@b+1
  5772     09FB  3000               	movlw	0
  5773     09FC  00D3               	movwf	___fldiv@b
  5774     09FD  3080               	movlw	128
  5775     09FE  04D5               	iorwf	___fldiv@b+2,f
  5776     09FF  307F               	movlw	127
  5777     0A00  04D6               	iorwf	___fldiv@b+3,f
  5778     0A01                     l2162:
  5779     0A01  0860               	movf	___fldiv@sign,w
  5780     0A02  00FF               	movwf	btemp+1
  5781     0A03  087F               	movf	btemp+1,w
  5782     0A04  04D6               	iorwf	___fldiv@b+3,f
  5783     0A05                     l2164:
  5784     0A05  0856               	movf	___fldiv@b+3,w
  5785     0A06  00D2               	movwf	?___fldiv+3
  5786     0A07  0855               	movf	___fldiv@b+2,w
  5787     0A08  00D1               	movwf	?___fldiv+2
  5788     0A09  0854               	movf	___fldiv@b+1,w
  5789     0A0A  00D0               	movwf	?___fldiv+1
  5790     0A0B  0853               	movf	___fldiv@b,w
  5791     0A0C  00CF               	movwf	?___fldiv
  5792     0A0D  2B65               	goto	l541
  5793     0A0E                     l2168:
  5794     0A0E  0867               	movf	___fldiv@bexp,w
  5795     0A0F  1D03               	btfss	3,2
  5796     0A10  2A12               	goto	u2601
  5797     0A11  2A13               	goto	u2600
  5798     0A12                     u2601:
  5799     0A12  2A1C               	goto	l2174
  5800     0A13                     u2600:
  5801     0A13                     l2170:
  5802     0A13  3000               	movlw	0
  5803     0A14  00D2               	movwf	?___fldiv+3
  5804     0A15  3000               	movlw	0
  5805     0A16  00D1               	movwf	?___fldiv+2
  5806     0A17  3000               	movlw	0
  5807     0A18  00D0               	movwf	?___fldiv+1
  5808     0A19  3000               	movlw	0
  5809     0A1A  00CF               	movwf	?___fldiv
  5810     0A1B  2B65               	goto	l541
  5811     0A1C                     l2174:
  5812     0A1C  0867               	movf	___fldiv@bexp,w
  5813     0A1D  00D7               	movwf	??___fldiv
  5814     0A1E  01D8               	clrf	??___fldiv+1
  5815     0A1F  0858               	movf	??___fldiv+1,w
  5816     0A20  00DA               	movwf	??___fldiv+3
  5817     0A21  0868               	movf	___fldiv@aexp,w
  5818     0A22  0257               	subwf	??___fldiv,w
  5819     0A23  00D9               	movwf	??___fldiv+2
  5820     0A24  1C03               	skipc
  5821     0A25  03DA               	decf	??___fldiv+3,f
  5822     0A26  0859               	movf	??___fldiv+2,w
  5823     0A27  3E7F               	addlw	127
  5824     0A28  00E1               	movwf	___fldiv@new_exp
  5825     0A29  085A               	movf	??___fldiv+3,w
  5826     0A2A  1803               	skipnc
  5827     0A2B  3E01               	addlw	1
  5828     0A2C  3E00               	addlw	0
  5829     0A2D  00E2               	movwf	___fldiv@new_exp+1
  5830     0A2E                     l2176:
  5831     0A2E  0856               	movf	___fldiv@b+3,w
  5832     0A2F  00DF               	movwf	___fldiv@rem+3
  5833     0A30  0855               	movf	___fldiv@b+2,w
  5834     0A31  00DE               	movwf	___fldiv@rem+2
  5835     0A32  0854               	movf	___fldiv@b+1,w
  5836     0A33  00DD               	movwf	___fldiv@rem+1
  5837     0A34  0853               	movf	___fldiv@b,w
  5838     0A35  00DC               	movwf	___fldiv@rem
  5839     0A36                     l2178:
  5840     0A36  3000               	movlw	0
  5841     0A37  00D6               	movwf	___fldiv@b+3
  5842     0A38  3000               	movlw	0
  5843     0A39  00D5               	movwf	___fldiv@b+2
  5844     0A3A  3000               	movlw	0
  5845     0A3B  00D4               	movwf	___fldiv@b+1
  5846     0A3C  3000               	movlw	0
  5847     0A3D  00D3               	movwf	___fldiv@b
  5848     0A3E                     l2180:
  5849     0A3E  3000               	movlw	0
  5850     0A3F  00E6               	movwf	___fldiv@grs+3
  5851     0A40  3000               	movlw	0
  5852     0A41  00E5               	movwf	___fldiv@grs+2
  5853     0A42  3000               	movlw	0
  5854     0A43  00E4               	movwf	___fldiv@grs+1
  5855     0A44  3000               	movlw	0
  5856     0A45  00E3               	movwf	___fldiv@grs
  5857     0A46                     l2182:
  5858     0A46  01E8               	clrf	___fldiv@aexp
  5859     0A47  2A92               	goto	l2202
  5860     0A48                     l2184:
  5861     0A48  0868               	movf	___fldiv@aexp,w
  5862     0A49  1903               	btfsc	3,2
  5863     0A4A  2A4C               	goto	u2611
  5864     0A4B  2A4D               	goto	u2610
  5865     0A4C                     u2611:
  5866     0A4C  2A6D               	goto	l2194
  5867     0A4D                     u2610:
  5868     0A4D                     l2186:
  5869     0A4D  3001               	movlw	1
  5870     0A4E  00D7               	movwf	??___fldiv
  5871     0A4F                     u2625:
  5872     0A4F  1003               	clrc
  5873     0A50  0DDC               	rlf	___fldiv@rem,f
  5874     0A51  0DDD               	rlf	___fldiv@rem+1,f
  5875     0A52  0DDE               	rlf	___fldiv@rem+2,f
  5876     0A53  0DDF               	rlf	___fldiv@rem+3,f
  5877     0A54  0BD7               	decfsz	??___fldiv,f
  5878     0A55  2A4F               	goto	u2625
  5879     0A56  3001               	movlw	1
  5880     0A57  00D7               	movwf	??___fldiv
  5881     0A58                     u2635:
  5882     0A58  1003               	clrc
  5883     0A59  0DD3               	rlf	___fldiv@b,f
  5884     0A5A  0DD4               	rlf	___fldiv@b+1,f
  5885     0A5B  0DD5               	rlf	___fldiv@b+2,f
  5886     0A5C  0DD6               	rlf	___fldiv@b+3,f
  5887     0A5D  0BD7               	decfsz	??___fldiv,f
  5888     0A5E  2A58               	goto	u2635
  5889     0A5F                     l2188:
  5890     0A5F  1FE6               	btfss	___fldiv@grs+3,7
  5891     0A60  2A62               	goto	u2641
  5892     0A61  2A63               	goto	u2640
  5893     0A62                     u2641:
  5894     0A62  2A64               	goto	l2192
  5895     0A63                     u2640:
  5896     0A63                     l2190:
  5897     0A63  1453               	bsf	___fldiv@b,0
  5898     0A64                     l2192:
  5899     0A64  3001               	movlw	1
  5900     0A65  00D7               	movwf	??___fldiv
  5901     0A66                     u2655:
  5902     0A66  1003               	clrc
  5903     0A67  0DE3               	rlf	___fldiv@grs,f
  5904     0A68  0DE4               	rlf	___fldiv@grs+1,f
  5905     0A69  0DE5               	rlf	___fldiv@grs+2,f
  5906     0A6A  0DE6               	rlf	___fldiv@grs+3,f
  5907     0A6B  0BD7               	decfsz	??___fldiv,f
  5908     0A6C  2A66               	goto	u2655
  5909     0A6D                     l2194:
  5910     0A6D  0852               	movf	___fldiv@a+3,w
  5911     0A6E  025F               	subwf	___fldiv@rem+3,w
  5912     0A6F  1D03               	skipz
  5913     0A70  2A7B               	goto	u2665
  5914     0A71  0851               	movf	___fldiv@a+2,w
  5915     0A72  025E               	subwf	___fldiv@rem+2,w
  5916     0A73  1D03               	skipz
  5917     0A74  2A7B               	goto	u2665
  5918     0A75  0850               	movf	___fldiv@a+1,w
  5919     0A76  025D               	subwf	___fldiv@rem+1,w
  5920     0A77  1D03               	skipz
  5921     0A78  2A7B               	goto	u2665
  5922     0A79  084F               	movf	___fldiv@a,w
  5923     0A7A  025C               	subwf	___fldiv@rem,w
  5924     0A7B                     u2665:
  5925     0A7B  1C03               	skipc
  5926     0A7C  2A7E               	goto	u2661
  5927     0A7D  2A7F               	goto	u2660
  5928     0A7E                     u2661:
  5929     0A7E  2A8E               	goto	l2200
  5930     0A7F                     u2660:
  5931     0A7F                     l2196:
  5932     0A7F  1766               	bsf	___fldiv@grs+3,6
  5933     0A80                     l2198:
  5934     0A80  084F               	movf	___fldiv@a,w
  5935     0A81  02DC               	subwf	___fldiv@rem,f
  5936     0A82  0850               	movf	___fldiv@a+1,w
  5937     0A83  1C03               	skipc
  5938     0A84  0F50               	incfsz	___fldiv@a+1,w
  5939     0A85  02DD               	subwf	___fldiv@rem+1,f
  5940     0A86  0851               	movf	___fldiv@a+2,w
  5941     0A87  1C03               	skipc
  5942     0A88  0F51               	incfsz	___fldiv@a+2,w
  5943     0A89  02DE               	subwf	___fldiv@rem+2,f
  5944     0A8A  0852               	movf	___fldiv@a+3,w
  5945     0A8B  1C03               	skipc
  5946     0A8C  0F52               	incfsz	___fldiv@a+3,w
  5947     0A8D  02DF               	subwf	___fldiv@rem+3,f
  5948     0A8E                     l2200:
  5949     0A8E  3001               	movlw	1
  5950     0A8F  00FF               	movwf	btemp+1
  5951     0A90  087F               	movf	btemp+1,w
  5952     0A91  07E8               	addwf	___fldiv@aexp,f
  5953     0A92                     l2202:
  5954     0A92  301A               	movlw	26
  5955     0A93  0268               	subwf	___fldiv@aexp,w
  5956     0A94  1C03               	skipc
  5957     0A95  2A97               	goto	u2671
  5958     0A96  2A98               	goto	u2670
  5959     0A97                     u2671:
  5960     0A97  2A48               	goto	l2184
  5961     0A98                     u2670:
  5962     0A98                     l2204:
  5963     0A98  085F               	movf	___fldiv@rem+3,w
  5964     0A99  045E               	iorwf	___fldiv@rem+2,w
  5965     0A9A  045D               	iorwf	___fldiv@rem+1,w
  5966     0A9B  045C               	iorwf	___fldiv@rem,w
  5967     0A9C  1903               	skipnz
  5968     0A9D  2A9F               	goto	u2681
  5969     0A9E  2AA0               	goto	u2680
  5970     0A9F                     u2681:
  5971     0A9F  2ABF               	goto	l2218
  5972     0AA0                     u2680:
  5973     0AA0                     l2206:
  5974     0AA0  1463               	bsf	___fldiv@grs,0
  5975     0AA1  2ABF               	goto	l2218
  5976     0AA2                     l2208:
  5977     0AA2  3001               	movlw	1
  5978     0AA3  00D7               	movwf	??___fldiv
  5979     0AA4                     u2695:
  5980     0AA4  1003               	clrc
  5981     0AA5  0DD3               	rlf	___fldiv@b,f
  5982     0AA6  0DD4               	rlf	___fldiv@b+1,f
  5983     0AA7  0DD5               	rlf	___fldiv@b+2,f
  5984     0AA8  0DD6               	rlf	___fldiv@b+3,f
  5985     0AA9  0BD7               	decfsz	??___fldiv,f
  5986     0AAA  2AA4               	goto	u2695
  5987     0AAB                     l2210:
  5988     0AAB  1FE6               	btfss	___fldiv@grs+3,7
  5989     0AAC  2AAE               	goto	u2701
  5990     0AAD  2AAF               	goto	u2700
  5991     0AAE                     u2701:
  5992     0AAE  2AB0               	goto	l2214
  5993     0AAF                     u2700:
  5994     0AAF                     l2212:
  5995     0AAF  1453               	bsf	___fldiv@b,0
  5996     0AB0                     l2214:
  5997     0AB0  3001               	movlw	1
  5998     0AB1  00D7               	movwf	??___fldiv
  5999     0AB2                     u2715:
  6000     0AB2  1003               	clrc
  6001     0AB3  0DE3               	rlf	___fldiv@grs,f
  6002     0AB4  0DE4               	rlf	___fldiv@grs+1,f
  6003     0AB5  0DE5               	rlf	___fldiv@grs+2,f
  6004     0AB6  0DE6               	rlf	___fldiv@grs+3,f
  6005     0AB7  0BD7               	decfsz	??___fldiv,f
  6006     0AB8  2AB2               	goto	u2715
  6007     0AB9                     l2216:
  6008     0AB9  30FF               	movlw	255
  6009     0ABA  07E1               	addwf	___fldiv@new_exp,f
  6010     0ABB  1803               	skipnc
  6011     0ABC  0AE2               	incf	___fldiv@new_exp+1,f
  6012     0ABD  30FF               	movlw	255
  6013     0ABE  07E2               	addwf	___fldiv@new_exp+1,f
  6014     0ABF                     l2218:
  6015     0ABF  1FD5               	btfss	___fldiv@b+2,7
  6016     0AC0  2AC2               	goto	u2721
  6017     0AC1  2AC3               	goto	u2720
  6018     0AC2                     u2721:
  6019     0AC2  2AA2               	goto	l2208
  6020     0AC3                     u2720:
  6021     0AC3                     l2220:
  6022     0AC3  01E8               	clrf	___fldiv@aexp
  6023     0AC4                     l2222:
  6024     0AC4  1FE6               	btfss	___fldiv@grs+3,7
  6025     0AC5  2AC7               	goto	u2731
  6026     0AC6  2AC8               	goto	u2730
  6027     0AC7                     u2731:
  6028     0AC7  2AE4               	goto	l2230
  6029     0AC8                     u2730:
  6030     0AC8                     l2224:
  6031     0AC8  30FF               	movlw	255
  6032     0AC9  0563               	andwf	___fldiv@grs,w
  6033     0ACA  00D7               	movwf	??___fldiv
  6034     0ACB  30FF               	movlw	255
  6035     0ACC  0564               	andwf	___fldiv@grs+1,w
  6036     0ACD  00D8               	movwf	??___fldiv+1
  6037     0ACE  30FF               	movlw	255
  6038     0ACF  0565               	andwf	___fldiv@grs+2,w
  6039     0AD0  00D9               	movwf	??___fldiv+2
  6040     0AD1  307F               	movlw	127
  6041     0AD2  0566               	andwf	___fldiv@grs+3,w
  6042     0AD3  00DA               	movwf	??___fldiv+3
  6043     0AD4  085A               	movf	??___fldiv+3,w
  6044     0AD5  0459               	iorwf	??___fldiv+2,w
  6045     0AD6  0458               	iorwf	??___fldiv+1,w
  6046     0AD7  0457               	iorwf	??___fldiv,w
  6047     0AD8  1903               	skipnz
  6048     0AD9  2ADB               	goto	u2741
  6049     0ADA  2ADC               	goto	u2740
  6050     0ADB                     u2741:
  6051     0ADB  2ADF               	goto	l555
  6052     0ADC                     u2740:
  6053     0ADC                     l2226:
  6054     0ADC  01E8               	clrf	___fldiv@aexp
  6055     0ADD  0AE8               	incf	___fldiv@aexp,f
  6056     0ADE  2AE4               	goto	l2230
  6057     0ADF                     l555:
  6058     0ADF  1C53               	btfss	___fldiv@b,0
  6059     0AE0  2AE2               	goto	u2751
  6060     0AE1  2AE3               	goto	u2750
  6061     0AE2                     u2751:
  6062     0AE2  2AE4               	goto	l2230
  6063     0AE3                     u2750:
  6064     0AE3  2ADC               	goto	l2226
  6065     0AE4                     l2230:
  6066     0AE4  0868               	movf	___fldiv@aexp,w
  6067     0AE5  1903               	btfsc	3,2
  6068     0AE6  2AE8               	goto	u2761
  6069     0AE7  2AE9               	goto	u2760
  6070     0AE8                     u2761:
  6071     0AE8  2B1A               	goto	l2240
  6072     0AE9                     u2760:
  6073     0AE9                     l2232:
  6074     0AE9  3001               	movlw	1
  6075     0AEA  07D3               	addwf	___fldiv@b,f
  6076     0AEB  3000               	movlw	0
  6077     0AEC  1803               	skipnc
  6078     0AED  3001               	movlw	1
  6079     0AEE  07D4               	addwf	___fldiv@b+1,f
  6080     0AEF  3000               	movlw	0
  6081     0AF0  1803               	skipnc
  6082     0AF1  3001               	movlw	1
  6083     0AF2  07D5               	addwf	___fldiv@b+2,f
  6084     0AF3  3000               	movlw	0
  6085     0AF4  1803               	skipnc
  6086     0AF5  3001               	movlw	1
  6087     0AF6  07D6               	addwf	___fldiv@b+3,f
  6088     0AF7                     l2234:
  6089     0AF7  1C56               	btfss	___fldiv@b+3,0
  6090     0AF8  2AFA               	goto	u2771
  6091     0AF9  2AFB               	goto	u2770
  6092     0AFA                     u2771:
  6093     0AFA  2B1A               	goto	l2240
  6094     0AFB                     u2770:
  6095     0AFB                     l2236:
  6096     0AFB  0853               	movf	___fldiv@b,w
  6097     0AFC  00D7               	movwf	??___fldiv
  6098     0AFD  0854               	movf	___fldiv@b+1,w
  6099     0AFE  00D8               	movwf	??___fldiv+1
  6100     0AFF  0855               	movf	___fldiv@b+2,w
  6101     0B00  00D9               	movwf	??___fldiv+2
  6102     0B01  0856               	movf	___fldiv@b+3,w
  6103     0B02  00DA               	movwf	??___fldiv+3
  6104     0B03  3001               	movlw	1
  6105     0B04  00DB               	movwf	??___fldiv+4
  6106     0B05                     u2785:
  6107     0B05  0D5A               	rlf	??___fldiv+3,w
  6108     0B06  0CDA               	rrf	??___fldiv+3,f
  6109     0B07  0CD9               	rrf	??___fldiv+2,f
  6110     0B08  0CD8               	rrf	??___fldiv+1,f
  6111     0B09  0CD7               	rrf	??___fldiv,f
  6112     0B0A                     u2780:
  6113     0B0A  0BDB               	decfsz	??___fldiv+4,f
  6114     0B0B  2B05               	goto	u2785
  6115     0B0C  085A               	movf	??___fldiv+3,w
  6116     0B0D  00D6               	movwf	___fldiv@b+3
  6117     0B0E  0859               	movf	??___fldiv+2,w
  6118     0B0F  00D5               	movwf	___fldiv@b+2
  6119     0B10  0858               	movf	??___fldiv+1,w
  6120     0B11  00D4               	movwf	___fldiv@b+1
  6121     0B12  0857               	movf	??___fldiv,w
  6122     0B13  00D3               	movwf	___fldiv@b
  6123     0B14                     l2238:
  6124     0B14  3001               	movlw	1
  6125     0B15  07E1               	addwf	___fldiv@new_exp,f
  6126     0B16  1803               	skipnc
  6127     0B17  0AE2               	incf	___fldiv@new_exp+1,f
  6128     0B18  3000               	movlw	0
  6129     0B19  07E2               	addwf	___fldiv@new_exp+1,f
  6130     0B1A                     l2240:
  6131     0B1A  0862               	movf	___fldiv@new_exp+1,w
  6132     0B1B  3A80               	xorlw	128
  6133     0B1C  00FF               	movwf	btemp+1
  6134     0B1D  3080               	movlw	128
  6135     0B1E  027F               	subwf	btemp+1,w
  6136     0B1F  1D03               	skipz
  6137     0B20  2B23               	goto	u2795
  6138     0B21  30FF               	movlw	255
  6139     0B22  0261               	subwf	___fldiv@new_exp,w
  6140     0B23                     u2795:
  6141     0B23  1C03               	skipc
  6142     0B24  2B26               	goto	u2791
  6143     0B25  2B27               	goto	u2790
  6144     0B26                     u2791:
  6145     0B26  2B35               	goto	l2244
  6146     0B27                     u2790:
  6147     0B27                     l2242:
  6148     0B27  30FF               	movlw	255
  6149     0B28  1283               	bcf	3,5	;RP0=0, select bank0
  6150     0B29  1303               	bcf	3,6	;RP1=0, select bank0
  6151     0B2A  00E1               	movwf	___fldiv@new_exp
  6152     0B2B  3000               	movlw	0
  6153     0B2C  00E2               	movwf	___fldiv@new_exp+1
  6154     0B2D  3000               	movlw	0
  6155     0B2E  00D6               	movwf	___fldiv@b+3
  6156     0B2F  3000               	movlw	0
  6157     0B30  00D5               	movwf	___fldiv@b+2
  6158     0B31  3000               	movlw	0
  6159     0B32  00D4               	movwf	___fldiv@b+1
  6160     0B33  3000               	movlw	0
  6161     0B34  00D3               	movwf	___fldiv@b
  6162     0B35                     l2244:
  6163     0B35  1283               	bcf	3,5	;RP0=0, select bank0
  6164     0B36  1303               	bcf	3,6	;RP1=0, select bank0
  6165     0B37  0862               	movf	___fldiv@new_exp+1,w
  6166     0B38  3A80               	xorlw	128
  6167     0B39  00FF               	movwf	btemp+1
  6168     0B3A  3080               	movlw	128
  6169     0B3B  027F               	subwf	btemp+1,w
  6170     0B3C  1D03               	skipz
  6171     0B3D  2B40               	goto	u2805
  6172     0B3E  3001               	movlw	1
  6173     0B3F  0261               	subwf	___fldiv@new_exp,w
  6174     0B40                     u2805:
  6175     0B40  1803               	skipnc
  6176     0B41  2B43               	goto	u2801
  6177     0B42  2B44               	goto	u2800
  6178     0B43                     u2801:
  6179     0B43  2B51               	goto	l561
  6180     0B44                     u2800:
  6181     0B44                     l2246:
  6182     0B44  1283               	bcf	3,5	;RP0=0, select bank0
  6183     0B45  1303               	bcf	3,6	;RP1=0, select bank0
  6184     0B46  01E1               	clrf	___fldiv@new_exp
  6185     0B47  01E2               	clrf	___fldiv@new_exp+1
  6186     0B48                     l2248:
  6187     0B48  3000               	movlw	0
  6188     0B49  00D6               	movwf	___fldiv@b+3
  6189     0B4A  3000               	movlw	0
  6190     0B4B  00D5               	movwf	___fldiv@b+2
  6191     0B4C  3000               	movlw	0
  6192     0B4D  00D4               	movwf	___fldiv@b+1
  6193     0B4E  3000               	movlw	0
  6194     0B4F  00D3               	movwf	___fldiv@b
  6195     0B50                     l2250:
  6196     0B50  01E0               	clrf	___fldiv@sign
  6197     0B51                     l561:
  6198     0B51  1283               	bcf	3,5	;RP0=0, select bank0
  6199     0B52  1303               	bcf	3,6	;RP1=0, select bank0
  6200     0B53  0861               	movf	___fldiv@new_exp,w
  6201     0B54  00E7               	movwf	___fldiv@bexp
  6202     0B55                     l2252:
  6203     0B55  1C67               	btfss	___fldiv@bexp,0
  6204     0B56  2B58               	goto	u2811
  6205     0B57  2B59               	goto	u2810
  6206     0B58                     u2811:
  6207     0B58  2B5B               	goto	l2256
  6208     0B59                     u2810:
  6209     0B59                     l2254:
  6210     0B59  17D5               	bsf	___fldiv@b+2,7
  6211     0B5A  2B5F               	goto	l2258
  6212     0B5B                     l2256:
  6213     0B5B  307F               	movlw	127
  6214     0B5C  00FF               	movwf	btemp+1
  6215     0B5D  087F               	movf	btemp+1,w
  6216     0B5E  05D5               	andwf	___fldiv@b+2,f
  6217     0B5F                     l2258:
  6218     0B5F  0867               	movf	___fldiv@bexp,w
  6219     0B60  00D7               	movwf	??___fldiv
  6220     0B61  1003               	clrc
  6221     0B62  0C57               	rrf	??___fldiv,w
  6222     0B63  00D6               	movwf	___fldiv@b+3
  6223     0B64  2A01               	goto	l2162
  6224     0B65                     l541:
  6225     0B65  0008               	return
  6226     0B66                     __end_of___fldiv:
  6227                           
  6228                           	psect	text15
  6229     1799                     __ptext15:	
  6230 ;; *************** function ___awdiv *****************
  6231 ;; Defined at:
  6232 ;;		line 5 in file "C:\Program Files\Microchip\xc8\v2.41\pic\sources\c90\common\awdiv.c"
  6233 ;; Parameters:    Size  Location     Type
  6234 ;;  divisor         2    0[COMMON] int 
  6235 ;;  dividend        2    2[COMMON] int 
  6236 ;; Auto vars:     Size  Location     Type
  6237 ;;  quotient        2    6[COMMON] int 
  6238 ;;  sign            1    5[COMMON] unsigned char 
  6239 ;;  counter         1    4[COMMON] unsigned char 
  6240 ;; Return value:  Size  Location     Type
  6241 ;;                  2    0[COMMON] int 
  6242 ;; Registers used:
  6243 ;;		wreg, status,2, status,0, btemp+1
  6244 ;; Tracked objects:
  6245 ;;		On entry : 0/0
  6246 ;;		On exit  : 0/0
  6247 ;;		Unchanged: 0/0
  6248 ;; Data sizes:     COMMON   BANK0   BANK1   BANK3   BANK2
  6249 ;;      Params:         4       0       0       0       0
  6250 ;;      Locals:         4       0       0       0       0
  6251 ;;      Temps:          0       0       0       0       0
  6252 ;;      Totals:         8       0       0       0       0
  6253 ;;Total ram usage:        8 bytes
  6254 ;; Hardware stack levels used: 1
  6255 ;; This function calls:
  6256 ;;		Nothing
  6257 ;; This function is called by:
  6258 ;;		_float_LCD
  6259 ;; This function uses a non-reentrant model
  6260 ;;
  6261                           
  6262     1799                     ___awdiv:	
  6263                           ;psect for function ___awdiv
  6264                           
  6265     1799                     l2032:	
  6266                           ;incstack = 0
  6267                           ; Regs used in ___awdiv: [wreg+status,2+status,0+btemp+1]
  6268                           
  6269     1799  01F5               	clrf	___awdiv@sign
  6270     179A                     l2034:
  6271     179A  1FF1               	btfss	___awdiv@divisor+1,7
  6272     179B  2F9D               	goto	u2331
  6273     179C  2F9E               	goto	u2330
  6274     179D                     u2331:
  6275     179D  2FA5               	goto	l2040
  6276     179E                     u2330:
  6277     179E                     l2036:
  6278     179E  09F0               	comf	___awdiv@divisor,f
  6279     179F  09F1               	comf	___awdiv@divisor+1,f
  6280     17A0  0AF0               	incf	___awdiv@divisor,f
  6281     17A1  1903               	skipnz
  6282     17A2  0AF1               	incf	___awdiv@divisor+1,f
  6283     17A3                     l2038:
  6284     17A3  01F5               	clrf	___awdiv@sign
  6285     17A4  0AF5               	incf	___awdiv@sign,f
  6286     17A5                     l2040:
  6287     17A5  1FF3               	btfss	___awdiv@dividend+1,7
  6288     17A6  2FA8               	goto	u2341
  6289     17A7  2FA9               	goto	u2340
  6290     17A8                     u2341:
  6291     17A8  2FB2               	goto	l2046
  6292     17A9                     u2340:
  6293     17A9                     l2042:
  6294     17A9  09F2               	comf	___awdiv@dividend,f
  6295     17AA  09F3               	comf	___awdiv@dividend+1,f
  6296     17AB  0AF2               	incf	___awdiv@dividend,f
  6297     17AC  1903               	skipnz
  6298     17AD  0AF3               	incf	___awdiv@dividend+1,f
  6299     17AE                     l2044:
  6300     17AE  3001               	movlw	1
  6301     17AF  00FF               	movwf	btemp+1
  6302     17B0  087F               	movf	btemp+1,w
  6303     17B1  06F5               	xorwf	___awdiv@sign,f
  6304     17B2                     l2046:
  6305     17B2  01F6               	clrf	___awdiv@quotient
  6306     17B3  01F7               	clrf	___awdiv@quotient+1
  6307     17B4                     l2048:
  6308     17B4  0870               	movf	___awdiv@divisor,w
  6309     17B5  0471               	iorwf	___awdiv@divisor+1,w
  6310     17B6  1903               	btfsc	3,2
  6311     17B7  2FB9               	goto	u2351
  6312     17B8  2FBA               	goto	u2350
  6313     17B9                     u2351:
  6314     17B9  2FF1               	goto	l2068
  6315     17BA                     u2350:
  6316     17BA                     l2050:
  6317     17BA  01F4               	clrf	___awdiv@counter
  6318     17BB  0AF4               	incf	___awdiv@counter,f
  6319     17BC  2FC8               	goto	l2056
  6320     17BD                     l2052:
  6321     17BD  3001               	movlw	1
  6322     17BE                     u2365:
  6323     17BE  1003               	clrc
  6324     17BF  0DF0               	rlf	___awdiv@divisor,f
  6325     17C0  0DF1               	rlf	___awdiv@divisor+1,f
  6326     17C1  3EFF               	addlw	-1
  6327     17C2  1D03               	skipz
  6328     17C3  2FBE               	goto	u2365
  6329     17C4                     l2054:
  6330     17C4  3001               	movlw	1
  6331     17C5  00FF               	movwf	btemp+1
  6332     17C6  087F               	movf	btemp+1,w
  6333     17C7  07F4               	addwf	___awdiv@counter,f
  6334     17C8                     l2056:
  6335     17C8  1FF1               	btfss	___awdiv@divisor+1,7
  6336     17C9  2FCB               	goto	u2371
  6337     17CA  2FCC               	goto	u2370
  6338     17CB                     u2371:
  6339     17CB  2FBD               	goto	l2052
  6340     17CC                     u2370:
  6341     17CC                     l2058:
  6342     17CC  3001               	movlw	1
  6343     17CD                     u2385:
  6344     17CD  1003               	clrc
  6345     17CE  0DF6               	rlf	___awdiv@quotient,f
  6346     17CF  0DF7               	rlf	___awdiv@quotient+1,f
  6347     17D0  3EFF               	addlw	-1
  6348     17D1  1D03               	skipz
  6349     17D2  2FCD               	goto	u2385
  6350     17D3  0871               	movf	___awdiv@divisor+1,w
  6351     17D4  0273               	subwf	___awdiv@dividend+1,w
  6352     17D5  1D03               	skipz
  6353     17D6  2FD9               	goto	u2395
  6354     17D7  0870               	movf	___awdiv@divisor,w
  6355     17D8  0272               	subwf	___awdiv@dividend,w
  6356     17D9                     u2395:
  6357     17D9  1C03               	skipc
  6358     17DA  2FDC               	goto	u2391
  6359     17DB  2FDD               	goto	u2390
  6360     17DC                     u2391:
  6361     17DC  2FE4               	goto	l2064
  6362     17DD                     u2390:
  6363     17DD                     l2060:
  6364     17DD  0870               	movf	___awdiv@divisor,w
  6365     17DE  02F2               	subwf	___awdiv@dividend,f
  6366     17DF  0871               	movf	___awdiv@divisor+1,w
  6367     17E0  1C03               	skipc
  6368     17E1  03F3               	decf	___awdiv@dividend+1,f
  6369     17E2  02F3               	subwf	___awdiv@dividend+1,f
  6370     17E3                     l2062:
  6371     17E3  1476               	bsf	___awdiv@quotient,0
  6372     17E4                     l2064:
  6373     17E4  3001               	movlw	1
  6374     17E5                     u2405:
  6375     17E5  1003               	clrc
  6376     17E6  0CF1               	rrf	___awdiv@divisor+1,f
  6377     17E7  0CF0               	rrf	___awdiv@divisor,f
  6378     17E8  3EFF               	addlw	-1
  6379     17E9  1D03               	skipz
  6380     17EA  2FE5               	goto	u2405
  6381     17EB                     l2066:
  6382     17EB  3001               	movlw	1
  6383     17EC  02F4               	subwf	___awdiv@counter,f
  6384     17ED  1D03               	btfss	3,2
  6385     17EE  2FF0               	goto	u2411
  6386     17EF  2FF1               	goto	u2410
  6387     17F0                     u2411:
  6388     17F0  2FCC               	goto	l2058
  6389     17F1                     u2410:
  6390     17F1                     l2068:
  6391     17F1  0875               	movf	___awdiv@sign,w
  6392     17F2  1903               	btfsc	3,2
  6393     17F3  2FF5               	goto	u2421
  6394     17F4  2FF6               	goto	u2420
  6395     17F5                     u2421:
  6396     17F5  2FFB               	goto	l2072
  6397     17F6                     u2420:
  6398     17F6                     l2070:
  6399     17F6  09F6               	comf	___awdiv@quotient,f
  6400     17F7  09F7               	comf	___awdiv@quotient+1,f
  6401     17F8  0AF6               	incf	___awdiv@quotient,f
  6402     17F9  1903               	skipnz
  6403     17FA  0AF7               	incf	___awdiv@quotient+1,f
  6404     17FB                     l2072:
  6405     17FB  0877               	movf	___awdiv@quotient+1,w
  6406     17FC  00F1               	movwf	?___awdiv+1
  6407     17FD  0876               	movf	___awdiv@quotient,w
  6408     17FE  00F0               	movwf	?___awdiv
  6409     17FF                     l343:
  6410     17FF  0008               	return
  6411     1800                     __end_of___awdiv:
  6412                           
  6413                           	psect	text16
  6414     0825                     __ptext16:	
  6415 ;; *************** function _ADC_Read *****************
  6416 ;; Defined at:
  6417 ;;		line 153 in file "main_scale.c"
  6418 ;; Parameters:    Size  Location     Type
  6419 ;;  adcChannel      2    2[COMMON] int 
  6420 ;; Auto vars:     Size  Location     Type
  6421 ;;		None
  6422 ;; Return value:  Size  Location     Type
  6423 ;;                  2    2[COMMON] int 
  6424 ;; Registers used:
  6425 ;;		wreg, status,2, status,0, btemp+1, pclath, cstack
  6426 ;; Tracked objects:
  6427 ;;		On entry : 0/0
  6428 ;;		On exit  : 0/0
  6429 ;;		Unchanged: 0/0
  6430 ;; Data sizes:     COMMON   BANK0   BANK1   BANK3   BANK2
  6431 ;;      Params:         2       0       0       0       0
  6432 ;;      Locals:         0       0       0       0       0
  6433 ;;      Temps:          0       0       0       0       0
  6434 ;;      Totals:         2       0       0       0       0
  6435 ;;Total ram usage:        2 bytes
  6436 ;; Hardware stack levels used: 1
  6437 ;; Hardware stack levels required when called: 1
  6438 ;; This function calls:
  6439 ;;		_delay
  6440 ;; This function is called by:
  6441 ;;		_main
  6442 ;; This function uses a non-reentrant model
  6443 ;;
  6444                           
  6445     0825                     _ADC_Read:	
  6446                           ;psect for function _ADC_Read
  6447                           
  6448     0825                     l2502:	
  6449                           ;incstack = 0
  6450                           ; Regs used in _ADC_Read: [wreg+status,2+status,0+btemp+1+pclath+cstack]
  6451                           
  6452                           
  6453                           ;main_scale.c: 153: int ADC_Read(int adcChannel);main_scale.c: 154:  {;main_scale.c: 155
      +                          :     ADCON0 = (1<<0) | (adcChannel<3);
  6454     0825  0873               	movf	ADC_Read@adcChannel+1,w
  6455     0826  3A80               	xorlw	128
  6456     0827  00FF               	movwf	btemp+1
  6457     0828  3080               	movlw	128
  6458     0829  027F               	subwf	btemp+1,w
  6459     082A  1D03               	skipz
  6460     082B  282E               	goto	u3375
  6461     082C  3003               	movlw	3
  6462     082D  0272               	subwf	ADC_Read@adcChannel,w
  6463     082E                     u3375:
  6464     082E  1C03               	skipc
  6465     082F  2831               	goto	u3371
  6466     0830  2833               	goto	u3370
  6467     0831                     u3371:
  6468     0831  3001               	movlw	1
  6469     0832  2834               	goto	u3380
  6470     0833                     u3370:
  6471     0833  3000               	movlw	0
  6472     0834                     u3380:
  6473     0834  3801               	iorlw	1
  6474     0835  1283               	bcf	3,5	;RP0=0, select bank0
  6475     0836  1303               	bcf	3,6	;RP1=0, select bank0
  6476     0837  009F               	movwf	31	;volatile
  6477     0838                     l2504:
  6478                           
  6479                           ;main_scale.c: 157:     delay(1000);
  6480     0838  30E8               	movlw	232
  6481     0839  00F0               	movwf	delay@cnt
  6482     083A  3003               	movlw	3
  6483     083B  00F1               	movwf	delay@cnt+1
  6484     083C  160A  118A  26FA  120A  158A  	fcall	_delay
  6485     0841                     l2506:
  6486                           
  6487                           ;main_scale.c: 159:     GO=1;
  6488     0841  1283               	bcf	3,5	;RP0=0, select bank0
  6489     0842  1303               	bcf	3,6	;RP1=0, select bank0
  6490     0843  151F               	bsf	31,2	;volatile
  6491     0844                     l90:	
  6492                           ;main_scale.c: 160:     while(GO_DONE==1);
  6493                           
  6494     0844  191F               	btfsc	31,2	;volatile
  6495     0845  2847               	goto	u3391
  6496     0846  2848               	goto	u3390
  6497     0847                     u3391:
  6498     0847  2844               	goto	l90
  6499     0848                     u3390:
  6500     0848                     l2508:
  6501                           
  6502                           ;main_scale.c: 163:     return((ADRESH<<8) + ADRESL);
  6503     0848  081E               	movf	30,w	;volatile
  6504     0849  00F3               	movwf	?_ADC_Read+1
  6505     084A  1683               	bsf	3,5	;RP0=1, select bank1
  6506     084B  1303               	bcf	3,6	;RP1=0, select bank1
  6507     084C  081E               	movf	30,w	;volatile
  6508     084D  00F2               	movwf	?_ADC_Read
  6509     084E                     l93:
  6510     084E  0008               	return
  6511     084F                     __end_of_ADC_Read:
  6512                           
  6513                           	psect	text17
  6514     16FA                     __ptext17:	
  6515 ;; *************** function _delay *****************
  6516 ;; Defined at:
  6517 ;;		line 107 in file "main_scale.c"
  6518 ;; Parameters:    Size  Location     Type
  6519 ;;  cnt             2    0[COMMON] int 
  6520 ;; Auto vars:     Size  Location     Type
  6521 ;;		None
  6522 ;; Return value:  Size  Location     Type
  6523 ;;                  1    wreg      void 
  6524 ;; Registers used:
  6525 ;;		wreg, status,2, status,0
  6526 ;; Tracked objects:
  6527 ;;		On entry : 0/0
  6528 ;;		On exit  : 0/0
  6529 ;;		Unchanged: 0/0
  6530 ;; Data sizes:     COMMON   BANK0   BANK1   BANK3   BANK2
  6531 ;;      Params:         2       0       0       0       0
  6532 ;;      Locals:         0       0       0       0       0
  6533 ;;      Temps:          0       0       0       0       0
  6534 ;;      Totals:         2       0       0       0       0
  6535 ;;Total ram usage:        2 bytes
  6536 ;; Hardware stack levels used: 1
  6537 ;; This function calls:
  6538 ;;		Nothing
  6539 ;; This function is called by:
  6540 ;;		_cmd
  6541 ;;		_dat
  6542 ;;		_ADC_Read
  6543 ;; This function uses a non-reentrant model
  6544 ;;
  6545                           
  6546     16FA                     _delay:	
  6547                           ;psect for function _delay
  6548                           
  6549     16FA                     l1716:	
  6550                           ;incstack = 0
  6551                           ; Regs used in _delay: [wreg+status,2+status,0]
  6552                           
  6553     16FA                     l1718:	
  6554                           ;main_scale.c: 107: void delay(int cnt);main_scale.c: 108: {;main_scale.c: 109:     whil
      +                          e(cnt--);
  6555                           
  6556     16FA  30FF               	movlw	255
  6557     16FB  07F0               	addwf	delay@cnt,f
  6558     16FC  1803               	skipnc
  6559     16FD  0AF1               	incf	delay@cnt+1,f
  6560     16FE  30FF               	movlw	255
  6561     16FF  07F1               	addwf	delay@cnt+1,f
  6562     1700  0A70               	incf	delay@cnt,w
  6563     1701  1D03               	skipz
  6564     1702  2F07               	goto	u1821
  6565     1703  0A71               	incf	delay@cnt+1,w
  6566     1704  1D03               	btfss	3,2
  6567     1705  2F07               	goto	u1821
  6568     1706  2F08               	goto	u1820
  6569     1707                     u1821:
  6570     1707  2EFA               	goto	l1718
  6571     1708                     u1820:
  6572     1708                     l69:
  6573     1708  0008               	return
  6574     1709                     __end_of_delay:
  6575                           
  6576                           	psect	text18
  6577     16EA                     __ptext18:	
  6578 ;; *************** function _ADC_Init *****************
  6579 ;; Defined at:
  6580 ;;		line 146 in file "main_scale.c"
  6581 ;; Parameters:    Size  Location     Type
  6582 ;;		None
  6583 ;; Auto vars:     Size  Location     Type
  6584 ;;		None
  6585 ;; Return value:  Size  Location     Type
  6586 ;;                  1    wreg      void 
  6587 ;; Registers used:
  6588 ;;		wreg, status,2
  6589 ;; Tracked objects:
  6590 ;;		On entry : 0/0
  6591 ;;		On exit  : 0/0
  6592 ;;		Unchanged: 0/0
  6593 ;; Data sizes:     COMMON   BANK0   BANK1   BANK3   BANK2
  6594 ;;      Params:         0       0       0       0       0
  6595 ;;      Locals:         0       0       0       0       0
  6596 ;;      Temps:          0       0       0       0       0
  6597 ;;      Totals:         0       0       0       0       0
  6598 ;;Total ram usage:        0 bytes
  6599 ;; Hardware stack levels used: 1
  6600 ;; This function calls:
  6601 ;;		Nothing
  6602 ;; This function is called by:
  6603 ;;		_main
  6604 ;; This function uses a non-reentrant model
  6605 ;;
  6606                           
  6607     16EA                     _ADC_Init:	
  6608                           ;psect for function _ADC_Init
  6609                           
  6610     16EA                     l2498:	
  6611                           ;incstack = 0
  6612                           ; Regs used in _ADC_Init: [wreg+status,2]
  6613                           
  6614                           
  6615                           ;main_scale.c: 148:    ADCON0=0x00;
  6616     16EA  1283               	bcf	3,5	;RP0=0, select bank0
  6617     16EB  1303               	bcf	3,6	;RP1=0, select bank0
  6618     16EC  019F               	clrf	31	;volatile
  6619     16ED                     l2500:
  6620                           
  6621                           ;main_scale.c: 149:    ADCON1=(1<<7);
  6622     16ED  3080               	movlw	128
  6623     16EE  1683               	bsf	3,5	;RP0=1, select bank1
  6624     16EF  1303               	bcf	3,6	;RP1=0, select bank1
  6625     16F0  009F               	movwf	31	;volatile
  6626     16F1                     l87:
  6627     16F1  0008               	return
  6628     16F2                     __end_of_ADC_Init:
  6629     007E                     btemp	set	126	;btemp
  6630     007E                     wtemp0	set	126
  6631                           
  6632                           	psect	config
  6633                           
  6634                           ;Config register CONFIG @ 0x2007
  6635                           ;	Oscillator Selection bits
  6636                           ;	FOSC = XT, XT oscillator
  6637                           ;	Watchdog Timer Enable bit
  6638                           ;	WDTE = OFF, WDT disabled
  6639                           ;	Power-up Timer Enable bit
  6640                           ;	PWRTE = ON, PWRT enabled
  6641                           ;	Brown-out Reset Enable bit
  6642                           ;	BOREN = OFF, BOR disabled
  6643                           ;	Low-Voltage (Single-Supply) In-Circuit Serial Programming Enable bit
  6644                           ;	LVP = OFF, RB3 is digital I/O, HV on MCLR must be used for programming
  6645                           ;	Data EEPROM Memory Code Protection bit
  6646                           ;	CPD = OFF, Data EEPROM code protection off
  6647                           ;	Flash Program Memory Write Enable bits
  6648                           ;	WRT = OFF, Write protection off; all program memory may be written to by EECON control
  6649                           ;	In-Circuit Debugger Mode bit
  6650                           ;	DEBUG = 0x1, unprogrammed default
  6651                           ;	Flash Program Memory Code Protection bit
  6652                           ;	CP = OFF, Code protection off
  6653     2007                     	org	8199
  6654     2007  3F31               	dw	16177

Data Sizes:
    Strings     13
    Constant    0
    Data        0
    BSS         17
    Persistent  0
    Stack       0

Auto Spaces:
    Space          Size  Autos    Used
    COMMON           14     14      14
    BANK0            80     80      80
    BANK1            80     59      76
    BANK3            96      0       0
    BANK2            96      0       0

Pointer List with Targets:

    show@s	PTR unsigned char  size(2) Largest target is 15
		 -> STR_3(CODE[8]), STR_2(CODE[8]), STR_1(CODE[5]), cadena(BANK1[15]), 


Critical Paths under _main in COMMON

    _main->___xxtofl
    _show->_dat
    _dat->_delay
    _lcd_init->_cmd
    _cmd->_delay
    _float_LCD->___xxtofl
    ___fltol->___xxtofl
    ___flsub->___xxtofl
    ___fladd->___xxtofl
    ___flmul->___xxtofl
    ___fldiv->___xxtofl
    _ADC_Read->_delay

Critical Paths under _main in BANK0

    _float_LCD->___fltol
    ___fltol->___fldiv
    ___flsub->___fladd
    ___fladd->___fldiv
    ___flmul->_sqrt
    ___fldiv->___flmul

Critical Paths under _main in BANK1

    _main->_float_LCD
    _float_LCD->___flsub
    ___flsub->___fladd

Critical Paths under _main in BANK3

    None.

Critical Paths under _main in BANK2

    None.

Call Graph Tables:

 ---------------------------------------------------------------------------------
 (Depth) Function   	        Calls       Base Space   Used Autos Params    Refs
 ---------------------------------------------------------------------------------
 (0) _main                                                29    29      0   20791
                                             79 BANK0      1     1      0
                                             35 BANK1     24    24      0
                           _ADC_Init
                           _ADC_Read
                            ___fladd
                            ___fldiv
                            ___flmul
                           ___xxtofl
                                _cmd
                          _float_LCD
                           _lcd_init
                               _show
                               _sqrt
 ---------------------------------------------------------------------------------
 (1) _sqrt                                                29    25      4     957
                                              0 COMMON     8     4      4
                                              0 BANK0     21    21      0
 ---------------------------------------------------------------------------------
 (1) _show                                                 2     0      2     697
                                              3 COMMON     2     0      2
                                _dat
 ---------------------------------------------------------------------------------
 (2) _dat                                                  1     1      0     272
                                              2 COMMON     1     1      0
                              _delay
 ---------------------------------------------------------------------------------
 (1) _lcd_init                                             0     0      0     272
                                _cmd
 ---------------------------------------------------------------------------------
 (2) _cmd                                                  1     1      0     272
                                              2 COMMON     1     1      0
                              _delay
 ---------------------------------------------------------------------------------
 (1) _float_LCD                                           11     7      4    9745
                                             24 BANK1     11     7      4
                            ___awdiv
                            ___fldiv
                            ___flmul
                            ___flsub
                            ___fltol
                           ___xxtofl
                              _num_s
 ---------------------------------------------------------------------------------
 (2) _num_s                                                3     0      3     196
                                              0 COMMON     3     0      3
 ---------------------------------------------------------------------------------
 (2) ___xxtofl                                            14    10      4     626
                                              0 COMMON    14    10      4
 ---------------------------------------------------------------------------------
 (2) ___fltol                                             10     6      4     305
                                             73 BANK0      6     2      4
                                              0 BANK1      4     4      0
                            ___fldiv (ARG)
                           ___xxtofl (ARG)
 ---------------------------------------------------------------------------------
 (2) ___flsub                                              8     0      8    2789
                                             16 BANK1      8     0      8
                            ___fladd
                            ___flmul (ARG)
                           ___xxtofl (ARG)
 ---------------------------------------------------------------------------------
 (3) ___fladd                                             20    12      8    2592
                                             73 BANK0      4     4      0
                                              0 BANK1     16     8      8
                            ___fldiv (ARG)
                            ___flmul (ARG)
                           ___xxtofl (ARG)
 ---------------------------------------------------------------------------------
 (2) ___flmul                                             26    18      8    3329
                                             21 BANK0     26    18      8
                          __Umul8_16
                           ___xxtofl (ARG)
                               _sqrt (ARG)
 ---------------------------------------------------------------------------------
 (3) __Umul8_16                                            9     7      2     799
                                              0 COMMON     9     7      2
 ---------------------------------------------------------------------------------
 (2) ___fldiv                                             26    18      8    1577
                                             47 BANK0     26    18      8
                            ___flmul (ARG)
                           ___xxtofl (ARG)
 ---------------------------------------------------------------------------------
 (2) ___awdiv                                              8     4      4     452
                                              0 COMMON     8     4      4
 ---------------------------------------------------------------------------------
 (1) _ADC_Read                                             2     0      2     348
                                              2 COMMON     2     0      2
                              _delay
 ---------------------------------------------------------------------------------
 (3) _delay                                                2     0      2     250
                                              0 COMMON     2     0      2
 ---------------------------------------------------------------------------------
 (1) _ADC_Init                                             0     0      0       0
 ---------------------------------------------------------------------------------
 Estimated maximum stack depth 3
 ---------------------------------------------------------------------------------

 Call Graph Graphs:

 _main (ROOT)
   _ADC_Init
   _ADC_Read
     _delay
   ___fladd
     ___fldiv (ARG)
       ___flmul (ARG)
         __Umul8_16
         ___xxtofl (ARG)
         _sqrt (ARG)
       ___xxtofl (ARG)
     ___flmul (ARG)
     ___xxtofl (ARG)
   ___fldiv
   ___flmul
   ___xxtofl
   _cmd
     _delay
   _float_LCD
     ___awdiv
     ___fldiv
     ___flmul
     ___flsub
       ___fladd
       ___flmul (ARG)
       ___xxtofl (ARG)
     ___fltol
       ___fldiv (ARG)
       ___xxtofl (ARG)
     ___xxtofl
     _num_s
   _lcd_init
     _cmd
   _show
     _dat
       _delay
   _sqrt

 Address spaces:
Name               Size   Autos  Total    Cost      Usage
BITCOMMON            E      0       0       0        0.0%
EEDATA             100      0       0       0        0.0%
NULL                 0      0       0       0        0.0%
CODE                 0      0       0       0        0.0%
COMMON               E      E       E       1      100.0%
BITSFR0              0      0       0       1        0.0%
SFR0                 0      0       0       1        0.0%
BITSFR1              0      0       0       2        0.0%
SFR1                 0      0       0       2        0.0%
STACK                0      0       0       2        0.0%
ABS                  0      0      AA       3        0.0%
BITBANK0            50      0       0       4        0.0%
BITSFR3              0      0       0       4        0.0%
SFR3                 0      0       0       4        0.0%
BANK0               50     50      50       5      100.0%
BITSFR2              0      0       0       5        0.0%
SFR2                 0      0       0       5        0.0%
BITBANK1            50      0       0       6        0.0%
BANK1               50     3B      4C       7       95.0%
BITBANK3            60      0       0       8        0.0%
BANK3               60      0       0       9        0.0%
BITBANK2            60      0       0      10        0.0%
BANK2               60      0       0      11        0.0%
DATA                 0      0      AA      12        0.0%


Microchip Technology PIC Macro Assembler V2.41 build 20230208172133 
Symbol Table                                                                                   Sun Mar 26 10:52:17 2023

           ___fldiv@aexp 0068             ___fldiv@bexp 0067                        pc 0002  
           ___fldiv@sign 0060                       l43 0063                       l63 01B7  
                     l72 174B                       l90 0844                       l75 171D  
                     l84 1771                       l69 1708                       l93 084E  
                     l78 1732                       l87 16F1                       _GO 00FA  
           ___awdiv@sign 0075                       fsr 0004      __Umul8_16@word_mpld 0076  
                    l343 17FF                      l600 1798                      l504 03D6  
                    l514 042B                      l610 0D3B                      l508 0404  
                    l541 0B65                      l526 04AD                      l383 08C9  
                    l376 08DE                      l561 0B51                      l529 0824  
                    l617 0C73                      l386 08DE                      l555 0ADF  
                    l539 09ED                      l483 0235                      l643 0901  
                    l645 0996                      l487 02F5                      l496 04AD  
                    l656 0960                      l585 0762                      l489 02C2  
                    l657 096C                      l579 07F2                      l598 1786  
                    _RC0 0038                      _RC1 0039                      _RC2 003A  
                    _dat 171E                      _cmd 1709                      fsr0 0004  
                    indf 0000             ___flmul@aexp 0047             ___flmul@bexp 0048  
           ___flmul@sign 0042             ___flmul@temp 004D             ___flmul@prod 0049  
           ___fltol@exp1 006E                     l2002 0041                     l2010 170E  
                   l2100 08A6                     l2012 170F                     l2020 171F  
                   l2110 08CE                     l2102 08AF                     l2014 1710  
                   l2030 172F                     l2022 1723                     l2040 17A5  
                   l2032 1799                     l2200 0A8E                     l2120 0997  
                   l2112 08D3                     l2016 1711                     l2008 170A  
                   l2024 1724                     l2050 17BA                     l2042 17A9  
                   l2034 179A                     l2210 0AAB                     l2202 0A92  
                   l2130 09AA                     l2122 099C                     l2114 0801  
                   l2018 171A                     l2026 1725                     l2060 17DD  
                   l2052 17BD                     l2044 17AE                     l2036 179E  
                   l2220 0AC3                     l2212 0AAF                     l2204 0A98  
                   l2140 09C2                     l2132 09AF                     l2124 09A0  
                   l2300 04FA                     l2116 0805                     l2108 08B6  
                   l2028 1726                     l2070 17F6                     l2062 17E3  
                   l2054 17C4                     l2046 17B2                     l2038 17A3  
                   l2230 0AE4                     l2222 0AC4                     l2214 0AB0  
                   l2206 0AA0                     l2150 09D5                     l2142 09C7  
                   l2134 09B7                     l2126 09A4                     l2310 0515  
                   l2302 0502                     ?_dat 0070                     l2072 17FB  
                   l2064 17E4                     l2056 17C8                     l2048 17B4  
                   l2232 0AE9                     l2240 0B1A                     l2224 0AC8  
                   l2216 0AB9                     l2208 0AA2                     l2160 09F5  
                   l2152 09DA                     l2144 09CB                     l2136 09B8  
                   l2128 09A5                     l2400 07E1                     l2320 0591  
                   l2312 0523                     l2304 0507                     l2066 17EB  
                   l2058 17CC                     l2250 0B50                     l2242 0B27  
                   l2234 0AF7                     l2226 0ADC                     l2218 0ABF  
                   l2170 0A13                     l2162 0A01                     l2154 09E2  
                   l2146 09CF                     l2138 09BA                     l2402 07E6  
                   l2330 05FD                     l2322 05AD                     l2314 0530  
                   l2306 050C                     l2090 0891                     l2082 0863  
                   l2410 08E5                     ?_cmd 0070                     l2500 16ED  
                   l2068 17F1                     l2252 0B55                     l2244 0B35  
                   l2236 0AFB                     l2180 0A3E                     l2164 0A05  
                   l2156 09E3                     l2148 09D0                     l2404 07EA  
                   l2340 0687                     l2332 060B                     l2324 05C9  
                   l2316 054B                     l2092 0895                     l2084 0886  
                   l2076 084F                     l2420 0912                     l2412 08E9  
                   l2502 0825                     l2254 0B59                     l2246 0B44  
                   l2238 0B14                     l2190 0A63                     l2182 0A46  
                   l2174 0A1C                     l2158 09E5                     l2350 0717  
                   l2342 0695                     l2334 0628                     l2326 05D2  
                   l2318 0567                     l2270 04B7                     l2086 0887  
                   l2078 085A                     l2430 092D                     l2422 0915  
                   l2414 08F9                     l2504 0838                     l2256 0B5B  
                   l2248 0B48                     l2192 0A64                     l2184 0A48  
                   l2176 0A2E                     l2168 0A0E                     l2360 073C  
                   l2352 0725                     l2344 06C0                     l2336 063F  
                   l2328 05E0                     l2280 04CE                     l2272 04BB  
                   l1800 0287                     l1720 01B8                     l2088 088F  
                   l2440 095A                     l2432 093B                     l2424 0919  
                   l2416 0909                     l2408 08E0                     l2600 0D2A  
                   l2520 0B74                     l2512 0B66                     l2506 0841  
                   l2258 0B5F                     l2186 0A4D                     l2194 0A6D  
                   l2178 0A36                     l2370 075F                     l2354 072E  
                   l2362 0742                     l2346 06E6                     l2338 065C  
                   l2290 04E5                     l2282 04D0                     l2274 04BC  
                   l2266 04AE                     l1810 02D9                     l1802 02A4  
                   l1730 01D6                     l1722 01BF                     l2098 089D  
                   l2450 098D                     l2442 0964                     l2434 0944  
                   l2426 0922                     l2602 0D2F                     l2522 0B87  
                   l2514 0B6B                     l2610 0D40                     l1716 16FA  
                   l2508 0848                     l2196 0A7F                     l2188 0A5F  
                   l2380 077E                     l2364 0746                     l2356 0732  
                   l2348 070E                     l2292 04E6                     l2284 04D8  
                   l2276 04C1                     l2268 04B3                     l1900 0476  
                   l1820 02FE                     l1812 02DC                     l1804 02C6  
                   l1740 01F4                     l1732 01DB                     l1724 01C7  
                   l2452 098E                     l2444 096E                     l2436 094B  
                   l2428 0929                     l2460 006B                     l2604 0D33  
                   l2540 0BB0                     l2532 0B9C                     l2524 0B8D  
                   l2516 0B6F                     l2620 0D55                     l2612 0D43  
                   l1718 16FA                     l2198 0A80                     l2390 07C4  
                   l2382 0797                     l2374 0767                     l2366 0747  
                   l2358 0733                     l2294 04EB                     l2286 04DD  
                   l2278 04C6                     l1910 0491                     l1902 047B  
                   l1830 032C                     l1814 02E7                     l1806 02D1  
                   l1750 020E                     l1742 01F9                     l1734 01E5  
                   l1726 01CD                     l2446 0984                     l2438 0956  
                   l2470 0078                     l2550 0BE4                     l2534 0BA2  
                   l2526 0B8E                     l2518 0B73                     l2630 0D60  
                   l2622 0D55                     l2614 0D48                     l1920 1773  
                   l2392 07CE                     l2376 076C                     l2384 079D  
                   l2368 074B                     l2296 04F0                     l2288 04E1  
                   l1912 0495                     l1904 0485                     l1840 034D  
                   l1832 0337                     l1824 0309                     l1808 02D3  
                   l1816 02ED                     l1760 0229                     l1752 0211  
                   l1744 01FF                     l1736 01E8                     l1728 01D0  
                   l2448 0989                     l2712 0046                     l2480 0127  
                   l2472 00B7                     l2456 0064                     l2560 0C03  
                   l2552 0BEA                     l2544 0BCD                     l2528 0B94  
                   l2640 0DF2                     l2632 0D69                     l2624 0D55  
                   l2616 0D4B                     l2608 0D3C                     l1930 1794  
                   l1922 1775                     l2394 07D0                     l2386 07AA  
                   l2378 077A                     l2298 04F8                     l1914 049B  
                   l1906 048C                     l1850 03B2                     l1834 0339  
                   l1826 0322                     l1818 02F9                     l1842 0354  
                   l1770 0247                     l1754 0217                     l1762 022B  
                   l1746 0200                     l1738 01EA                     l2482 0129  
                   l2474 00BC                     l2466 006D                     l2458 0067  
                   l2490 174C                     l2570 0C23                     l2562 0C0B  
                   l2554 0BED                     l2546 0BD3                     l2538 0BAB  
                   l2650 0EA2                     l2642 0E3D                     l2634 0D70  
                   l2626 0D55                     l2618 0D4D                     l1924 177C  
                   l2396 07DC                     l2388 07B5                     l1916 04A4  
                   l1908 048D                     l1852 03B7                     l1844 036C  
                   l1836 033F                     l1828 0326                     l1780 025B  
                   l1772 0249                     l1764 023D                     l1756 021C  
                   l1748 0208                     l2476 010D                     l2484 01A4  
                   l2468 0076                     l2492 174D                     l2580 0C9F  
                   l2572 0C3D                     l2564 0C13                     l2556 0BF4  
                   l2660 0F40                     l2652 0EA2                     l2644 0E7C  
                   l2636 0D7E                     l2628 0D5A                     l1926 1780  
                   l2398 07E0                     l1918 04AA                     l1870 040C  
                   l1862 03F2                     l1846 03AA                     l1854 03C8  
                   l1838 0342                     l1790 0271                     l1782 025F  
                   l1774 024B                     l1766 0241                     l1758 0226  
                   l1942 0028                     l1934 0025                     l2486 01AA  
                   l2478 0121                     l2494 175B                     l2590 0D11  
                   l2582 0CB8                     l2574 0C63                     l2566 0C18  
                   l2558 0BFA                     l2670 0F73                     l2662 0F46  
                   l2654 0EA2                     l2646 0E9B                     l2638 0D82  
                   l1928 178F                     l1880 041D                     l1872 040E  
                   l1864 03FB                     l1856 03E0                     l1848 03B0  
                   l1792 0277                     l1784 0263                     l1776 0251  
                   l1768 0245                     l1960 002E                     l1936 0026  
                   l2488 1733                     l2496 1761                     l2592 0D17  
                   l2584 0CC4                     l2576 0C95                     l2568 0C21  
                   l2680 0FD4                     l2664 0F52                     l2672 0F76  
                   l2656 0EE1                     l2648 0EA1                     l2498 16EA  
                   l1890 0438                     l1882 0421                     l1874 0413  
                   l1866 0401                     l1858 03E7                     l1794 027B  
                   l1786 0269                     l1778 0255                     l1954 002C  
                   l2594 0D23                     l2586 0CF4                     l2578 0C99  
                   l2690 0FF5                     l2682 0FDD                     l2674 0F7C  
                   l2666 0F61                     l2658 0F21                     l1892 0448  
                   l1884 0427                     l1868 0409                     l1876 0415  
                   l1796 027F                     l1788 026D                     l1972 0032  
                   l1948 002A                     l2596 0D25                     l2588 0CF8  
                   l2684 0FE6                     l2676 0F88                     l2668 0F6A  
                   l1894 044C                     l1878 041B                     l1798 0285  
                   l1990 0038                     l1966 0030                     l2598 0D29  
                   l2678 0FC7                     l2686 0FE9                     l1896 046C  
                   l1888 0432                     l1992 003D                     l1984 0036  
                   l2688 0FED                     l1898 0470                     l1978 0034  
                   l1998 003F                     STR_1 001B                     STR_2 0013  
                   STR_3 0013                     u2000 02FE                     u2001 02FD  
                   u2011 0314                     u2100 03E0                     u2020 0326  
                   u2012 031B                     u2101 03DF                     u2021 0325  
                   u2013 0322                     u2110 03E7                     u2030 032C  
                   u2111 03E6                     u2031 032B                     u2200 0438  
                   u2040 033F                     u3001 06A4                     u2201 0437  
                   u2041 033E                     u3010 06CC                     u3002 06AB  
                   u2210 044C                     u2130 0401                     u3003 06B2  
                   u2211 044B                     u2131 0400                     u3100 074B  
                   u2220 045B                     u2140 0409                     u2060 036C  
                   u3101 074A                     u3021 06D8                     u2141 0408  
                   u2125 03F4                     u2061 036B                     u2310 1794  
                   u3110 075F                     u3030 06F4                     u3022 06DF  
                   u2230 046C                     u2150 0413                     u2311 1793  
                   u3111 075E                     u3023 06E6                     u3015 06C7  
                   u2231 046B                     u2151 0412                     u2071 0383  
                   u2063 0368                     u2055 0346                     u3120 0766  
                   u2240 0476                     u2160 041B                     u2080 0397  
                   u2072 0384                     u3200 08E9                     u2320 003D  
                   u2305 1787                     u3121 0765                     u3041 0700  
                   u2241 0475                     u2225 0456                     u2161 041A  
                   u2081 0398                     u2073 0389                     u3201 08E8  
                   u2321 003C                     u2410 17F1                     u2330 179E  
                   u3130 076C                     u3042 0707                     u2250 047B  
                   u2170 0421                     u2090 03B7                     u2082 039D  
                   u2074 038A                     u3210 0909                     u2411 17F0  
                   u2331 179D                     u3131 076B                     u3043 070E  
                   u3035 06EF                     u2251 047A                     u2171 0420  
                   u2091 03B6                     u2083 039E                     u2075 038F  
                   u3211 0908                     u2420 17F6                     u2340 17A9  
                   u3140 077E                     u2260 048C                     u2180 0427  
                   u2076 0390                     u3300 0979                     u2421 17F5  
                   u2405 17E5                     u2341 17A8                     u3141 077D  
                   u2261 048B                     u2181 0426                     u2350 17BA  
                   u3150 078D                     u3070 0732                     u2270 0491  
                   u2190 0431                     u2510 08CE                     u2430 085A  
                   u3310 0989                     u3230 0928                     u2351 17B9  
                   u3071 0731                     u3055 0710                     u2271 0490  
                   u2191 0430                     u2511 08CD                     u2431 0859  
                   u3311 0988                     u3231 0927                     u2600 0A13  
                   u3160 07AA                     u2280 04AA                     u2520 08D3  
                   u2440 087F                     u3320 098D                     u3400 0B73  
                   u2601 0A12                     u3161 07A9                     u3065 0727  
                   u2281 04A9                     u2521 08D2                     u2505 08BA  
                   u3321 098C                     u3305 0974                     u3225 091A  
                   u3401 0B72                     u2370 17CC                     u2610 0A4D  
                   u2530 09A4                     u2290 1780                     u3170 07C4  
                   u3090 0746                     u2450 0895                     u3250 094A  
                   u3330 0076                     u3410 0B8D                     u2371 17CB  
                   u2611 0A4C                     u2531 09A3                     u2291 177F  
                   u3171 07C3                     u3155 0788                     u3091 0745  
                   u2451 0894                     u3251 0949                     u3331 0075  
                   u3411 0B8C                     u1820 1708                     u2700 0AAF  
                   u2540 09AA                     u3180 07E0                     u1900 023D  
                   u2460 089C                     u3340 0127                     u3420 0B94  
                   u1821 1707                     u2365 17BE                     u2701 0AAE  
                   u2541 09A9                     u3181 07DF                     u3165 07A6  
                   u3085 0735                     u1901 023C                     u2461 089B  
                   u2445 087A                     u3245 093C                     u3341 0126  
                   u3501 0C54                     u3421 0B93                     u2390 17DD  
                   u2550 09AF                     u1910 0241                     u1830 01CD  
                   u3270 095A                     u3190 08E5                     u3350 01B7  
                   u3510 0C81                     u3502 0C5B                     u3430 0BA2  
                   u2391 17DC                     u2551 09AE                     u3175 07C0  
                   u1911 0240                     u1831 01CC                     u3271 0959  
                   u3191 08E4                     u3351 01B6                     u3503 0C62  
                   u3431 0BA1                     u2800 0B44                     u2720 0AC3  
                   u2640 0A63                     u2560 09CF                     u1920 02A4  
                   u1840 01D6                     u2480 08AE                     u3280 0960  
                   u3360 1771                     u3440 0BB0                     u3600 0EA1  
                   u2385 17CD                     u2801 0B43                     u2721 0AC2  
                   u2641 0A62                     u2625 0A4F                     u2561 09CE  
                   u1921 02A3                     u1841 01D5                     u2481 08AD  
                   u3281 095F                     u3265 094F                     u3361 1770  
                   u3441 0BAF                     u3601 0EA0                     u3370 0833  
                   u2810 0B59                     u2730 0AC8                     u2570 09D5  
                   u1930 02AF                     u1850 01DB                     u2490 08B5  
                   u3290 0964                     u3530 0C9F                     u3450 0BD3  
                   u3610 0F46                     u3371 0831                     u2395 17D9  
                   u2811 0B58                     u2731 0AC7                     u2715 0AB2  
                   u2635 0A58                     u2571 09D4                     u1931 02AD  
                   u1851 01DA                     u2491 08B4                     u2475 089E  
                   u3291 0963                     u3355 01B3                     u3531 0C9E  
                   u3515 0C7C                     u3451 0BD2                     u3611 0F45  
                   u3380 0834                     u2740 0ADC                     u2660 0A7F  
                   u2580 09DA                     u2820 04BB                     u1940 02B0  
                   u1860 01FF                     u3540 0CAD                     u3620 0F7C  
                   u2805 0B40                     u2741 0ADB                     u2661 0A7E  
                   u2581 09D9                     u2901 0559                     u2821 04BA  
                   u1925 02A0                     u1861 01FE                     u3525 0C8E  
                   u3621 0F7B                     u3390 0848                     u2750 0AE3  
                   u2670 0A98                     u2590 09F5                     u2902 0560  
                   u2830 04C1                     u1950 02C6                     u1870 020E  
                   u3550 0CD2                     u3470 0C18                     u3391 0847  
                   u3375 082E                     u2751 0AE2                     u2671 0A97  
                   u2655 0A66                     u2591 09F4                     u2911 0575  
                   u2903 0567                     u2831 04C0                     u1951 02C5  
                   u1871 020D                     u3471 0C17                     u2760 0AE9  
                   u2680 0AA0                     u2912 057C                     u2840 04C6  
                   u1960 02D9                     u1880 0217                     u2761 0AE8  
                   u2681 0A9F                     u2665 0A7B                     u2921 059F  
                   u2913 0583                     u2841 04C5                     u1961 02D8  
                   u1881 0216                     u3561 0CE6                     u3545 0CA8  
                   u3465 0BEF                     u2770 0AFB                     u2922 05A6  
                   u2850 04E5                     u1890 021C                     u3570 0CF8  
                   u3562 0CED                     u3490 0C3D                     u2771 0AFA  
                   u2931 05BB                     u2923 05AD                     u2851 04E4  
                   u1891 021B                     u3571 0CF7                     u3563 0CF4  
                   u3555 0CCD                     u3491 0C3C                     u2780 0B0A  
                   u2932 05C2                     u2860 04EB                     u1980 02F5  
                   u3580 0D06                     u2933 05C9                     u2861 04EA  
                   u1981 02F4                     u3485 0C1A                     u3637 0D6D  
                   u2790 0B27                     u2870 04F0                     u1990 02F9  
                   u3590 0D29                     u2791 0B26                     u2695 0AA4  
                   u2951 05EF                     u2871 04EF                     u1991 02F8  
                   u1975 02E0                     u3591 0D28                     u3495 0C39  
                   u3647 0FF9                     u2952 05F6                     u2880 0507  
                   u2785 0B05                     u2961 061A                     u2953 05FD  
                   u2945 05CB                     u2881 0506                     u3585 0D01  
                   u2962 0621                     u2890 050C                     u2795 0B23  
                   u2963 0628                     u2891 050B                     u2981 064E  
                   u2982 0655                     u2991 0679                     u2983 065C  
                   u2975 062A                     u2992 0680                     u2993 0687  
                   dat@b 0072                     cmd@a 0072                     _main 0D3C  
                   _show 174C                     btemp 007E                     _sqrt 0B66  
       __end_of_ADC_Init 16F2         __end_of_ADC_Read 084F             main@adcValue 00C7  
                   start 0000          ___fldiv@new_exp 0061                    ??_dat 0072  
                  ??_cmd 0072            ___fltol@sign1 006D          __end_of___fladd 04AE  
                  ?_main 0070          __end_of___fldiv 0B66          __end_of___awdiv 1800  
        __end_of___flmul 07F3                    ?_show 0073          __end_of___flsub 0825  
        __end_of___fltol 08DF                    ?_sqrt 0070          ___awdiv@divisor 0070  
        ___awdiv@counter 0074                    _PORTB 0006                    _TRISB 0086  
                  _TRISD 0088                    _delay 16FA                    _errno 00DB  
                  _num_s 0025                    pclath 000A                    show@s 0073  
                  sqrt@a 0070                    sqrt@i 0021                    sqrt@p 0026  
                  status 0003                    wtemp0 007E          __initialization 07F3  
           __end_of_main 1000             __end_of_show 1772             __end_of_sqrt 0D3C  
                 ??_main 006F                   ??_show 0075                   ??_sqrt 0074  
                 ?_delay 0070                   _ADCON0 001F                   _ADCON1 009F  
                 _ADRESH 001E                   _ADRESL 009E         ___awdiv@dividend 0072  
                 ?_num_s 0070                   _TRISC0 0438                   _TRISC1 0439  
                 _TRISC2 043A         __end_of___xxtofl 0997         __end_of_lcd_init 174C  
                 _cadena 00DD                ??___fladd 00A8                ??___fldiv 0057  
              ??___awdiv 0074                ??___flmul 003D                ??___flsub 007E  
              ??___fltol 00A0         ___awdiv@quotient 0076                   main@c2 00CE  
          float_LCD@flag 00BC                ?_ADC_Init 0070                ?_ADC_Read 0072  
           ___xxtofl@arg 007A             ___xxtofl@exp 0079             ___xxtofl@val 0070  
__end_of__initialization 07FC               ___fltol@f1 0069           __pcstackCOMMON 0070  
          __end_of_delay 1709            __end_of_num_s 0064               ??_ADC_Init 0070  
             ??_ADC_Read 0074                  ??_delay 0072                  ??_num_s 0073  
             __pbssBANK1 00DB        __end_of__Umul8_16 1799               __pmaintext 0D3C  
              ?___xxtofl 0070                  _GO_DONE 00FA                ?_lcd_init 0070  
             __stringtab 0003                  ___fladd 01B8                  ___fldiv 0997  
      __end_of_float_LCD 01B8                  ___awdiv 1799                  ___flmul 04AE  
                ___flsub 0801                  ___fltol 084F                  __ptext1 0B66  
                __ptext2 174C                  __ptext3 171E                  __ptext4 1733  
                __ptext5 1709                  __ptext6 0064                  __ptext7 0025  
                __ptext8 08DF                  __ptext9 084F               ??___xxtofl 0074  
                clrloop0 16F3                  main@val 00D7               ??_lcd_init 0073  
   end_of_initialization 07FC           float_LCD@value 00B8                  sqrt@grs 0027  
                sqrt@exp 002B              ___fladd@grs 006C            ___xxtofl@sign 0078  
            ___fldiv@grs 0063              ___fldiv@rem 005C              ___flmul@grs 0043  
             float_LCD@i 00C1               main@prom_1 00CF      start_initialization 07F3  
            __end_of_dat 1733              __end_of_cmd 171E                __Umul8_16 1772  
     ADC_Read@adcChannel 0072                ___fladd@a 00A4                ___fladd@b 00A0  
              ___fldiv@a 004F                ___fldiv@b 0053                ___flmul@a 0039  
              ___flmul@b 0035                ___flsub@a 00B0                ___flsub@b 00B4  
              ___latbits 0002            __pcstackBANK0 0020            __pcstackBANK1 00A0  
               ?___fladd 00A0                 ?___fldiv 004F                 ?___awdiv 0070  
               ?___flmul 0035                 ?___flsub 00B0                 ?___fltol 0069  
             ?__Umul8_16 0070                __pstrings 0003                _float_LCD 0064  
               _ADC_Init 16EA                 _ADC_Read 0825                clear_ram0 16F2  
             ?_float_LCD 00B8              __stringbase 0012                main@count 00C9  
              main@total 00D3              ??__Umul8_16 0072       __end_of__stringtab 0013  
               ___xxtofl 08DF                 _main$767 00C3                 __ptext10 0801  
               __ptext11 01B8                 __ptext12 04AE                 __ptext13 1772  
               __ptext14 0997                 __ptext15 1799                 __ptext16 0825  
               __ptext17 16FA                 __ptext18 16EA                 _lcd_init 1733  
               delay@cnt 0070                num_s@flag 0072                 main@suma 00CA  
            ??_float_LCD 007E          float_LCD@pow_10 00BF          float_LCD@v_temp 00BD  
              sqrt@tfrac 0022                stringcode 000D                 num_s@val 0070  
               sqrt@frac 0031                 sqrt@sign 0020                 sqrt@root 002D  
 __Umul8_16@multiplicand 0070                 stringdir 000D                 stringtab 0003  
          ___fladd@signs 0069             ___fladd@aexp 006A             ___fladd@bexp 006B  
   __Umul8_16@multiplier 0078        __Umul8_16@product 0074  
