

Microchip MPLAB XC8 Assembler V2.41 build 20230208172133 
                                                                                               Fri Mar 31 12:42:27 2023

Microchip MPLAB XC8 C Compiler v2.41 (Free license) build 20230208172133 Og1 
     1                           	processor	16F877A
     2                           	pagewidth 120
     3                           	opt	flic
     4                           	psect	strings,global,class=STRING,delta=2,noexec
     5                           	psect	cinit,global,class=CODE,merge=1,delta=2
     6                           	psect	bssBANK1,global,class=BANK1,space=1,delta=1,noexec
     7                           	psect	bssBANK3,global,class=BANK3,space=1,delta=1,noexec
     8                           	psect	cstackBANK1,global,class=BANK1,space=1,delta=1,noexec
     9                           	psect	cstackCOMMON,global,class=COMMON,space=1,delta=1,noexec
    10                           	psect	cstackBANK0,global,class=BANK0,space=1,delta=1,noexec
    11                           	psect	maintext,global,class=CODE,split=1,delta=2
    12                           	psect	text1,local,class=CODE,merge=1,delta=2,group=1
    13                           	psect	text2,local,class=CODE,merge=1,delta=2
    14                           	psect	text3,local,class=CODE,merge=1,delta=2
    15                           	psect	text4,local,class=CODE,merge=1,delta=2
    16                           	psect	text5,local,class=CODE,merge=1,delta=2
    17                           	psect	text6,local,class=CODE,merge=1,delta=2
    18                           	psect	text7,local,class=CODE,merge=1,delta=2
    19                           	psect	text8,local,class=CODE,merge=1,delta=2,group=1
    20                           	psect	text9,local,class=CODE,merge=1,delta=2,group=1
    21                           	psect	text10,local,class=CODE,merge=1,delta=2,group=1
    22                           	psect	text11,local,class=CODE,merge=1,delta=2,group=1
    23                           	psect	text12,local,class=CODE,merge=1,delta=2,group=1
    24                           	psect	text13,local,class=CODE,merge=1,delta=2,group=1
    25                           	psect	text14,local,class=CODE,merge=1,delta=2,group=1
    26                           	psect	text15,local,class=CODE,merge=1,delta=2,group=1
    27                           	psect	text16,local,class=CODE,merge=1,delta=2
    28                           	psect	text17,local,class=CODE,merge=1,delta=2
    29                           	psect	text18,local,class=CODE,merge=1,delta=2
    30                           	psect	text19,local,class=CODE,merge=1,delta=2
    31                           	psect	text20,local,class=CODE,merge=1,delta=2
    32                           	psect	config,global,abs,ovrld,class=CONFIG,space=4,delta=2,noexec
    33                           	dabs	1,0x7E,2
    34     0000                     
    35                           ; Version 2.40
    36                           ; Generated 17/11/2021 GMT
    37                           ; 
    38                           ; Copyright © 2021, Microchip Technology Inc. and its subsidiaries ("Microchip")
    39                           ; All rights reserved.
    40                           ; 
    41                           ; This software is developed by Microchip Technology Inc. and its subsidiaries ("Microch
      +                          ip").
    42                           ; 
    43                           ; Redistribution and use in source and binary forms, with or without modification, are
    44                           ; permitted provided that the following conditions are met:
    45                           ; 
    46                           ;     1. Redistributions of source code must retain the above copyright notice, this lis
      +                          t of
    47                           ;        conditions and the following disclaimer.
    48                           ; 
    49                           ;     2. Redistributions in binary form must reproduce the above copyright notice, this 
      +                          list
    50                           ;        of conditions and the following disclaimer in the documentation and/or other
    51                           ;        materials provided with the distribution. Publication is not required when
    52                           ;        this file is used in an embedded application.
    53                           ; 
    54                           ;     3. Microchip's name may not be used to endorse or promote products derived from th
      +                          is
    55                           ;        software without specific prior written permission.
    56                           ; 
    57                           ; THIS SOFTWARE IS PROVIDED BY MICROCHIP "AS IS" AND ANY EXPRESS OR IMPLIED WARRANTIES,
    58                           ; INCLUDING, BUT NOT LIMITED TO, THE IMPLIED WARRANTIES OF MERCHANTABILITY AND FITNESS F
      +                          OR
    59                           ; PURPOSE ARE DISCLAIMED.  IN NO EVENT SHALL MICROCHIP BE LIABLE FOR ANY DIRECT, INDIREC
      +                          T,
    60                           ; INCIDENTAL, SPECIAL, EXEMPLARY, OR CONSEQUENTIAL DAMAGES (INCLUDING BUT NOT LIMITED TO
    61                           ; PROCUREMENT OF SUBSTITUTE GOODS OR SERVICES; LOSS OF USE, DATA OR PROFITS; OR BUSINESS
    62                           ; INTERRUPTION) HOWSOEVER CAUSED AND ON ANY THEORY OF LIABILITY, WHETHER IN CONTRACT, ST
      +                          RICT
    63                           ; LIABILITY, OR TORT (INCLUDING NEGLIGENCE OR OTHERWISE) ARISING IN ANY WAY OUT OF THE U
      +                          SE OF
    64                           ; THIS SOFTWARE, EVEN IF ADVISED OF THE POSSIBILITY OF SUCH DAMAGE.
    65                           ; 
    66                           ; 
    67                           ; Code-generator required, PIC16F877A Definitions
    68                           ; 
    69                           ; SFR Addresses
    70     0000                     	;# 
    71     0001                     	;# 
    72     0002                     	;# 
    73     0003                     	;# 
    74     0004                     	;# 
    75     0005                     	;# 
    76     0006                     	;# 
    77     0007                     	;# 
    78     0008                     	;# 
    79     0009                     	;# 
    80     000A                     	;# 
    81     000B                     	;# 
    82     000C                     	;# 
    83     000D                     	;# 
    84     000E                     	;# 
    85     000E                     	;# 
    86     000F                     	;# 
    87     0010                     	;# 
    88     0011                     	;# 
    89     0012                     	;# 
    90     0013                     	;# 
    91     0014                     	;# 
    92     0015                     	;# 
    93     0015                     	;# 
    94     0016                     	;# 
    95     0017                     	;# 
    96     0018                     	;# 
    97     0019                     	;# 
    98     001A                     	;# 
    99     001B                     	;# 
   100     001B                     	;# 
   101     001C                     	;# 
   102     001D                     	;# 
   103     001E                     	;# 
   104     001F                     	;# 
   105     0081                     	;# 
   106     0085                     	;# 
   107     0086                     	;# 
   108     0087                     	;# 
   109     0088                     	;# 
   110     0089                     	;# 
   111     008C                     	;# 
   112     008D                     	;# 
   113     008E                     	;# 
   114     0091                     	;# 
   115     0092                     	;# 
   116     0093                     	;# 
   117     0094                     	;# 
   118     0098                     	;# 
   119     0099                     	;# 
   120     009C                     	;# 
   121     009D                     	;# 
   122     009E                     	;# 
   123     009F                     	;# 
   124     010C                     	;# 
   125     010D                     	;# 
   126     010E                     	;# 
   127     010F                     	;# 
   128     018C                     	;# 
   129     018D                     	;# 
   130     0000                     	;# 
   131     0001                     	;# 
   132     0002                     	;# 
   133     0003                     	;# 
   134     0004                     	;# 
   135     0005                     	;# 
   136     0006                     	;# 
   137     0007                     	;# 
   138     0008                     	;# 
   139     0009                     	;# 
   140     000A                     	;# 
   141     000B                     	;# 
   142     000C                     	;# 
   143     000D                     	;# 
   144     000E                     	;# 
   145     000E                     	;# 
   146     000F                     	;# 
   147     0010                     	;# 
   148     0011                     	;# 
   149     0012                     	;# 
   150     0013                     	;# 
   151     0014                     	;# 
   152     0015                     	;# 
   153     0015                     	;# 
   154     0016                     	;# 
   155     0017                     	;# 
   156     0018                     	;# 
   157     0019                     	;# 
   158     001A                     	;# 
   159     001B                     	;# 
   160     001B                     	;# 
   161     001C                     	;# 
   162     001D                     	;# 
   163     001E                     	;# 
   164     001F                     	;# 
   165     0081                     	;# 
   166     0085                     	;# 
   167     0086                     	;# 
   168     0087                     	;# 
   169     0088                     	;# 
   170     0089                     	;# 
   171     008C                     	;# 
   172     008D                     	;# 
   173     008E                     	;# 
   174     0091                     	;# 
   175     0092                     	;# 
   176     0093                     	;# 
   177     0094                     	;# 
   178     0098                     	;# 
   179     0099                     	;# 
   180     009C                     	;# 
   181     009D                     	;# 
   182     009E                     	;# 
   183     009F                     	;# 
   184     010C                     	;# 
   185     010D                     	;# 
   186     010E                     	;# 
   187     010F                     	;# 
   188     018C                     	;# 
   189     018D                     	;# 
   190     001E                     _ADRESH	set	30
   191     001F                     _ADCON0	set	31
   192     0006                     _PORTB	set	6
   193     00FA                     _GO_DONE	set	250
   194     00FA                     _GO	set	250
   195     003C                     _RC4	set	60
   196     0043                     _RD3	set	67
   197     0042                     _RD2	set	66
   198     0088                     _TRISD	set	136
   199     0086                     _TRISB	set	134
   200     009E                     _ADRESL	set	158
   201     009F                     _ADCON1	set	159
   202     043C                     _TRISC4	set	1084
   203                           
   204                           	psect	strings
   205     1000                     __pstrings:
   206     1000                     stringtab:
   207     1000                     __stringtab:
   208                           
   209                           ;	String table - string pointers are 1 byte each
   210     1000  1BFF               	btfsc	btemp+1,7
   211     1001  280A               	ljmp	stringcode
   212     1002  1383               	bcf	3,7
   213     1003  187F               	btfsc	btemp+1,0
   214     1004  1783               	bsf	3,7
   215     1005  0800               	movf	0,w
   216     1006  0A84               	incf	4,f
   217     1007  1903               	skipnz
   218     1008  0AFF               	incf	btemp+1,f
   219     1009  0008               	return
   220     100A                     stringcode:
   221     100A                     stringdir:
   222     100A  3010               	movlw	high stringdir
   223     100B  008A               	movwf	10
   224     100C  0804               	movf	4,w
   225     100D  0A84               	incf	4,f
   226     100E  0782               	addwf	2,f
   227     100F                     __stringbase:
   228     100F  3400               	retlw	0
   229     1010                     __end_of__stringtab:
   230     1010                     STR_3:
   231     1010  3449               	retlw	73	;'I'
   232     1011  3472               	retlw	114	;'r'
   233     1012  346D               	retlw	109	;'m'
   234     1013  3473               	retlw	115	;'s'
   235     1014  3420               	retlw	32	;' '
   236     1015  343D               	retlw	61	;'='
   237     1016  3420               	retlw	32	;' '
   238     1017  3400               	retlw	0
   239     1018                     STR_2:
   240     1018  3456               	retlw	86	;'V'
   241     1019  3472               	retlw	114	;'r'
   242     101A  346D               	retlw	109	;'m'
   243     101B  3473               	retlw	115	;'s'
   244     101C  3420               	retlw	32	;' '
   245     101D  343D               	retlw	61	;'='
   246     101E  3420               	retlw	32	;' '
   247     101F  3400               	retlw	0
   248     1020                     STR_1:
   249     1020  3449               	retlw	73	;'I'
   250     1021  3444               	retlw	68	;'D'
   251     1022  3449               	retlw	73	;'I'
   252     1023  3445               	retlw	69	;'E'
   253     1024  3400               	retlw	0
   254     1010                     
   255                           	psect	cinit
   256     07E7                     start_initialization:	
   257                           ; #config settings
   258                           
   259     07E7                     __initialization:
   260                           
   261                           ; Clear objects allocated to BANK1
   262     07E7  1683               	bsf	3,5	;RP0=1, select bank1
   263     07E8  1303               	bcf	3,6	;RP1=0, select bank1
   264     07E9  01EB               	clrf	__pbssBANK1& (0+127)
   265     07EA  01EC               	clrf	(__pbssBANK1+1)& (0+127)
   266                           
   267                           ; Clear objects allocated to BANK3
   268     07EB  1683               	bsf	3,5	;RP0=1, select bank3
   269     07EC  1703               	bsf	3,6	;RP1=1, select bank3
   270     07ED  0190               	clrf	__pbssBANK3& (0+127)
   271     07EE  0191               	clrf	(__pbssBANK3+1)& (0+127)
   272     07EF  0192               	clrf	(__pbssBANK3+2)& (0+127)
   273     07F0  0193               	clrf	(__pbssBANK3+3)& (0+127)
   274     07F1  0194               	clrf	(__pbssBANK3+4)& (0+127)
   275     07F2  0195               	clrf	(__pbssBANK3+5)& (0+127)
   276     07F3  0196               	clrf	(__pbssBANK3+6)& (0+127)
   277     07F4  0197               	clrf	(__pbssBANK3+7)& (0+127)
   278     07F5  0198               	clrf	(__pbssBANK3+8)& (0+127)
   279     07F6  0199               	clrf	(__pbssBANK3+9)& (0+127)
   280     07F7  019A               	clrf	(__pbssBANK3+10)& (0+127)
   281     07F8  019B               	clrf	(__pbssBANK3+11)& (0+127)
   282     07F9  019C               	clrf	(__pbssBANK3+12)& (0+127)
   283     07FA  019D               	clrf	(__pbssBANK3+13)& (0+127)
   284     07FB  019E               	clrf	(__pbssBANK3+14)& (0+127)
   285     07FC                     end_of_initialization:	
   286                           ;End of C runtime variable initialization code
   287                           
   288     07FC                     __end_of__initialization:
   289     07FC  0183               	clrf	3
   290     07FD  120A  118A  2A8B   	ljmp	_main	;jump to C main() function
   291                           
   292                           	psect	bssBANK1
   293     00EB                     __pbssBANK1:
   294     00EB                     _errno:
   295     00EB                     	ds	2
   296                           
   297                           	psect	bssBANK3
   298     0190                     __pbssBANK3:
   299     0190                     _cadena:
   300     0190                     	ds	15
   301                           
   302                           	psect	cstackBANK1
   303     00A0                     __pcstackBANK1:
   304     00A0                     ??___fltol:
   305     00A0                     ?___fladd:	
   306                           ; 1 bytes @ 0x0
   307                           
   308     00A0                     ___fladd@b:	
   309                           ; 4 bytes @ 0x0
   310                           
   311                           
   312                           ; 4 bytes @ 0x0
   313     00A0                     	ds	4
   314     00A4                     ___fladd@a:
   315                           
   316                           ; 4 bytes @ 0x4
   317     00A4                     	ds	4
   318     00A8                     ??___fladd:
   319                           
   320                           ; 1 bytes @ 0x8
   321     00A8                     	ds	8
   322     00B0                     ?___flsub:
   323     00B0                     ___flsub@a:	
   324                           ; 4 bytes @ 0x10
   325                           
   326                           
   327                           ; 4 bytes @ 0x10
   328     00B0                     	ds	4
   329     00B4                     ___flsub@b:
   330                           
   331                           ; 4 bytes @ 0x14
   332     00B4                     	ds	4
   333     00B8                     ?_float_LCD:
   334     00B8                     float_LCD@value:	
   335                           ; 1 bytes @ 0x18
   336                           
   337                           
   338                           ; 4 bytes @ 0x18
   339     00B8                     	ds	4
   340     00BC                     float_LCD@flag:
   341                           
   342                           ; 1 bytes @ 0x1C
   343     00BC                     	ds	1
   344     00BD                     float_LCD@v_temp:
   345                           
   346                           ; 2 bytes @ 0x1D
   347     00BD                     	ds	2
   348     00BF                     float_LCD@pow_10:
   349                           
   350                           ; 2 bytes @ 0x1F
   351     00BF                     	ds	2
   352     00C1                     float_LCD@i:
   353                           
   354                           ; 2 bytes @ 0x21
   355     00C1                     	ds	2
   356     00C3                     main@count:
   357                           
   358                           ; 1 bytes @ 0x23
   359     00C3                     	ds	1
   360     00C4                     _main$779:
   361                           
   362                           ; 4 bytes @ 0x24
   363     00C4                     	ds	4
   364     00C8                     main@suma_ch0:
   365                           
   366                           ; 4 bytes @ 0x28
   367     00C8                     	ds	4
   368     00CC                     main@suma_ch1:
   369                           
   370                           ; 4 bytes @ 0x2C
   371     00CC                     	ds	4
   372     00D0                     main@adcValue:
   373                           
   374                           ; 2 bytes @ 0x30
   375     00D0                     	ds	2
   376     00D2                     main@c2:
   377                           
   378                           ; 1 bytes @ 0x32
   379     00D2                     	ds	1
   380     00D3                     main@total_ch0:
   381                           
   382                           ; 4 bytes @ 0x33
   383     00D3                     	ds	4
   384     00D7                     main@total_ch1:
   385                           
   386                           ; 4 bytes @ 0x37
   387     00D7                     	ds	4
   388     00DB                     main@val_ch0:
   389                           
   390                           ; 4 bytes @ 0x3B
   391     00DB                     	ds	4
   392     00DF                     main@val_ch1:
   393                           
   394                           ; 4 bytes @ 0x3F
   395     00DF                     	ds	4
   396     00E3                     main@prom_ch0:
   397                           
   398                           ; 4 bytes @ 0x43
   399     00E3                     	ds	4
   400     00E7                     main@prom_ch1:
   401                           
   402                           ; 4 bytes @ 0x47
   403     00E7                     	ds	4
   404                           
   405                           	psect	cstackCOMMON
   406     0070                     __pcstackCOMMON:
   407     0070                     ?_cmd:
   408     0070                     ?_num_s:	
   409                           ; 1 bytes @ 0x0
   410                           
   411     0070                     ?_delay:	
   412                           ; 1 bytes @ 0x0
   413                           
   414     0070                     ?_lcd_init:	
   415                           ; 1 bytes @ 0x0
   416                           
   417     0070                     ?_dat:	
   418                           ; 1 bytes @ 0x0
   419                           
   420     0070                     ?_ADC_Init_CH0:	
   421                           ; 1 bytes @ 0x0
   422                           
   423     0070                     ??_ADC_Init_CH0:	
   424                           ; 1 bytes @ 0x0
   425                           
   426     0070                     ?_ADC_Init_CH1:	
   427                           ; 1 bytes @ 0x0
   428                           
   429     0070                     ??_ADC_Init_CH1:	
   430                           ; 1 bytes @ 0x0
   431                           
   432     0070                     ?__Umul8_16:	
   433                           ; 1 bytes @ 0x0
   434                           
   435     0070                     ?_main:	
   436                           ; 2 bytes @ 0x0
   437                           
   438     0070                     ?___awdiv:	
   439                           ; 2 bytes @ 0x0
   440                           
   441     0070                     ?_sqrt:	
   442                           ; 2 bytes @ 0x0
   443                           
   444     0070                     ?___xxtofl:	
   445                           ; 4 bytes @ 0x0
   446                           
   447     0070                     __Umul8_16@multiplicand:	
   448                           ; 4 bytes @ 0x0
   449                           
   450     0070                     num_s@val:	
   451                           ; 1 bytes @ 0x0
   452                           
   453     0070                     delay@cnt:	
   454                           ; 2 bytes @ 0x0
   455                           
   456     0070                     ___awdiv@divisor:	
   457                           ; 2 bytes @ 0x0
   458                           
   459     0070                     sqrt@a:	
   460                           ; 2 bytes @ 0x0
   461                           
   462     0070                     ___xxtofl@val:	
   463                           ; 4 bytes @ 0x0
   464                           
   465                           
   466                           ; 4 bytes @ 0x0
   467     0070                     	ds	2
   468     0072                     ??_cmd:
   469     0072                     ??__Umul8_16:	
   470                           ; 1 bytes @ 0x2
   471                           
   472     0072                     ??_delay:	
   473                           ; 1 bytes @ 0x2
   474                           
   475     0072                     ??_dat:	
   476                           ; 1 bytes @ 0x2
   477                           
   478     0072                     ?_ADC_Read:	
   479                           ; 1 bytes @ 0x2
   480                           
   481     0072                     ?_ADC_Read_1:	
   482                           ; 2 bytes @ 0x2
   483                           
   484     0072                     num_s@flag:	
   485                           ; 2 bytes @ 0x2
   486                           
   487     0072                     cmd@a:	
   488                           ; 1 bytes @ 0x2
   489                           
   490     0072                     dat@b:	
   491                           ; 1 bytes @ 0x2
   492                           
   493     0072                     ADC_Read@adcChannel:	
   494                           ; 1 bytes @ 0x2
   495                           
   496     0072                     ADC_Read_1@adcChannel:	
   497                           ; 2 bytes @ 0x2
   498                           
   499     0072                     ___awdiv@dividend:	
   500                           ; 2 bytes @ 0x2
   501                           
   502                           
   503                           ; 2 bytes @ 0x2
   504     0072                     	ds	1
   505     0073                     ??_num_s:
   506     0073                     ??_lcd_init:	
   507                           ; 1 bytes @ 0x3
   508                           
   509     0073                     ?_show:	
   510                           ; 1 bytes @ 0x3
   511                           
   512     0073                     show@s:	
   513                           ; 1 bytes @ 0x3
   514                           
   515                           
   516                           ; 2 bytes @ 0x3
   517     0073                     	ds	1
   518     0074                     ??_sqrt:
   519     0074                     ??_ADC_Read:	
   520                           ; 1 bytes @ 0x4
   521                           
   522     0074                     ??_ADC_Read_1:	
   523                           ; 1 bytes @ 0x4
   524                           
   525     0074                     ??___awdiv:	
   526                           ; 1 bytes @ 0x4
   527                           
   528     0074                     ??___xxtofl:	
   529                           ; 1 bytes @ 0x4
   530                           
   531     0074                     ___awdiv@counter:	
   532                           ; 1 bytes @ 0x4
   533                           
   534     0074                     __Umul8_16@product:	
   535                           ; 1 bytes @ 0x4
   536                           
   537                           
   538                           ; 2 bytes @ 0x4
   539     0074                     	ds	1
   540     0075                     ??_show:
   541     0075                     ___awdiv@sign:	
   542                           ; 1 bytes @ 0x5
   543                           
   544                           
   545                           ; 1 bytes @ 0x5
   546     0075                     	ds	1
   547     0076                     ___awdiv@quotient:
   548     0076                     __Umul8_16@word_mpld:	
   549                           ; 2 bytes @ 0x6
   550                           
   551                           
   552                           ; 2 bytes @ 0x6
   553     0076                     	ds	2
   554     0078                     __Umul8_16@multiplier:
   555     0078                     ___xxtofl@sign:	
   556                           ; 1 bytes @ 0x8
   557                           
   558                           
   559                           ; 1 bytes @ 0x8
   560     0078                     	ds	1
   561     0079                     ___xxtofl@exp:
   562                           
   563                           ; 1 bytes @ 0x9
   564     0079                     	ds	1
   565     007A                     ___xxtofl@arg:
   566                           
   567                           ; 4 bytes @ 0xA
   568     007A                     	ds	4
   569     007E                     ??_float_LCD:
   570     007E                     ??___flsub:	
   571                           ; 1 bytes @ 0xE
   572                           
   573                           
   574                           	psect	cstackBANK0
   575     0020                     __pcstackBANK0:	
   576                           ; 1 bytes @ 0xE
   577                           
   578     0020                     sqrt@sign:
   579                           
   580                           ; 1 bytes @ 0x0
   581     0020                     	ds	1
   582     0021                     sqrt@i:
   583                           
   584                           ; 1 bytes @ 0x1
   585     0021                     	ds	1
   586     0022                     sqrt@tfrac:
   587                           
   588                           ; 4 bytes @ 0x2
   589     0022                     	ds	4
   590     0026                     sqrt@p:
   591                           
   592                           ; 1 bytes @ 0x6
   593     0026                     	ds	1
   594     0027                     sqrt@grs:
   595                           
   596                           ; 4 bytes @ 0x7
   597     0027                     	ds	4
   598     002B                     sqrt@exp:
   599                           
   600                           ; 2 bytes @ 0xB
   601     002B                     	ds	2
   602     002D                     sqrt@root:
   603                           
   604                           ; 4 bytes @ 0xD
   605     002D                     	ds	4
   606     0031                     sqrt@frac:
   607                           
   608                           ; 4 bytes @ 0x11
   609     0031                     	ds	4
   610     0035                     ?___flmul:
   611     0035                     ___flmul@b:	
   612                           ; 4 bytes @ 0x15
   613                           
   614                           
   615                           ; 4 bytes @ 0x15
   616     0035                     	ds	4
   617     0039                     ___flmul@a:
   618                           
   619                           ; 4 bytes @ 0x19
   620     0039                     	ds	4
   621     003D                     ??___flmul:
   622                           
   623                           ; 1 bytes @ 0x1D
   624     003D                     	ds	5
   625     0042                     ___flmul@sign:
   626                           
   627                           ; 1 bytes @ 0x22
   628     0042                     	ds	1
   629     0043                     ___flmul@grs:
   630                           
   631                           ; 4 bytes @ 0x23
   632     0043                     	ds	4
   633     0047                     ___flmul@aexp:
   634                           
   635                           ; 1 bytes @ 0x27
   636     0047                     	ds	1
   637     0048                     ___flmul@bexp:
   638                           
   639                           ; 1 bytes @ 0x28
   640     0048                     	ds	1
   641     0049                     ___flmul@prod:
   642                           
   643                           ; 4 bytes @ 0x29
   644     0049                     	ds	4
   645     004D                     ___flmul@temp:
   646                           
   647                           ; 2 bytes @ 0x2D
   648     004D                     	ds	2
   649     004F                     ?___fldiv:
   650     004F                     ___fldiv@a:	
   651                           ; 4 bytes @ 0x2F
   652                           
   653                           
   654                           ; 4 bytes @ 0x2F
   655     004F                     	ds	4
   656     0053                     ___fldiv@b:
   657                           
   658                           ; 4 bytes @ 0x33
   659     0053                     	ds	4
   660     0057                     ??___fldiv:
   661                           
   662                           ; 1 bytes @ 0x37
   663     0057                     	ds	5
   664     005C                     ___fldiv@rem:
   665                           
   666                           ; 4 bytes @ 0x3C
   667     005C                     	ds	4
   668     0060                     ___fldiv@sign:
   669                           
   670                           ; 1 bytes @ 0x40
   671     0060                     	ds	1
   672     0061                     ___fldiv@new_exp:
   673                           
   674                           ; 2 bytes @ 0x41
   675     0061                     	ds	2
   676     0063                     ___fldiv@grs:
   677                           
   678                           ; 4 bytes @ 0x43
   679     0063                     	ds	4
   680     0067                     ___fldiv@bexp:
   681                           
   682                           ; 1 bytes @ 0x47
   683     0067                     	ds	1
   684     0068                     ___fldiv@aexp:
   685                           
   686                           ; 1 bytes @ 0x48
   687     0068                     	ds	1
   688     0069                     ?___fltol:
   689     0069                     ___fladd@signs:	
   690                           ; 4 bytes @ 0x49
   691                           
   692     0069                     ___fltol@f1:	
   693                           ; 1 bytes @ 0x49
   694                           
   695                           
   696                           ; 4 bytes @ 0x49
   697     0069                     	ds	1
   698     006A                     ___fladd@aexp:
   699                           
   700                           ; 1 bytes @ 0x4A
   701     006A                     	ds	1
   702     006B                     ___fladd@bexp:
   703                           
   704                           ; 1 bytes @ 0x4B
   705     006B                     	ds	1
   706     006C                     ___fladd@grs:
   707                           
   708                           ; 1 bytes @ 0x4C
   709     006C                     	ds	1
   710     006D                     ___fltol@sign1:
   711                           
   712                           ; 1 bytes @ 0x4D
   713     006D                     	ds	1
   714     006E                     ___fltol@exp1:
   715                           
   716                           ; 1 bytes @ 0x4E
   717     006E                     	ds	1
   718     006F                     ??_main:
   719                           
   720                           ; 1 bytes @ 0x4F
   721     006F                     	ds	1
   722                           
   723                           	psect	maintext
   724     028B                     __pmaintext:	
   725 ;;
   726 ;;Main: autosize = 0, tempsize = 1, incstack = 0, save=0
   727 ;;
   728 ;; *************** function _main *****************
   729 ;; Defined at:
   730 ;;		line 190 in file "main_scale.c"
   731 ;; Parameters:    Size  Location     Type
   732 ;;		None
   733 ;; Auto vars:     Size  Location     Type
   734 ;;  prom_ch1        4   71[BANK1 ] float 
   735 ;;  prom_ch0        4   67[BANK1 ] float 
   736 ;;  val_ch1         4   63[BANK1 ] float 
   737 ;;  val_ch0         4   59[BANK1 ] float 
   738 ;;  total_ch1       4   55[BANK1 ] float 
   739 ;;  total_ch0       4   51[BANK1 ] float 
   740 ;;  suma_ch1        4   44[BANK1 ] float 
   741 ;;  suma_ch0        4   40[BANK1 ] float 
   742 ;;  adcValue        2   48[BANK1 ] int 
   743 ;;  i               2    0        unsigned int 
   744 ;;  c2              1   50[BANK1 ] unsigned char 
   745 ;;  count           1   35[BANK1 ] unsigned char 
   746 ;; Return value:  Size  Location     Type
   747 ;;                  2  102[None  ] int 
   748 ;; Registers used:
   749 ;;		wreg, fsr0l, fsr0h, status,2, status,0, btemp+1, pclath, cstack
   750 ;; Tracked objects:
   751 ;;		On entry : B00/0
   752 ;;		On exit  : 0/0
   753 ;;		Unchanged: 0/0
   754 ;; Data sizes:     COMMON   BANK0   BANK1   BANK3   BANK2
   755 ;;      Params:         0       0       0       0       0
   756 ;;      Locals:         0       0      40       0       0
   757 ;;      Temps:          0       1       0       0       0
   758 ;;      Totals:         0       1      40       0       0
   759 ;;Total ram usage:       41 bytes
   760 ;; Hardware stack levels required when called: 3
   761 ;; This function calls:
   762 ;;		_ADC_Init_CH0
   763 ;;		_ADC_Init_CH1
   764 ;;		_ADC_Read
   765 ;;		_ADC_Read_1
   766 ;;		___fladd
   767 ;;		___fldiv
   768 ;;		___flmul
   769 ;;		___xxtofl
   770 ;;		_cmd
   771 ;;		_float_LCD
   772 ;;		_lcd_init
   773 ;;		_show
   774 ;;		_sqrt
   775 ;; This function is called by:
   776 ;;		Startup code after reset
   777 ;; This function uses a non-reentrant model
   778 ;;
   779                           
   780     028B                     _main:	
   781                           ;psect for function _main
   782                           
   783     028B                     l2683:	
   784                           ;incstack = 0
   785                           ; Regs used in _main: [wreg-fsr0h+status,2+status,0+btemp+1+pclath+cstack]
   786                           
   787                           
   788                           ;main_scale.c: 194:     TRISB = 0x00;
   789     028B  1683               	bsf	3,5	;RP0=1, select bank1
   790     028C  1303               	bcf	3,6	;RP1=0, select bank1
   791     028D  0186               	clrf	6	;volatile
   792                           
   793                           ;main_scale.c: 195:     TRISD = 0x00;
   794     028E  0188               	clrf	8	;volatile
   795     028F                     l2685:
   796                           
   797                           ;main_scale.c: 196:     TRISC4 = 0;
   798     028F  1207               	bcf	7,4	;volatile
   799     0290                     l2687:
   800                           
   801                           ;main_scale.c: 199:     ADC_Init_CH0();
   802     0290  120A  158A  2000  120A  118A  	fcall	_ADC_Init_CH0
   803     0295                     l2689:
   804                           
   805                           ;main_scale.c: 200:     char count = 0;
   806     0295  1683               	bsf	3,5	;RP0=1, select bank1
   807     0296  1303               	bcf	3,6	;RP1=0, select bank1
   808     0297  01C3               	clrf	main@count^(0+128)
   809     0298                     l2691:
   810                           
   811                           ;main_scale.c: 201:     char c2 = 31;
   812     0298  301F               	movlw	31
   813     0299  00D2               	movwf	main@c2^(0+128)
   814     029A                     l2693:
   815                           
   816                           ;main_scale.c: 203:     float suma_ch0 = 0;
   817     029A  3000               	movlw	0
   818     029B  00CB               	movwf	(main@suma_ch0+3)^(0+128)
   819     029C  3000               	movlw	0
   820     029D  00CA               	movwf	(main@suma_ch0+2)^(0+128)
   821     029E  3000               	movlw	0
   822     029F  00C9               	movwf	(main@suma_ch0+1)^(0+128)
   823     02A0  3000               	movlw	0
   824     02A1  00C8               	movwf	main@suma_ch0^(0+128)
   825     02A2                     l2695:
   826     02A2                     l2697:
   827                           
   828                           ;main_scale.c: 205:     float prom_ch0 = 0;
   829     02A2  3000               	movlw	0
   830     02A3  00E6               	movwf	(main@prom_ch0+3)^(0+128)
   831     02A4  3000               	movlw	0
   832     02A5  00E5               	movwf	(main@prom_ch0+2)^(0+128)
   833     02A6  3000               	movlw	0
   834     02A7  00E4               	movwf	(main@prom_ch0+1)^(0+128)
   835     02A8  3000               	movlw	0
   836     02A9  00E3               	movwf	main@prom_ch0^(0+128)
   837     02AA                     l2699:
   838     02AA                     l2701:
   839                           
   840                           ;main_scale.c: 208:     float suma_ch1 = 0;
   841     02AA  3000               	movlw	0
   842     02AB  00CF               	movwf	(main@suma_ch1+3)^(0+128)
   843     02AC  3000               	movlw	0
   844     02AD  00CE               	movwf	(main@suma_ch1+2)^(0+128)
   845     02AE  3000               	movlw	0
   846     02AF  00CD               	movwf	(main@suma_ch1+1)^(0+128)
   847     02B0  3000               	movlw	0
   848     02B1  00CC               	movwf	main@suma_ch1^(0+128)
   849     02B2                     l2703:
   850     02B2                     l2705:
   851                           
   852                           ;main_scale.c: 210:     float prom_ch1 = 0;
   853     02B2  3000               	movlw	0
   854     02B3  00EA               	movwf	(main@prom_ch1+3)^(0+128)
   855     02B4  3000               	movlw	0
   856     02B5  00E9               	movwf	(main@prom_ch1+2)^(0+128)
   857     02B6  3000               	movlw	0
   858     02B7  00E8               	movwf	(main@prom_ch1+1)^(0+128)
   859     02B8  3000               	movlw	0
   860     02B9  00E7               	movwf	main@prom_ch1^(0+128)
   861     02BA                     l2707:
   862     02BA                     l2709:
   863                           
   864                           ;main_scale.c: 212:     unsigned int i;;main_scale.c: 213:     lcd_init();
   865     02BA  160A  118A  2486  120A  118A  	fcall	_lcd_init
   866     02BF                     l2711:
   867                           
   868                           ;main_scale.c: 214:     cmd(0x8A);
   869     02BF  308A               	movlw	138
   870     02C0  160A  118A  245C  120A  118A  	fcall	_cmd
   871     02C5                     l2713:
   872                           
   873                           ;main_scale.c: 215:     show("IDIE");
   874     02C5  3011               	movlw	(low ((STR_1-__stringbase)| (0+32768)))& (0+255)
   875     02C6  00F3               	movwf	show@s
   876     02C7  3080               	movlw	128
   877     02C8  00F4               	movwf	show@s+1
   878     02C9  160A  118A  24C3  120A  118A  	fcall	_show
   879     02CE                     l2715:
   880                           
   881                           ;main_scale.c: 217:     {;main_scale.c: 218:         _delay((unsigned long)((0.416)*(400
      +                          0000/4000.0)));
   882     02CE  3089               	movlw	137
   883     02CF  1283               	bcf	3,5	;RP0=0, select bank0
   884     02D0  1303               	bcf	3,6	;RP1=0, select bank0
   885     02D1  00EF               	movwf	??_main
   886     02D2                     u3657:
   887     02D2  0BEF               	decfsz	??_main,f
   888     02D3  2AD2               	goto	u3657
   889     02D4  2AD5               	nop2
   890     02D5                     l2717:
   891                           
   892                           ;main_scale.c: 220:         ADC_Init_CH0();
   893     02D5  120A  158A  2000  120A  118A  	fcall	_ADC_Init_CH0
   894     02DA                     l2719:
   895                           
   896                           ;main_scale.c: 221:         adcValue = ADC_Read(0);
   897     02DA  3000               	movlw	0
   898     02DB  00F2               	movwf	ADC_Read@adcChannel
   899     02DC  00F3               	movwf	ADC_Read@adcChannel+1
   900     02DD  160A  118A  2510  120A  118A  	fcall	_ADC_Read
   901     02E2  0873               	movf	?_ADC_Read+1,w
   902     02E3  1683               	bsf	3,5	;RP0=1, select bank1
   903     02E4  1303               	bcf	3,6	;RP1=0, select bank1
   904     02E5  00D1               	movwf	(main@adcValue+1)^(0+128)
   905     02E6  0872               	movf	?_ADC_Read,w
   906     02E7  00D0               	movwf	main@adcValue^(0+128)
   907     02E8                     l2721:
   908                           
   909                           ;main_scale.c: 222:         val_ch0 = (((float)adcValue*5/1024)-2.5);
   910     02E8  30C0               	movlw	192
   911     02E9  00A3               	movwf	(___fladd@b+3)^(0+128)
   912     02EA  3020               	movlw	32
   913     02EB  00A2               	movwf	(___fladd@b+2)^(0+128)
   914     02EC  3000               	movlw	0
   915     02ED  00A1               	movwf	(___fladd@b+1)^(0+128)
   916     02EE  3000               	movlw	0
   917     02EF  00A0               	movwf	___fladd@b^(0+128)
   918     02F0  3044               	movlw	68
   919     02F1  1283               	bcf	3,5	;RP0=0, select bank0
   920     02F2  1303               	bcf	3,6	;RP1=0, select bank0
   921     02F3  00D2               	movwf	___fldiv@a+3
   922     02F4  3080               	movlw	128
   923     02F5  00D1               	movwf	___fldiv@a+2
   924     02F6  3000               	movlw	0
   925     02F7  00D0               	movwf	___fldiv@a+1
   926     02F8  3000               	movlw	0
   927     02F9  00CF               	movwf	___fldiv@a
   928     02FA  3040               	movlw	64
   929     02FB  00B8               	movwf	___flmul@b+3
   930     02FC  30A0               	movlw	160
   931     02FD  00B7               	movwf	___flmul@b+2
   932     02FE  3000               	movlw	0
   933     02FF  00B6               	movwf	___flmul@b+1
   934     0300  3000               	movlw	0
   935     0301  00B5               	movwf	___flmul@b
   936     0302  1683               	bsf	3,5	;RP0=1, select bank1
   937     0303  1303               	bcf	3,6	;RP1=0, select bank1
   938     0304  0850               	movf	main@adcValue^(0+128),w
   939     0305  00F0               	movwf	___xxtofl@val
   940     0306  0851               	movf	(main@adcValue+1)^(0+128),w
   941     0307  00F1               	movwf	___xxtofl@val+1
   942     0308  3000               	movlw	0
   943     0309  1BF1               	btfsc	___xxtofl@val+1,7
   944     030A  30FF               	movlw	255
   945     030B  00F2               	movwf	___xxtofl@val+2
   946     030C  00F3               	movwf	___xxtofl@val+3
   947     030D  3001               	movlw	1
   948     030E  160A  118A  2579  120A  118A  	fcall	___xxtofl
   949     0313  0873               	movf	?___xxtofl+3,w
   950     0314  1283               	bcf	3,5	;RP0=0, select bank0
   951     0315  1303               	bcf	3,6	;RP1=0, select bank0
   952     0316  00BC               	movwf	___flmul@a+3
   953     0317  0872               	movf	?___xxtofl+2,w
   954     0318  00BB               	movwf	___flmul@a+2
   955     0319  0871               	movf	?___xxtofl+1,w
   956     031A  00BA               	movwf	___flmul@a+1
   957     031B  0870               	movf	?___xxtofl,w
   958     031C  00B9               	movwf	___flmul@a
   959     031D  120A  158A  24BB  120A  118A  	fcall	___flmul
   960     0322  1283               	bcf	3,5	;RP0=0, select bank0
   961     0323  1303               	bcf	3,6	;RP1=0, select bank0
   962     0324  0838               	movf	?___flmul+3,w
   963     0325  00D6               	movwf	___fldiv@b+3
   964     0326  0837               	movf	?___flmul+2,w
   965     0327  00D5               	movwf	___fldiv@b+2
   966     0328  0836               	movf	?___flmul+1,w
   967     0329  00D4               	movwf	___fldiv@b+1
   968     032A  0835               	movf	?___flmul,w
   969     032B  00D3               	movwf	___fldiv@b
   970     032C  160A  118A  2631  120A  118A  	fcall	___fldiv
   971     0331  1283               	bcf	3,5	;RP0=0, select bank0
   972     0332  1303               	bcf	3,6	;RP1=0, select bank0
   973     0333  0852               	movf	?___fldiv+3,w
   974     0334  1683               	bsf	3,5	;RP0=1, select bank1
   975     0335  1303               	bcf	3,6	;RP1=0, select bank1
   976     0336  00A7               	movwf	(___fladd@a+3)^(0+128)
   977     0337  1283               	bcf	3,5	;RP0=0, select bank0
   978     0338  1303               	bcf	3,6	;RP1=0, select bank0
   979     0339  0851               	movf	?___fldiv+2,w
   980     033A  1683               	bsf	3,5	;RP0=1, select bank1
   981     033B  1303               	bcf	3,6	;RP1=0, select bank1
   982     033C  00A6               	movwf	(___fladd@a+2)^(0+128)
   983     033D  1283               	bcf	3,5	;RP0=0, select bank0
   984     033E  1303               	bcf	3,6	;RP1=0, select bank0
   985     033F  0850               	movf	?___fldiv+1,w
   986     0340  1683               	bsf	3,5	;RP0=1, select bank1
   987     0341  1303               	bcf	3,6	;RP1=0, select bank1
   988     0342  00A5               	movwf	(___fladd@a+1)^(0+128)
   989     0343  1283               	bcf	3,5	;RP0=0, select bank0
   990     0344  1303               	bcf	3,6	;RP1=0, select bank0
   991     0345  084F               	movf	?___fldiv,w
   992     0346  1683               	bsf	3,5	;RP0=1, select bank1
   993     0347  1303               	bcf	3,6	;RP1=0, select bank1
   994     0348  00A4               	movwf	___fladd@a^(0+128)
   995     0349  120A  158A  21C5  120A  118A  	fcall	___fladd
   996     034E  1683               	bsf	3,5	;RP0=1, select bank1
   997     034F  1303               	bcf	3,6	;RP1=0, select bank1
   998     0350  0823               	movf	(?___fladd+3)^(0+128),w
   999     0351  00DE               	movwf	(main@val_ch0+3)^(0+128)
  1000     0352  0822               	movf	(?___fladd+2)^(0+128),w
  1001     0353  00DD               	movwf	(main@val_ch0+2)^(0+128)
  1002     0354  0821               	movf	(?___fladd+1)^(0+128),w
  1003     0355  00DC               	movwf	(main@val_ch0+1)^(0+128)
  1004     0356  0820               	movf	?___fladd^(0+128),w
  1005     0357  00DB               	movwf	main@val_ch0^(0+128)
  1006     0358                     l2723:
  1007                           
  1008                           ;main_scale.c: 223:         val_ch0 = val_ch0*val_ch0*0.000416;
  1009     0358  085E               	movf	(main@val_ch0+3)^(0+128),w
  1010     0359  1283               	bcf	3,5	;RP0=0, select bank0
  1011     035A  1303               	bcf	3,6	;RP1=0, select bank0
  1012     035B  00B8               	movwf	___flmul@b+3
  1013     035C  1683               	bsf	3,5	;RP0=1, select bank1
  1014     035D  1303               	bcf	3,6	;RP1=0, select bank1
  1015     035E  085D               	movf	(main@val_ch0+2)^(0+128),w
  1016     035F  1283               	bcf	3,5	;RP0=0, select bank0
  1017     0360  1303               	bcf	3,6	;RP1=0, select bank0
  1018     0361  00B7               	movwf	___flmul@b+2
  1019     0362  1683               	bsf	3,5	;RP0=1, select bank1
  1020     0363  1303               	bcf	3,6	;RP1=0, select bank1
  1021     0364  085C               	movf	(main@val_ch0+1)^(0+128),w
  1022     0365  1283               	bcf	3,5	;RP0=0, select bank0
  1023     0366  1303               	bcf	3,6	;RP1=0, select bank0
  1024     0367  00B6               	movwf	___flmul@b+1
  1025     0368  1683               	bsf	3,5	;RP0=1, select bank1
  1026     0369  1303               	bcf	3,6	;RP1=0, select bank1
  1027     036A  085B               	movf	main@val_ch0^(0+128),w
  1028     036B  1283               	bcf	3,5	;RP0=0, select bank0
  1029     036C  1303               	bcf	3,6	;RP1=0, select bank0
  1030     036D  00B5               	movwf	___flmul@b
  1031     036E  1683               	bsf	3,5	;RP0=1, select bank1
  1032     036F  1303               	bcf	3,6	;RP1=0, select bank1
  1033     0370  085E               	movf	(main@val_ch0+3)^(0+128),w
  1034     0371  1283               	bcf	3,5	;RP0=0, select bank0
  1035     0372  1303               	bcf	3,6	;RP1=0, select bank0
  1036     0373  00BC               	movwf	___flmul@a+3
  1037     0374  1683               	bsf	3,5	;RP0=1, select bank1
  1038     0375  1303               	bcf	3,6	;RP1=0, select bank1
  1039     0376  085D               	movf	(main@val_ch0+2)^(0+128),w
  1040     0377  1283               	bcf	3,5	;RP0=0, select bank0
  1041     0378  1303               	bcf	3,6	;RP1=0, select bank0
  1042     0379  00BB               	movwf	___flmul@a+2
  1043     037A  1683               	bsf	3,5	;RP0=1, select bank1
  1044     037B  1303               	bcf	3,6	;RP1=0, select bank1
  1045     037C  085C               	movf	(main@val_ch0+1)^(0+128),w
  1046     037D  1283               	bcf	3,5	;RP0=0, select bank0
  1047     037E  1303               	bcf	3,6	;RP1=0, select bank0
  1048     037F  00BA               	movwf	___flmul@a+1
  1049     0380  1683               	bsf	3,5	;RP0=1, select bank1
  1050     0381  1303               	bcf	3,6	;RP1=0, select bank1
  1051     0382  085B               	movf	main@val_ch0^(0+128),w
  1052     0383  1283               	bcf	3,5	;RP0=0, select bank0
  1053     0384  1303               	bcf	3,6	;RP1=0, select bank0
  1054     0385  00B9               	movwf	___flmul@a
  1055     0386  120A  158A  24BB  120A  118A  	fcall	___flmul
  1056     038B  1283               	bcf	3,5	;RP0=0, select bank0
  1057     038C  1303               	bcf	3,6	;RP1=0, select bank0
  1058     038D  0838               	movf	?___flmul+3,w
  1059     038E  1683               	bsf	3,5	;RP0=1, select bank1
  1060     038F  1303               	bcf	3,6	;RP1=0, select bank1
  1061     0390  00C7               	movwf	(_main$779+3)^(0+128)
  1062     0391  1283               	bcf	3,5	;RP0=0, select bank0
  1063     0392  1303               	bcf	3,6	;RP1=0, select bank0
  1064     0393  0837               	movf	?___flmul+2,w
  1065     0394  1683               	bsf	3,5	;RP0=1, select bank1
  1066     0395  1303               	bcf	3,6	;RP1=0, select bank1
  1067     0396  00C6               	movwf	(_main$779+2)^(0+128)
  1068     0397  1283               	bcf	3,5	;RP0=0, select bank0
  1069     0398  1303               	bcf	3,6	;RP1=0, select bank0
  1070     0399  0836               	movf	?___flmul+1,w
  1071     039A  1683               	bsf	3,5	;RP0=1, select bank1
  1072     039B  1303               	bcf	3,6	;RP1=0, select bank1
  1073     039C  00C5               	movwf	(_main$779+1)^(0+128)
  1074     039D  1283               	bcf	3,5	;RP0=0, select bank0
  1075     039E  1303               	bcf	3,6	;RP1=0, select bank0
  1076     039F  0835               	movf	?___flmul,w
  1077     03A0  1683               	bsf	3,5	;RP0=1, select bank1
  1078     03A1  1303               	bcf	3,6	;RP1=0, select bank1
  1079     03A2  00C4               	movwf	_main$779^(0+128)
  1080     03A3                     l2725:
  1081                           
  1082                           ;main_scale.c: 223:         val_ch0 = val_ch0*val_ch0*0.000416;
  1083     03A3  3039               	movlw	57
  1084     03A4  1283               	bcf	3,5	;RP0=0, select bank0
  1085     03A5  1303               	bcf	3,6	;RP1=0, select bank0
  1086     03A6  00B8               	movwf	___flmul@b+3
  1087     03A7  30DA               	movlw	218
  1088     03A8  00B7               	movwf	___flmul@b+2
  1089     03A9  301A               	movlw	26
  1090     03AA  00B6               	movwf	___flmul@b+1
  1091     03AB  3093               	movlw	147
  1092     03AC  00B5               	movwf	___flmul@b
  1093     03AD  1683               	bsf	3,5	;RP0=1, select bank1
  1094     03AE  1303               	bcf	3,6	;RP1=0, select bank1
  1095     03AF  0847               	movf	(_main$779+3)^(0+128),w
  1096     03B0  1283               	bcf	3,5	;RP0=0, select bank0
  1097     03B1  1303               	bcf	3,6	;RP1=0, select bank0
  1098     03B2  00BC               	movwf	___flmul@a+3
  1099     03B3  1683               	bsf	3,5	;RP0=1, select bank1
  1100     03B4  1303               	bcf	3,6	;RP1=0, select bank1
  1101     03B5  0846               	movf	(_main$779+2)^(0+128),w
  1102     03B6  1283               	bcf	3,5	;RP0=0, select bank0
  1103     03B7  1303               	bcf	3,6	;RP1=0, select bank0
  1104     03B8  00BB               	movwf	___flmul@a+2
  1105     03B9  1683               	bsf	3,5	;RP0=1, select bank1
  1106     03BA  1303               	bcf	3,6	;RP1=0, select bank1
  1107     03BB  0845               	movf	(_main$779+1)^(0+128),w
  1108     03BC  1283               	bcf	3,5	;RP0=0, select bank0
  1109     03BD  1303               	bcf	3,6	;RP1=0, select bank0
  1110     03BE  00BA               	movwf	___flmul@a+1
  1111     03BF  1683               	bsf	3,5	;RP0=1, select bank1
  1112     03C0  1303               	bcf	3,6	;RP1=0, select bank1
  1113     03C1  0844               	movf	_main$779^(0+128),w
  1114     03C2  1283               	bcf	3,5	;RP0=0, select bank0
  1115     03C3  1303               	bcf	3,6	;RP1=0, select bank0
  1116     03C4  00B9               	movwf	___flmul@a
  1117     03C5  120A  158A  24BB  120A  118A  	fcall	___flmul
  1118     03CA  1283               	bcf	3,5	;RP0=0, select bank0
  1119     03CB  1303               	bcf	3,6	;RP1=0, select bank0
  1120     03CC  0838               	movf	?___flmul+3,w
  1121     03CD  1683               	bsf	3,5	;RP0=1, select bank1
  1122     03CE  1303               	bcf	3,6	;RP1=0, select bank1
  1123     03CF  00DE               	movwf	(main@val_ch0+3)^(0+128)
  1124     03D0  1283               	bcf	3,5	;RP0=0, select bank0
  1125     03D1  1303               	bcf	3,6	;RP1=0, select bank0
  1126     03D2  0837               	movf	?___flmul+2,w
  1127     03D3  1683               	bsf	3,5	;RP0=1, select bank1
  1128     03D4  1303               	bcf	3,6	;RP1=0, select bank1
  1129     03D5  00DD               	movwf	(main@val_ch0+2)^(0+128)
  1130     03D6  1283               	bcf	3,5	;RP0=0, select bank0
  1131     03D7  1303               	bcf	3,6	;RP1=0, select bank0
  1132     03D8  0836               	movf	?___flmul+1,w
  1133     03D9  1683               	bsf	3,5	;RP0=1, select bank1
  1134     03DA  1303               	bcf	3,6	;RP1=0, select bank1
  1135     03DB  00DC               	movwf	(main@val_ch0+1)^(0+128)
  1136     03DC  1283               	bcf	3,5	;RP0=0, select bank0
  1137     03DD  1303               	bcf	3,6	;RP1=0, select bank0
  1138     03DE  0835               	movf	?___flmul,w
  1139     03DF  1683               	bsf	3,5	;RP0=1, select bank1
  1140     03E0  1303               	bcf	3,6	;RP1=0, select bank1
  1141     03E1  00DB               	movwf	main@val_ch0^(0+128)
  1142     03E2                     l2727:
  1143                           
  1144                           ;main_scale.c: 224:         suma_ch0 += val_ch0;
  1145     03E2  085E               	movf	(main@val_ch0+3)^(0+128),w
  1146     03E3  00A3               	movwf	(___fladd@b+3)^(0+128)
  1147     03E4  085D               	movf	(main@val_ch0+2)^(0+128),w
  1148     03E5  00A2               	movwf	(___fladd@b+2)^(0+128)
  1149     03E6  085C               	movf	(main@val_ch0+1)^(0+128),w
  1150     03E7  00A1               	movwf	(___fladd@b+1)^(0+128)
  1151     03E8  085B               	movf	main@val_ch0^(0+128),w
  1152     03E9  00A0               	movwf	___fladd@b^(0+128)
  1153     03EA  084B               	movf	(main@suma_ch0+3)^(0+128),w
  1154     03EB  00A7               	movwf	(___fladd@a+3)^(0+128)
  1155     03EC  084A               	movf	(main@suma_ch0+2)^(0+128),w
  1156     03ED  00A6               	movwf	(___fladd@a+2)^(0+128)
  1157     03EE  0849               	movf	(main@suma_ch0+1)^(0+128),w
  1158     03EF  00A5               	movwf	(___fladd@a+1)^(0+128)
  1159     03F0  0848               	movf	main@suma_ch0^(0+128),w
  1160     03F1  00A4               	movwf	___fladd@a^(0+128)
  1161     03F2  120A  158A  21C5  120A  118A  	fcall	___fladd
  1162     03F7  1683               	bsf	3,5	;RP0=1, select bank1
  1163     03F8  1303               	bcf	3,6	;RP1=0, select bank1
  1164     03F9  0823               	movf	(?___fladd+3)^(0+128),w
  1165     03FA  00CB               	movwf	(main@suma_ch0+3)^(0+128)
  1166     03FB  0822               	movf	(?___fladd+2)^(0+128),w
  1167     03FC  00CA               	movwf	(main@suma_ch0+2)^(0+128)
  1168     03FD  0821               	movf	(?___fladd+1)^(0+128),w
  1169     03FE  00C9               	movwf	(main@suma_ch0+1)^(0+128)
  1170     03FF  0820               	movf	?___fladd^(0+128),w
  1171     0400  00C8               	movwf	main@suma_ch0^(0+128)
  1172     0401                     l2729:
  1173                           
  1174                           ;main_scale.c: 226:         ADC_Init_CH1();
  1175     0401  160A  118A  2444  120A  118A  	fcall	_ADC_Init_CH1
  1176     0406                     l2731:
  1177                           
  1178                           ;main_scale.c: 227:         adcValue = ADC_Read_1(0);
  1179     0406  3000               	movlw	0
  1180     0407  00F2               	movwf	ADC_Read_1@adcChannel
  1181     0408  00F3               	movwf	ADC_Read_1@adcChannel+1
  1182     0409  120A  118A  200A  120A  118A  	fcall	_ADC_Read_1
  1183     040E  0873               	movf	?_ADC_Read_1+1,w
  1184     040F  1683               	bsf	3,5	;RP0=1, select bank1
  1185     0410  1303               	bcf	3,6	;RP1=0, select bank1
  1186     0411  00D1               	movwf	(main@adcValue+1)^(0+128)
  1187     0412  0872               	movf	?_ADC_Read_1,w
  1188     0413  00D0               	movwf	main@adcValue^(0+128)
  1189     0414                     l2733:
  1190                           
  1191                           ;main_scale.c: 228:         val_ch1 = (((float)adcValue*5/1024)-2.5);
  1192     0414  30C0               	movlw	192
  1193     0415  00A3               	movwf	(___fladd@b+3)^(0+128)
  1194     0416  3020               	movlw	32
  1195     0417  00A2               	movwf	(___fladd@b+2)^(0+128)
  1196     0418  3000               	movlw	0
  1197     0419  00A1               	movwf	(___fladd@b+1)^(0+128)
  1198     041A  3000               	movlw	0
  1199     041B  00A0               	movwf	___fladd@b^(0+128)
  1200     041C  3044               	movlw	68
  1201     041D  1283               	bcf	3,5	;RP0=0, select bank0
  1202     041E  1303               	bcf	3,6	;RP1=0, select bank0
  1203     041F  00D2               	movwf	___fldiv@a+3
  1204     0420  3080               	movlw	128
  1205     0421  00D1               	movwf	___fldiv@a+2
  1206     0422  3000               	movlw	0
  1207     0423  00D0               	movwf	___fldiv@a+1
  1208     0424  3000               	movlw	0
  1209     0425  00CF               	movwf	___fldiv@a
  1210     0426  3040               	movlw	64
  1211     0427  00B8               	movwf	___flmul@b+3
  1212     0428  30A0               	movlw	160
  1213     0429  00B7               	movwf	___flmul@b+2
  1214     042A  3000               	movlw	0
  1215     042B  00B6               	movwf	___flmul@b+1
  1216     042C  3000               	movlw	0
  1217     042D  00B5               	movwf	___flmul@b
  1218     042E  1683               	bsf	3,5	;RP0=1, select bank1
  1219     042F  1303               	bcf	3,6	;RP1=0, select bank1
  1220     0430  0850               	movf	main@adcValue^(0+128),w
  1221     0431  00F0               	movwf	___xxtofl@val
  1222     0432  0851               	movf	(main@adcValue+1)^(0+128),w
  1223     0433  00F1               	movwf	___xxtofl@val+1
  1224     0434  3000               	movlw	0
  1225     0435  1BF1               	btfsc	___xxtofl@val+1,7
  1226     0436  30FF               	movlw	255
  1227     0437  00F2               	movwf	___xxtofl@val+2
  1228     0438  00F3               	movwf	___xxtofl@val+3
  1229     0439  3001               	movlw	1
  1230     043A  160A  118A  2579  120A  118A  	fcall	___xxtofl
  1231     043F  0873               	movf	?___xxtofl+3,w
  1232     0440  1283               	bcf	3,5	;RP0=0, select bank0
  1233     0441  1303               	bcf	3,6	;RP1=0, select bank0
  1234     0442  00BC               	movwf	___flmul@a+3
  1235     0443  0872               	movf	?___xxtofl+2,w
  1236     0444  00BB               	movwf	___flmul@a+2
  1237     0445  0871               	movf	?___xxtofl+1,w
  1238     0446  00BA               	movwf	___flmul@a+1
  1239     0447  0870               	movf	?___xxtofl,w
  1240     0448  00B9               	movwf	___flmul@a
  1241     0449  120A  158A  24BB  120A  118A  	fcall	___flmul
  1242     044E  1283               	bcf	3,5	;RP0=0, select bank0
  1243     044F  1303               	bcf	3,6	;RP1=0, select bank0
  1244     0450  0838               	movf	?___flmul+3,w
  1245     0451  00D6               	movwf	___fldiv@b+3
  1246     0452  0837               	movf	?___flmul+2,w
  1247     0453  00D5               	movwf	___fldiv@b+2
  1248     0454  0836               	movf	?___flmul+1,w
  1249     0455  00D4               	movwf	___fldiv@b+1
  1250     0456  0835               	movf	?___flmul,w
  1251     0457  00D3               	movwf	___fldiv@b
  1252     0458  160A  118A  2631  120A  118A  	fcall	___fldiv
  1253     045D  1283               	bcf	3,5	;RP0=0, select bank0
  1254     045E  1303               	bcf	3,6	;RP1=0, select bank0
  1255     045F  0852               	movf	?___fldiv+3,w
  1256     0460  1683               	bsf	3,5	;RP0=1, select bank1
  1257     0461  1303               	bcf	3,6	;RP1=0, select bank1
  1258     0462  00A7               	movwf	(___fladd@a+3)^(0+128)
  1259     0463  1283               	bcf	3,5	;RP0=0, select bank0
  1260     0464  1303               	bcf	3,6	;RP1=0, select bank0
  1261     0465  0851               	movf	?___fldiv+2,w
  1262     0466  1683               	bsf	3,5	;RP0=1, select bank1
  1263     0467  1303               	bcf	3,6	;RP1=0, select bank1
  1264     0468  00A6               	movwf	(___fladd@a+2)^(0+128)
  1265     0469  1283               	bcf	3,5	;RP0=0, select bank0
  1266     046A  1303               	bcf	3,6	;RP1=0, select bank0
  1267     046B  0850               	movf	?___fldiv+1,w
  1268     046C  1683               	bsf	3,5	;RP0=1, select bank1
  1269     046D  1303               	bcf	3,6	;RP1=0, select bank1
  1270     046E  00A5               	movwf	(___fladd@a+1)^(0+128)
  1271     046F  1283               	bcf	3,5	;RP0=0, select bank0
  1272     0470  1303               	bcf	3,6	;RP1=0, select bank0
  1273     0471  084F               	movf	?___fldiv,w
  1274     0472  1683               	bsf	3,5	;RP0=1, select bank1
  1275     0473  1303               	bcf	3,6	;RP1=0, select bank1
  1276     0474  00A4               	movwf	___fladd@a^(0+128)
  1277     0475  120A  158A  21C5  120A  118A  	fcall	___fladd
  1278     047A  1683               	bsf	3,5	;RP0=1, select bank1
  1279     047B  1303               	bcf	3,6	;RP1=0, select bank1
  1280     047C  0823               	movf	(?___fladd+3)^(0+128),w
  1281     047D  00E2               	movwf	(main@val_ch1+3)^(0+128)
  1282     047E  0822               	movf	(?___fladd+2)^(0+128),w
  1283     047F  00E1               	movwf	(main@val_ch1+2)^(0+128)
  1284     0480  0821               	movf	(?___fladd+1)^(0+128),w
  1285     0481  00E0               	movwf	(main@val_ch1+1)^(0+128)
  1286     0482  0820               	movf	?___fladd^(0+128),w
  1287     0483  00DF               	movwf	main@val_ch1^(0+128)
  1288     0484                     l2735:
  1289                           
  1290                           ;main_scale.c: 229:         val_ch1 = val_ch1*val_ch1*0.000416;
  1291     0484  0862               	movf	(main@val_ch1+3)^(0+128),w
  1292     0485  1283               	bcf	3,5	;RP0=0, select bank0
  1293     0486  1303               	bcf	3,6	;RP1=0, select bank0
  1294     0487  00B8               	movwf	___flmul@b+3
  1295     0488  1683               	bsf	3,5	;RP0=1, select bank1
  1296     0489  1303               	bcf	3,6	;RP1=0, select bank1
  1297     048A  0861               	movf	(main@val_ch1+2)^(0+128),w
  1298     048B  1283               	bcf	3,5	;RP0=0, select bank0
  1299     048C  1303               	bcf	3,6	;RP1=0, select bank0
  1300     048D  00B7               	movwf	___flmul@b+2
  1301     048E  1683               	bsf	3,5	;RP0=1, select bank1
  1302     048F  1303               	bcf	3,6	;RP1=0, select bank1
  1303     0490  0860               	movf	(main@val_ch1+1)^(0+128),w
  1304     0491  1283               	bcf	3,5	;RP0=0, select bank0
  1305     0492  1303               	bcf	3,6	;RP1=0, select bank0
  1306     0493  00B6               	movwf	___flmul@b+1
  1307     0494  1683               	bsf	3,5	;RP0=1, select bank1
  1308     0495  1303               	bcf	3,6	;RP1=0, select bank1
  1309     0496  085F               	movf	main@val_ch1^(0+128),w
  1310     0497  1283               	bcf	3,5	;RP0=0, select bank0
  1311     0498  1303               	bcf	3,6	;RP1=0, select bank0
  1312     0499  00B5               	movwf	___flmul@b
  1313     049A  1683               	bsf	3,5	;RP0=1, select bank1
  1314     049B  1303               	bcf	3,6	;RP1=0, select bank1
  1315     049C  0862               	movf	(main@val_ch1+3)^(0+128),w
  1316     049D  1283               	bcf	3,5	;RP0=0, select bank0
  1317     049E  1303               	bcf	3,6	;RP1=0, select bank0
  1318     049F  00BC               	movwf	___flmul@a+3
  1319     04A0  1683               	bsf	3,5	;RP0=1, select bank1
  1320     04A1  1303               	bcf	3,6	;RP1=0, select bank1
  1321     04A2  0861               	movf	(main@val_ch1+2)^(0+128),w
  1322     04A3  1283               	bcf	3,5	;RP0=0, select bank0
  1323     04A4  1303               	bcf	3,6	;RP1=0, select bank0
  1324     04A5  00BB               	movwf	___flmul@a+2
  1325     04A6  1683               	bsf	3,5	;RP0=1, select bank1
  1326     04A7  1303               	bcf	3,6	;RP1=0, select bank1
  1327     04A8  0860               	movf	(main@val_ch1+1)^(0+128),w
  1328     04A9  1283               	bcf	3,5	;RP0=0, select bank0
  1329     04AA  1303               	bcf	3,6	;RP1=0, select bank0
  1330     04AB  00BA               	movwf	___flmul@a+1
  1331     04AC  1683               	bsf	3,5	;RP0=1, select bank1
  1332     04AD  1303               	bcf	3,6	;RP1=0, select bank1
  1333     04AE  085F               	movf	main@val_ch1^(0+128),w
  1334     04AF  1283               	bcf	3,5	;RP0=0, select bank0
  1335     04B0  1303               	bcf	3,6	;RP1=0, select bank0
  1336     04B1  00B9               	movwf	___flmul@a
  1337     04B2  120A  158A  24BB  120A  118A  	fcall	___flmul
  1338     04B7  1283               	bcf	3,5	;RP0=0, select bank0
  1339     04B8  1303               	bcf	3,6	;RP1=0, select bank0
  1340     04B9  0838               	movf	?___flmul+3,w
  1341     04BA  1683               	bsf	3,5	;RP0=1, select bank1
  1342     04BB  1303               	bcf	3,6	;RP1=0, select bank1
  1343     04BC  00C7               	movwf	(_main$779+3)^(0+128)
  1344     04BD  1283               	bcf	3,5	;RP0=0, select bank0
  1345     04BE  1303               	bcf	3,6	;RP1=0, select bank0
  1346     04BF  0837               	movf	?___flmul+2,w
  1347     04C0  1683               	bsf	3,5	;RP0=1, select bank1
  1348     04C1  1303               	bcf	3,6	;RP1=0, select bank1
  1349     04C2  00C6               	movwf	(_main$779+2)^(0+128)
  1350     04C3  1283               	bcf	3,5	;RP0=0, select bank0
  1351     04C4  1303               	bcf	3,6	;RP1=0, select bank0
  1352     04C5  0836               	movf	?___flmul+1,w
  1353     04C6  1683               	bsf	3,5	;RP0=1, select bank1
  1354     04C7  1303               	bcf	3,6	;RP1=0, select bank1
  1355     04C8  00C5               	movwf	(_main$779+1)^(0+128)
  1356     04C9  1283               	bcf	3,5	;RP0=0, select bank0
  1357     04CA  1303               	bcf	3,6	;RP1=0, select bank0
  1358     04CB  0835               	movf	?___flmul,w
  1359     04CC  1683               	bsf	3,5	;RP0=1, select bank1
  1360     04CD  1303               	bcf	3,6	;RP1=0, select bank1
  1361     04CE  00C4               	movwf	_main$779^(0+128)
  1362     04CF                     l2737:
  1363                           
  1364                           ;main_scale.c: 229:         val_ch1 = val_ch1*val_ch1*0.000416;
  1365     04CF  3039               	movlw	57
  1366     04D0  1283               	bcf	3,5	;RP0=0, select bank0
  1367     04D1  1303               	bcf	3,6	;RP1=0, select bank0
  1368     04D2  00B8               	movwf	___flmul@b+3
  1369     04D3  30DA               	movlw	218
  1370     04D4  00B7               	movwf	___flmul@b+2
  1371     04D5  301A               	movlw	26
  1372     04D6  00B6               	movwf	___flmul@b+1
  1373     04D7  3093               	movlw	147
  1374     04D8  00B5               	movwf	___flmul@b
  1375     04D9  1683               	bsf	3,5	;RP0=1, select bank1
  1376     04DA  1303               	bcf	3,6	;RP1=0, select bank1
  1377     04DB  0847               	movf	(_main$779+3)^(0+128),w
  1378     04DC  1283               	bcf	3,5	;RP0=0, select bank0
  1379     04DD  1303               	bcf	3,6	;RP1=0, select bank0
  1380     04DE  00BC               	movwf	___flmul@a+3
  1381     04DF  1683               	bsf	3,5	;RP0=1, select bank1
  1382     04E0  1303               	bcf	3,6	;RP1=0, select bank1
  1383     04E1  0846               	movf	(_main$779+2)^(0+128),w
  1384     04E2  1283               	bcf	3,5	;RP0=0, select bank0
  1385     04E3  1303               	bcf	3,6	;RP1=0, select bank0
  1386     04E4  00BB               	movwf	___flmul@a+2
  1387     04E5  1683               	bsf	3,5	;RP0=1, select bank1
  1388     04E6  1303               	bcf	3,6	;RP1=0, select bank1
  1389     04E7  0845               	movf	(_main$779+1)^(0+128),w
  1390     04E8  1283               	bcf	3,5	;RP0=0, select bank0
  1391     04E9  1303               	bcf	3,6	;RP1=0, select bank0
  1392     04EA  00BA               	movwf	___flmul@a+1
  1393     04EB  1683               	bsf	3,5	;RP0=1, select bank1
  1394     04EC  1303               	bcf	3,6	;RP1=0, select bank1
  1395     04ED  0844               	movf	_main$779^(0+128),w
  1396     04EE  1283               	bcf	3,5	;RP0=0, select bank0
  1397     04EF  1303               	bcf	3,6	;RP1=0, select bank0
  1398     04F0  00B9               	movwf	___flmul@a
  1399     04F1  120A  158A  24BB  120A  118A  	fcall	___flmul
  1400     04F6  1283               	bcf	3,5	;RP0=0, select bank0
  1401     04F7  1303               	bcf	3,6	;RP1=0, select bank0
  1402     04F8  0838               	movf	?___flmul+3,w
  1403     04F9  1683               	bsf	3,5	;RP0=1, select bank1
  1404     04FA  1303               	bcf	3,6	;RP1=0, select bank1
  1405     04FB  00E2               	movwf	(main@val_ch1+3)^(0+128)
  1406     04FC  1283               	bcf	3,5	;RP0=0, select bank0
  1407     04FD  1303               	bcf	3,6	;RP1=0, select bank0
  1408     04FE  0837               	movf	?___flmul+2,w
  1409     04FF  1683               	bsf	3,5	;RP0=1, select bank1
  1410     0500  1303               	bcf	3,6	;RP1=0, select bank1
  1411     0501  00E1               	movwf	(main@val_ch1+2)^(0+128)
  1412     0502  1283               	bcf	3,5	;RP0=0, select bank0
  1413     0503  1303               	bcf	3,6	;RP1=0, select bank0
  1414     0504  0836               	movf	?___flmul+1,w
  1415     0505  1683               	bsf	3,5	;RP0=1, select bank1
  1416     0506  1303               	bcf	3,6	;RP1=0, select bank1
  1417     0507  00E0               	movwf	(main@val_ch1+1)^(0+128)
  1418     0508  1283               	bcf	3,5	;RP0=0, select bank0
  1419     0509  1303               	bcf	3,6	;RP1=0, select bank0
  1420     050A  0835               	movf	?___flmul,w
  1421     050B  1683               	bsf	3,5	;RP0=1, select bank1
  1422     050C  1303               	bcf	3,6	;RP1=0, select bank1
  1423     050D  00DF               	movwf	main@val_ch1^(0+128)
  1424     050E                     l2739:
  1425                           
  1426                           ;main_scale.c: 230:         suma_ch1 += val_ch1;
  1427     050E  0862               	movf	(main@val_ch1+3)^(0+128),w
  1428     050F  00A3               	movwf	(___fladd@b+3)^(0+128)
  1429     0510  0861               	movf	(main@val_ch1+2)^(0+128),w
  1430     0511  00A2               	movwf	(___fladd@b+2)^(0+128)
  1431     0512  0860               	movf	(main@val_ch1+1)^(0+128),w
  1432     0513  00A1               	movwf	(___fladd@b+1)^(0+128)
  1433     0514  085F               	movf	main@val_ch1^(0+128),w
  1434     0515  00A0               	movwf	___fladd@b^(0+128)
  1435     0516  084F               	movf	(main@suma_ch1+3)^(0+128),w
  1436     0517  00A7               	movwf	(___fladd@a+3)^(0+128)
  1437     0518  084E               	movf	(main@suma_ch1+2)^(0+128),w
  1438     0519  00A6               	movwf	(___fladd@a+2)^(0+128)
  1439     051A  084D               	movf	(main@suma_ch1+1)^(0+128),w
  1440     051B  00A5               	movwf	(___fladd@a+1)^(0+128)
  1441     051C  084C               	movf	main@suma_ch1^(0+128),w
  1442     051D  00A4               	movwf	___fladd@a^(0+128)
  1443     051E  120A  158A  21C5  120A  118A  	fcall	___fladd
  1444     0523  1683               	bsf	3,5	;RP0=1, select bank1
  1445     0524  1303               	bcf	3,6	;RP1=0, select bank1
  1446     0525  0823               	movf	(?___fladd+3)^(0+128),w
  1447     0526  00CF               	movwf	(main@suma_ch1+3)^(0+128)
  1448     0527  0822               	movf	(?___fladd+2)^(0+128),w
  1449     0528  00CE               	movwf	(main@suma_ch1+2)^(0+128)
  1450     0529  0821               	movf	(?___fladd+1)^(0+128),w
  1451     052A  00CD               	movwf	(main@suma_ch1+1)^(0+128)
  1452     052B  0820               	movf	?___fladd^(0+128),w
  1453     052C  00CC               	movwf	main@suma_ch1^(0+128)
  1454     052D                     l2741:
  1455                           
  1456                           ;main_scale.c: 232:         count++;
  1457     052D  3001               	movlw	1
  1458     052E  00FF               	movwf	btemp+1
  1459     052F  087F               	movf	btemp+1,w
  1460     0530  07C3               	addwf	main@count^(0+128),f
  1461     0531                     l2743:
  1462                           
  1463                           ;main_scale.c: 236:         if (count == 40){
  1464     0531  3028               	movlw	40
  1465     0532  0643               	xorwf	main@count^(0+128),w
  1466     0533  1D03               	btfss	3,2
  1467     0534  2D36               	goto	u3621
  1468     0535  2D37               	goto	u3620
  1469     0536                     u3621:
  1470     0536  2ACE               	goto	l2715
  1471     0537                     u3620:
  1472     0537                     l2745:
  1473                           
  1474                           ;main_scale.c: 237:             count = 0;
  1475     0537  01C3               	clrf	main@count^(0+128)
  1476     0538                     l2747:
  1477     0538                     l2749:
  1478     0538                     l2751:
  1479                           
  1480                           ;main_scale.c: 241:             total_ch0 = suma_ch0*60;
  1481     0538  3042               	movlw	66
  1482     0539  1283               	bcf	3,5	;RP0=0, select bank0
  1483     053A  1303               	bcf	3,6	;RP1=0, select bank0
  1484     053B  00B8               	movwf	___flmul@b+3
  1485     053C  3070               	movlw	112
  1486     053D  00B7               	movwf	___flmul@b+2
  1487     053E  3000               	movlw	0
  1488     053F  00B6               	movwf	___flmul@b+1
  1489     0540  3000               	movlw	0
  1490     0541  00B5               	movwf	___flmul@b
  1491     0542  1683               	bsf	3,5	;RP0=1, select bank1
  1492     0543  1303               	bcf	3,6	;RP1=0, select bank1
  1493     0544  084B               	movf	(main@suma_ch0+3)^(0+128),w
  1494     0545  1283               	bcf	3,5	;RP0=0, select bank0
  1495     0546  1303               	bcf	3,6	;RP1=0, select bank0
  1496     0547  00BC               	movwf	___flmul@a+3
  1497     0548  1683               	bsf	3,5	;RP0=1, select bank1
  1498     0549  1303               	bcf	3,6	;RP1=0, select bank1
  1499     054A  084A               	movf	(main@suma_ch0+2)^(0+128),w
  1500     054B  1283               	bcf	3,5	;RP0=0, select bank0
  1501     054C  1303               	bcf	3,6	;RP1=0, select bank0
  1502     054D  00BB               	movwf	___flmul@a+2
  1503     054E  1683               	bsf	3,5	;RP0=1, select bank1
  1504     054F  1303               	bcf	3,6	;RP1=0, select bank1
  1505     0550  0849               	movf	(main@suma_ch0+1)^(0+128),w
  1506     0551  1283               	bcf	3,5	;RP0=0, select bank0
  1507     0552  1303               	bcf	3,6	;RP1=0, select bank0
  1508     0553  00BA               	movwf	___flmul@a+1
  1509     0554  1683               	bsf	3,5	;RP0=1, select bank1
  1510     0555  1303               	bcf	3,6	;RP1=0, select bank1
  1511     0556  0848               	movf	main@suma_ch0^(0+128),w
  1512     0557  1283               	bcf	3,5	;RP0=0, select bank0
  1513     0558  1303               	bcf	3,6	;RP1=0, select bank0
  1514     0559  00B9               	movwf	___flmul@a
  1515     055A  120A  158A  24BB  120A  118A  	fcall	___flmul
  1516     055F  1283               	bcf	3,5	;RP0=0, select bank0
  1517     0560  1303               	bcf	3,6	;RP1=0, select bank0
  1518     0561  0838               	movf	?___flmul+3,w
  1519     0562  1683               	bsf	3,5	;RP0=1, select bank1
  1520     0563  1303               	bcf	3,6	;RP1=0, select bank1
  1521     0564  00D6               	movwf	(main@total_ch0+3)^(0+128)
  1522     0565  1283               	bcf	3,5	;RP0=0, select bank0
  1523     0566  1303               	bcf	3,6	;RP1=0, select bank0
  1524     0567  0837               	movf	?___flmul+2,w
  1525     0568  1683               	bsf	3,5	;RP0=1, select bank1
  1526     0569  1303               	bcf	3,6	;RP1=0, select bank1
  1527     056A  00D5               	movwf	(main@total_ch0+2)^(0+128)
  1528     056B  1283               	bcf	3,5	;RP0=0, select bank0
  1529     056C  1303               	bcf	3,6	;RP1=0, select bank0
  1530     056D  0836               	movf	?___flmul+1,w
  1531     056E  1683               	bsf	3,5	;RP0=1, select bank1
  1532     056F  1303               	bcf	3,6	;RP1=0, select bank1
  1533     0570  00D4               	movwf	(main@total_ch0+1)^(0+128)
  1534     0571  1283               	bcf	3,5	;RP0=0, select bank0
  1535     0572  1303               	bcf	3,6	;RP1=0, select bank0
  1536     0573  0835               	movf	?___flmul,w
  1537     0574  1683               	bsf	3,5	;RP0=1, select bank1
  1538     0575  1303               	bcf	3,6	;RP1=0, select bank1
  1539     0576  00D3               	movwf	main@total_ch0^(0+128)
  1540     0577                     l2753:
  1541                           
  1542                           ;main_scale.c: 242:             total_ch0 = sqrt(total_ch0)*70.71;
  1543     0577  3042               	movlw	66
  1544     0578  1283               	bcf	3,5	;RP0=0, select bank0
  1545     0579  1303               	bcf	3,6	;RP1=0, select bank0
  1546     057A  00B8               	movwf	___flmul@b+3
  1547     057B  308D               	movlw	141
  1548     057C  00B7               	movwf	___flmul@b+2
  1549     057D  306B               	movlw	107
  1550     057E  00B6               	movwf	___flmul@b+1
  1551     057F  3085               	movlw	133
  1552     0580  00B5               	movwf	___flmul@b
  1553     0581  1683               	bsf	3,5	;RP0=1, select bank1
  1554     0582  1303               	bcf	3,6	;RP1=0, select bank1
  1555     0583  0856               	movf	(main@total_ch0+3)^(0+128),w
  1556     0584  00F3               	movwf	sqrt@a+3
  1557     0585  0855               	movf	(main@total_ch0+2)^(0+128),w
  1558     0586  00F2               	movwf	sqrt@a+2
  1559     0587  0854               	movf	(main@total_ch0+1)^(0+128),w
  1560     0588  00F1               	movwf	sqrt@a+1
  1561     0589  0853               	movf	main@total_ch0^(0+128),w
  1562     058A  00F0               	movwf	sqrt@a
  1563     058B  120A  118A  20B5  120A  118A  	fcall	_sqrt
  1564     0590  0873               	movf	?_sqrt+3,w
  1565     0591  1283               	bcf	3,5	;RP0=0, select bank0
  1566     0592  1303               	bcf	3,6	;RP1=0, select bank0
  1567     0593  00BC               	movwf	___flmul@a+3
  1568     0594  0872               	movf	?_sqrt+2,w
  1569     0595  00BB               	movwf	___flmul@a+2
  1570     0596  0871               	movf	?_sqrt+1,w
  1571     0597  00BA               	movwf	___flmul@a+1
  1572     0598  0870               	movf	?_sqrt,w
  1573     0599  00B9               	movwf	___flmul@a
  1574     059A  120A  158A  24BB  120A  118A  	fcall	___flmul
  1575     059F  1283               	bcf	3,5	;RP0=0, select bank0
  1576     05A0  1303               	bcf	3,6	;RP1=0, select bank0
  1577     05A1  0838               	movf	?___flmul+3,w
  1578     05A2  1683               	bsf	3,5	;RP0=1, select bank1
  1579     05A3  1303               	bcf	3,6	;RP1=0, select bank1
  1580     05A4  00D6               	movwf	(main@total_ch0+3)^(0+128)
  1581     05A5  1283               	bcf	3,5	;RP0=0, select bank0
  1582     05A6  1303               	bcf	3,6	;RP1=0, select bank0
  1583     05A7  0837               	movf	?___flmul+2,w
  1584     05A8  1683               	bsf	3,5	;RP0=1, select bank1
  1585     05A9  1303               	bcf	3,6	;RP1=0, select bank1
  1586     05AA  00D5               	movwf	(main@total_ch0+2)^(0+128)
  1587     05AB  1283               	bcf	3,5	;RP0=0, select bank0
  1588     05AC  1303               	bcf	3,6	;RP1=0, select bank0
  1589     05AD  0836               	movf	?___flmul+1,w
  1590     05AE  1683               	bsf	3,5	;RP0=1, select bank1
  1591     05AF  1303               	bcf	3,6	;RP1=0, select bank1
  1592     05B0  00D4               	movwf	(main@total_ch0+1)^(0+128)
  1593     05B1  1283               	bcf	3,5	;RP0=0, select bank0
  1594     05B2  1303               	bcf	3,6	;RP1=0, select bank0
  1595     05B3  0835               	movf	?___flmul,w
  1596     05B4  1683               	bsf	3,5	;RP0=1, select bank1
  1597     05B5  1303               	bcf	3,6	;RP1=0, select bank1
  1598     05B6  00D3               	movwf	main@total_ch0^(0+128)
  1599     05B7                     l2755:
  1600                           
  1601                           ;main_scale.c: 243:             prom_ch0 += total_ch0;
  1602     05B7  0856               	movf	(main@total_ch0+3)^(0+128),w
  1603     05B8  00A3               	movwf	(___fladd@b+3)^(0+128)
  1604     05B9  0855               	movf	(main@total_ch0+2)^(0+128),w
  1605     05BA  00A2               	movwf	(___fladd@b+2)^(0+128)
  1606     05BB  0854               	movf	(main@total_ch0+1)^(0+128),w
  1607     05BC  00A1               	movwf	(___fladd@b+1)^(0+128)
  1608     05BD  0853               	movf	main@total_ch0^(0+128),w
  1609     05BE  00A0               	movwf	___fladd@b^(0+128)
  1610     05BF  0866               	movf	(main@prom_ch0+3)^(0+128),w
  1611     05C0  00A7               	movwf	(___fladd@a+3)^(0+128)
  1612     05C1  0865               	movf	(main@prom_ch0+2)^(0+128),w
  1613     05C2  00A6               	movwf	(___fladd@a+2)^(0+128)
  1614     05C3  0864               	movf	(main@prom_ch0+1)^(0+128),w
  1615     05C4  00A5               	movwf	(___fladd@a+1)^(0+128)
  1616     05C5  0863               	movf	main@prom_ch0^(0+128),w
  1617     05C6  00A4               	movwf	___fladd@a^(0+128)
  1618     05C7  120A  158A  21C5  120A  118A  	fcall	___fladd
  1619     05CC  1683               	bsf	3,5	;RP0=1, select bank1
  1620     05CD  1303               	bcf	3,6	;RP1=0, select bank1
  1621     05CE  0823               	movf	(?___fladd+3)^(0+128),w
  1622     05CF  00E6               	movwf	(main@prom_ch0+3)^(0+128)
  1623     05D0  0822               	movf	(?___fladd+2)^(0+128),w
  1624     05D1  00E5               	movwf	(main@prom_ch0+2)^(0+128)
  1625     05D2  0821               	movf	(?___fladd+1)^(0+128),w
  1626     05D3  00E4               	movwf	(main@prom_ch0+1)^(0+128)
  1627     05D4  0820               	movf	?___fladd^(0+128),w
  1628     05D5  00E3               	movwf	main@prom_ch0^(0+128)
  1629     05D6                     l2757:
  1630                           
  1631                           ;main_scale.c: 245:             total_ch1 = suma_ch1*60;
  1632     05D6  3042               	movlw	66
  1633     05D7  1283               	bcf	3,5	;RP0=0, select bank0
  1634     05D8  1303               	bcf	3,6	;RP1=0, select bank0
  1635     05D9  00B8               	movwf	___flmul@b+3
  1636     05DA  3070               	movlw	112
  1637     05DB  00B7               	movwf	___flmul@b+2
  1638     05DC  3000               	movlw	0
  1639     05DD  00B6               	movwf	___flmul@b+1
  1640     05DE  3000               	movlw	0
  1641     05DF  00B5               	movwf	___flmul@b
  1642     05E0  1683               	bsf	3,5	;RP0=1, select bank1
  1643     05E1  1303               	bcf	3,6	;RP1=0, select bank1
  1644     05E2  084F               	movf	(main@suma_ch1+3)^(0+128),w
  1645     05E3  1283               	bcf	3,5	;RP0=0, select bank0
  1646     05E4  1303               	bcf	3,6	;RP1=0, select bank0
  1647     05E5  00BC               	movwf	___flmul@a+3
  1648     05E6  1683               	bsf	3,5	;RP0=1, select bank1
  1649     05E7  1303               	bcf	3,6	;RP1=0, select bank1
  1650     05E8  084E               	movf	(main@suma_ch1+2)^(0+128),w
  1651     05E9  1283               	bcf	3,5	;RP0=0, select bank0
  1652     05EA  1303               	bcf	3,6	;RP1=0, select bank0
  1653     05EB  00BB               	movwf	___flmul@a+2
  1654     05EC  1683               	bsf	3,5	;RP0=1, select bank1
  1655     05ED  1303               	bcf	3,6	;RP1=0, select bank1
  1656     05EE  084D               	movf	(main@suma_ch1+1)^(0+128),w
  1657     05EF  1283               	bcf	3,5	;RP0=0, select bank0
  1658     05F0  1303               	bcf	3,6	;RP1=0, select bank0
  1659     05F1  00BA               	movwf	___flmul@a+1
  1660     05F2  1683               	bsf	3,5	;RP0=1, select bank1
  1661     05F3  1303               	bcf	3,6	;RP1=0, select bank1
  1662     05F4  084C               	movf	main@suma_ch1^(0+128),w
  1663     05F5  1283               	bcf	3,5	;RP0=0, select bank0
  1664     05F6  1303               	bcf	3,6	;RP1=0, select bank0
  1665     05F7  00B9               	movwf	___flmul@a
  1666     05F8  120A  158A  24BB  120A  118A  	fcall	___flmul
  1667     05FD  1283               	bcf	3,5	;RP0=0, select bank0
  1668     05FE  1303               	bcf	3,6	;RP1=0, select bank0
  1669     05FF  0838               	movf	?___flmul+3,w
  1670     0600  1683               	bsf	3,5	;RP0=1, select bank1
  1671     0601  1303               	bcf	3,6	;RP1=0, select bank1
  1672     0602  00DA               	movwf	(main@total_ch1+3)^(0+128)
  1673     0603  1283               	bcf	3,5	;RP0=0, select bank0
  1674     0604  1303               	bcf	3,6	;RP1=0, select bank0
  1675     0605  0837               	movf	?___flmul+2,w
  1676     0606  1683               	bsf	3,5	;RP0=1, select bank1
  1677     0607  1303               	bcf	3,6	;RP1=0, select bank1
  1678     0608  00D9               	movwf	(main@total_ch1+2)^(0+128)
  1679     0609  1283               	bcf	3,5	;RP0=0, select bank0
  1680     060A  1303               	bcf	3,6	;RP1=0, select bank0
  1681     060B  0836               	movf	?___flmul+1,w
  1682     060C  1683               	bsf	3,5	;RP0=1, select bank1
  1683     060D  1303               	bcf	3,6	;RP1=0, select bank1
  1684     060E  00D8               	movwf	(main@total_ch1+1)^(0+128)
  1685     060F  1283               	bcf	3,5	;RP0=0, select bank0
  1686     0610  1303               	bcf	3,6	;RP1=0, select bank0
  1687     0611  0835               	movf	?___flmul,w
  1688     0612  1683               	bsf	3,5	;RP0=1, select bank1
  1689     0613  1303               	bcf	3,6	;RP1=0, select bank1
  1690     0614  00D7               	movwf	main@total_ch1^(0+128)
  1691     0615                     l2759:
  1692                           
  1693                           ;main_scale.c: 246:             total_ch1 = sqrt(total_ch1)*70.71;
  1694     0615  3042               	movlw	66
  1695     0616  1283               	bcf	3,5	;RP0=0, select bank0
  1696     0617  1303               	bcf	3,6	;RP1=0, select bank0
  1697     0618  00B8               	movwf	___flmul@b+3
  1698     0619  308D               	movlw	141
  1699     061A  00B7               	movwf	___flmul@b+2
  1700     061B  306B               	movlw	107
  1701     061C  00B6               	movwf	___flmul@b+1
  1702     061D  3085               	movlw	133
  1703     061E  00B5               	movwf	___flmul@b
  1704     061F  1683               	bsf	3,5	;RP0=1, select bank1
  1705     0620  1303               	bcf	3,6	;RP1=0, select bank1
  1706     0621  085A               	movf	(main@total_ch1+3)^(0+128),w
  1707     0622  00F3               	movwf	sqrt@a+3
  1708     0623  0859               	movf	(main@total_ch1+2)^(0+128),w
  1709     0624  00F2               	movwf	sqrt@a+2
  1710     0625  0858               	movf	(main@total_ch1+1)^(0+128),w
  1711     0626  00F1               	movwf	sqrt@a+1
  1712     0627  0857               	movf	main@total_ch1^(0+128),w
  1713     0628  00F0               	movwf	sqrt@a
  1714     0629  120A  118A  20B5  120A  118A  	fcall	_sqrt
  1715     062E  0873               	movf	?_sqrt+3,w
  1716     062F  1283               	bcf	3,5	;RP0=0, select bank0
  1717     0630  1303               	bcf	3,6	;RP1=0, select bank0
  1718     0631  00BC               	movwf	___flmul@a+3
  1719     0632  0872               	movf	?_sqrt+2,w
  1720     0633  00BB               	movwf	___flmul@a+2
  1721     0634  0871               	movf	?_sqrt+1,w
  1722     0635  00BA               	movwf	___flmul@a+1
  1723     0636  0870               	movf	?_sqrt,w
  1724     0637  00B9               	movwf	___flmul@a
  1725     0638  120A  158A  24BB  120A  118A  	fcall	___flmul
  1726     063D  1283               	bcf	3,5	;RP0=0, select bank0
  1727     063E  1303               	bcf	3,6	;RP1=0, select bank0
  1728     063F  0838               	movf	?___flmul+3,w
  1729     0640  1683               	bsf	3,5	;RP0=1, select bank1
  1730     0641  1303               	bcf	3,6	;RP1=0, select bank1
  1731     0642  00DA               	movwf	(main@total_ch1+3)^(0+128)
  1732     0643  1283               	bcf	3,5	;RP0=0, select bank0
  1733     0644  1303               	bcf	3,6	;RP1=0, select bank0
  1734     0645  0837               	movf	?___flmul+2,w
  1735     0646  1683               	bsf	3,5	;RP0=1, select bank1
  1736     0647  1303               	bcf	3,6	;RP1=0, select bank1
  1737     0648  00D9               	movwf	(main@total_ch1+2)^(0+128)
  1738     0649  1283               	bcf	3,5	;RP0=0, select bank0
  1739     064A  1303               	bcf	3,6	;RP1=0, select bank0
  1740     064B  0836               	movf	?___flmul+1,w
  1741     064C  1683               	bsf	3,5	;RP0=1, select bank1
  1742     064D  1303               	bcf	3,6	;RP1=0, select bank1
  1743     064E  00D8               	movwf	(main@total_ch1+1)^(0+128)
  1744     064F  1283               	bcf	3,5	;RP0=0, select bank0
  1745     0650  1303               	bcf	3,6	;RP1=0, select bank0
  1746     0651  0835               	movf	?___flmul,w
  1747     0652  1683               	bsf	3,5	;RP0=1, select bank1
  1748     0653  1303               	bcf	3,6	;RP1=0, select bank1
  1749     0654  00D7               	movwf	main@total_ch1^(0+128)
  1750     0655                     l2761:
  1751                           
  1752                           ;main_scale.c: 247:             prom_ch1 += total_ch1;
  1753     0655  085A               	movf	(main@total_ch1+3)^(0+128),w
  1754     0656  00A3               	movwf	(___fladd@b+3)^(0+128)
  1755     0657  0859               	movf	(main@total_ch1+2)^(0+128),w
  1756     0658  00A2               	movwf	(___fladd@b+2)^(0+128)
  1757     0659  0858               	movf	(main@total_ch1+1)^(0+128),w
  1758     065A  00A1               	movwf	(___fladd@b+1)^(0+128)
  1759     065B  0857               	movf	main@total_ch1^(0+128),w
  1760     065C  00A0               	movwf	___fladd@b^(0+128)
  1761     065D  086A               	movf	(main@prom_ch1+3)^(0+128),w
  1762     065E  00A7               	movwf	(___fladd@a+3)^(0+128)
  1763     065F  0869               	movf	(main@prom_ch1+2)^(0+128),w
  1764     0660  00A6               	movwf	(___fladd@a+2)^(0+128)
  1765     0661  0868               	movf	(main@prom_ch1+1)^(0+128),w
  1766     0662  00A5               	movwf	(___fladd@a+1)^(0+128)
  1767     0663  0867               	movf	main@prom_ch1^(0+128),w
  1768     0664  00A4               	movwf	___fladd@a^(0+128)
  1769     0665  120A  158A  21C5  120A  118A  	fcall	___fladd
  1770     066A  1683               	bsf	3,5	;RP0=1, select bank1
  1771     066B  1303               	bcf	3,6	;RP1=0, select bank1
  1772     066C  0823               	movf	(?___fladd+3)^(0+128),w
  1773     066D  00EA               	movwf	(main@prom_ch1+3)^(0+128)
  1774     066E  0822               	movf	(?___fladd+2)^(0+128),w
  1775     066F  00E9               	movwf	(main@prom_ch1+2)^(0+128)
  1776     0670  0821               	movf	(?___fladd+1)^(0+128),w
  1777     0671  00E8               	movwf	(main@prom_ch1+1)^(0+128)
  1778     0672  0820               	movf	?___fladd^(0+128),w
  1779     0673  00E7               	movwf	main@prom_ch1^(0+128)
  1780     0674                     l2763:
  1781                           
  1782                           ;main_scale.c: 248:             if(c2 == 31){
  1783     0674  301F               	movlw	31
  1784     0675  0652               	xorwf	main@c2^(0+128),w
  1785     0676  1D03               	btfss	3,2
  1786     0677  2E79               	goto	u3631
  1787     0678  2E7A               	goto	u3630
  1788     0679                     u3631:
  1789     0679  2EE1               	goto	l2783
  1790     067A                     u3630:
  1791     067A                     l2765:
  1792                           
  1793                           ;main_scale.c: 249:                 cmd(0x01);
  1794     067A  3001               	movlw	1
  1795     067B  160A  118A  245C  120A  118A  	fcall	_cmd
  1796                           
  1797                           ;main_scale.c: 250:                 cmd(0x80);
  1798     0680  3080               	movlw	128
  1799     0681  160A  118A  245C  120A  118A  	fcall	_cmd
  1800     0686                     l2767:
  1801                           
  1802                           ;main_scale.c: 251:                 float_LCD(total_ch0);
  1803     0686  1683               	bsf	3,5	;RP0=1, select bank1
  1804     0687  1303               	bcf	3,6	;RP1=0, select bank1
  1805     0688  0856               	movf	(main@total_ch0+3)^(0+128),w
  1806     0689  00BB               	movwf	(float_LCD@value+3)^(0+128)
  1807     068A  0855               	movf	(main@total_ch0+2)^(0+128),w
  1808     068B  00BA               	movwf	(float_LCD@value+2)^(0+128)
  1809     068C  0854               	movf	(main@total_ch0+1)^(0+128),w
  1810     068D  00B9               	movwf	(float_LCD@value+1)^(0+128)
  1811     068E  0853               	movf	main@total_ch0^(0+128),w
  1812     068F  00B8               	movwf	float_LCD@value^(0+128)
  1813     0690  120A  158A  206F  120A  118A  	fcall	_float_LCD
  1814     0695                     l2769:
  1815                           
  1816                           ;main_scale.c: 252:                 show("Vrms = ");
  1817     0695  3009               	movlw	(low ((STR_2-__stringbase)| (0+32768)))& (0+255)
  1818     0696  00F3               	movwf	show@s
  1819     0697  3080               	movlw	128
  1820     0698  00F4               	movwf	show@s+1
  1821     0699  160A  118A  24C3  120A  118A  	fcall	_show
  1822     069E                     l2771:
  1823                           
  1824                           ;main_scale.c: 253:                 show(cadena);
  1825     069E  3090               	movlw	(low (_cadena| (0+256)))& (0+255)
  1826     069F  00F3               	movwf	show@s
  1827     06A0  3001               	movlw	1
  1828     06A1  00F4               	movwf	show@s+1
  1829     06A2  160A  118A  24C3  120A  118A  	fcall	_show
  1830     06A7                     l2773:
  1831                           
  1832                           ;main_scale.c: 254:                 float_LCD(total_ch1);
  1833     06A7  1683               	bsf	3,5	;RP0=1, select bank1
  1834     06A8  1303               	bcf	3,6	;RP1=0, select bank1
  1835     06A9  085A               	movf	(main@total_ch1+3)^(0+128),w
  1836     06AA  00BB               	movwf	(float_LCD@value+3)^(0+128)
  1837     06AB  0859               	movf	(main@total_ch1+2)^(0+128),w
  1838     06AC  00BA               	movwf	(float_LCD@value+2)^(0+128)
  1839     06AD  0858               	movf	(main@total_ch1+1)^(0+128),w
  1840     06AE  00B9               	movwf	(float_LCD@value+1)^(0+128)
  1841     06AF  0857               	movf	main@total_ch1^(0+128),w
  1842     06B0  00B8               	movwf	float_LCD@value^(0+128)
  1843     06B1  120A  158A  206F  120A  118A  	fcall	_float_LCD
  1844                           
  1845                           ;main_scale.c: 255:                 cmd(0xC0);
  1846     06B6  30C0               	movlw	192
  1847     06B7  160A  118A  245C  120A  118A  	fcall	_cmd
  1848     06BC                     l2775:
  1849                           
  1850                           ;main_scale.c: 256:                 show("Irms = ");
  1851     06BC  3001               	movlw	(low ((STR_3-__stringbase)| (0+32768)))& (0+255)
  1852     06BD  00F3               	movwf	show@s
  1853     06BE  3080               	movlw	128
  1854     06BF  00F4               	movwf	show@s+1
  1855     06C0  160A  118A  24C3  120A  118A  	fcall	_show
  1856     06C5                     l2777:
  1857                           
  1858                           ;main_scale.c: 257:                 show(cadena);
  1859     06C5  3090               	movlw	(low (_cadena| (0+256)))& (0+255)
  1860     06C6  00F3               	movwf	show@s
  1861     06C7  3001               	movlw	1
  1862     06C8  00F4               	movwf	show@s+1
  1863     06C9  160A  118A  24C3  120A  118A  	fcall	_show
  1864     06CE                     l2779:
  1865                           
  1866                           ;main_scale.c: 258:                 c2 = 0;
  1867     06CE  1683               	bsf	3,5	;RP0=1, select bank1
  1868     06CF  1303               	bcf	3,6	;RP1=0, select bank1
  1869     06D0  01D2               	clrf	main@c2^(0+128)
  1870     06D1                     l2781:
  1871                           
  1872                           ;main_scale.c: 259:                 prom_ch0 = prom_ch1 = 0;
  1873     06D1  3000               	movlw	0
  1874     06D2  00EA               	movwf	(main@prom_ch1+3)^(0+128)
  1875     06D3  3000               	movlw	0
  1876     06D4  00E9               	movwf	(main@prom_ch1+2)^(0+128)
  1877     06D5  3000               	movlw	0
  1878     06D6  00E8               	movwf	(main@prom_ch1+1)^(0+128)
  1879     06D7  3000               	movlw	0
  1880     06D8  00E7               	movwf	main@prom_ch1^(0+128)
  1881     06D9  086A               	movf	(main@prom_ch1+3)^(0+128),w
  1882     06DA  00E6               	movwf	(main@prom_ch0+3)^(0+128)
  1883     06DB  0869               	movf	(main@prom_ch1+2)^(0+128),w
  1884     06DC  00E5               	movwf	(main@prom_ch0+2)^(0+128)
  1885     06DD  0868               	movf	(main@prom_ch1+1)^(0+128),w
  1886     06DE  00E4               	movwf	(main@prom_ch0+1)^(0+128)
  1887     06DF  0867               	movf	main@prom_ch1^(0+128),w
  1888     06E0  00E3               	movwf	main@prom_ch0^(0+128)
  1889     06E1                     l2783:
  1890                           
  1891                           ;main_scale.c: 261:             if (c2 == 30 ){
  1892     06E1  301E               	movlw	30
  1893     06E2  0652               	xorwf	main@c2^(0+128),w
  1894     06E3  1D03               	btfss	3,2
  1895     06E4  2EE6               	goto	u3641
  1896     06E5  2EE7               	goto	u3640
  1897     06E6                     u3641:
  1898     06E6  2FC8               	goto	l2807
  1899     06E7                     u3640:
  1900     06E7                     l2785:
  1901                           
  1902                           ;main_scale.c: 262:                 cmd(0x01);
  1903     06E7  3001               	movlw	1
  1904     06E8  160A  118A  245C  120A  118A  	fcall	_cmd
  1905                           
  1906                           ;main_scale.c: 263:                 cmd(0x80);
  1907     06ED  3080               	movlw	128
  1908     06EE  160A  118A  245C  120A  118A  	fcall	_cmd
  1909     06F3                     l2787:
  1910                           
  1911                           ;main_scale.c: 264:                 prom_ch0 = prom_ch0/30;
  1912     06F3  3041               	movlw	65
  1913     06F4  1283               	bcf	3,5	;RP0=0, select bank0
  1914     06F5  1303               	bcf	3,6	;RP1=0, select bank0
  1915     06F6  00D2               	movwf	___fldiv@a+3
  1916     06F7  30F0               	movlw	240
  1917     06F8  00D1               	movwf	___fldiv@a+2
  1918     06F9  3000               	movlw	0
  1919     06FA  00D0               	movwf	___fldiv@a+1
  1920     06FB  3000               	movlw	0
  1921     06FC  00CF               	movwf	___fldiv@a
  1922     06FD  1683               	bsf	3,5	;RP0=1, select bank1
  1923     06FE  1303               	bcf	3,6	;RP1=0, select bank1
  1924     06FF  0866               	movf	(main@prom_ch0+3)^(0+128),w
  1925     0700  1283               	bcf	3,5	;RP0=0, select bank0
  1926     0701  1303               	bcf	3,6	;RP1=0, select bank0
  1927     0702  00D6               	movwf	___fldiv@b+3
  1928     0703  1683               	bsf	3,5	;RP0=1, select bank1
  1929     0704  1303               	bcf	3,6	;RP1=0, select bank1
  1930     0705  0865               	movf	(main@prom_ch0+2)^(0+128),w
  1931     0706  1283               	bcf	3,5	;RP0=0, select bank0
  1932     0707  1303               	bcf	3,6	;RP1=0, select bank0
  1933     0708  00D5               	movwf	___fldiv@b+2
  1934     0709  1683               	bsf	3,5	;RP0=1, select bank1
  1935     070A  1303               	bcf	3,6	;RP1=0, select bank1
  1936     070B  0864               	movf	(main@prom_ch0+1)^(0+128),w
  1937     070C  1283               	bcf	3,5	;RP0=0, select bank0
  1938     070D  1303               	bcf	3,6	;RP1=0, select bank0
  1939     070E  00D4               	movwf	___fldiv@b+1
  1940     070F  1683               	bsf	3,5	;RP0=1, select bank1
  1941     0710  1303               	bcf	3,6	;RP1=0, select bank1
  1942     0711  0863               	movf	main@prom_ch0^(0+128),w
  1943     0712  1283               	bcf	3,5	;RP0=0, select bank0
  1944     0713  1303               	bcf	3,6	;RP1=0, select bank0
  1945     0714  00D3               	movwf	___fldiv@b
  1946     0715  160A  118A  2631  120A  118A  	fcall	___fldiv
  1947     071A  1283               	bcf	3,5	;RP0=0, select bank0
  1948     071B  1303               	bcf	3,6	;RP1=0, select bank0
  1949     071C  0852               	movf	?___fldiv+3,w
  1950     071D  1683               	bsf	3,5	;RP0=1, select bank1
  1951     071E  1303               	bcf	3,6	;RP1=0, select bank1
  1952     071F  00E6               	movwf	(main@prom_ch0+3)^(0+128)
  1953     0720  1283               	bcf	3,5	;RP0=0, select bank0
  1954     0721  1303               	bcf	3,6	;RP1=0, select bank0
  1955     0722  0851               	movf	?___fldiv+2,w
  1956     0723  1683               	bsf	3,5	;RP0=1, select bank1
  1957     0724  1303               	bcf	3,6	;RP1=0, select bank1
  1958     0725  00E5               	movwf	(main@prom_ch0+2)^(0+128)
  1959     0726  1283               	bcf	3,5	;RP0=0, select bank0
  1960     0727  1303               	bcf	3,6	;RP1=0, select bank0
  1961     0728  0850               	movf	?___fldiv+1,w
  1962     0729  1683               	bsf	3,5	;RP0=1, select bank1
  1963     072A  1303               	bcf	3,6	;RP1=0, select bank1
  1964     072B  00E4               	movwf	(main@prom_ch0+1)^(0+128)
  1965     072C  1283               	bcf	3,5	;RP0=0, select bank0
  1966     072D  1303               	bcf	3,6	;RP1=0, select bank0
  1967     072E  084F               	movf	?___fldiv,w
  1968     072F  1683               	bsf	3,5	;RP0=1, select bank1
  1969     0730  1303               	bcf	3,6	;RP1=0, select bank1
  1970     0731  00E3               	movwf	main@prom_ch0^(0+128)
  1971     0732                     l2789:
  1972                           
  1973                           ;main_scale.c: 265:                 float_LCD(prom_ch0);
  1974     0732  0866               	movf	(main@prom_ch0+3)^(0+128),w
  1975     0733  00BB               	movwf	(float_LCD@value+3)^(0+128)
  1976     0734  0865               	movf	(main@prom_ch0+2)^(0+128),w
  1977     0735  00BA               	movwf	(float_LCD@value+2)^(0+128)
  1978     0736  0864               	movf	(main@prom_ch0+1)^(0+128),w
  1979     0737  00B9               	movwf	(float_LCD@value+1)^(0+128)
  1980     0738  0863               	movf	main@prom_ch0^(0+128),w
  1981     0739  00B8               	movwf	float_LCD@value^(0+128)
  1982     073A  120A  158A  206F  120A  118A  	fcall	_float_LCD
  1983     073F                     l2791:
  1984                           
  1985                           ;main_scale.c: 266:                 show("Vrms = ");
  1986     073F  3009               	movlw	(low ((STR_2-__stringbase)| (0+32768)))& (0+255)
  1987     0740  00F3               	movwf	show@s
  1988     0741  3080               	movlw	128
  1989     0742  00F4               	movwf	show@s+1
  1990     0743  160A  118A  24C3  120A  118A  	fcall	_show
  1991     0748                     l2793:
  1992                           
  1993                           ;main_scale.c: 267:                 show(cadena);
  1994     0748  3090               	movlw	(low (_cadena| (0+256)))& (0+255)
  1995     0749  00F3               	movwf	show@s
  1996     074A  3001               	movlw	1
  1997     074B  00F4               	movwf	show@s+1
  1998     074C  160A  118A  24C3  120A  118A  	fcall	_show
  1999     0751                     l2795:
  2000                           
  2001                           ;main_scale.c: 268:                 prom_ch1 = prom_ch1/30;
  2002     0751  3041               	movlw	65
  2003     0752  1283               	bcf	3,5	;RP0=0, select bank0
  2004     0753  1303               	bcf	3,6	;RP1=0, select bank0
  2005     0754  00D2               	movwf	___fldiv@a+3
  2006     0755  30F0               	movlw	240
  2007     0756  00D1               	movwf	___fldiv@a+2
  2008     0757  3000               	movlw	0
  2009     0758  00D0               	movwf	___fldiv@a+1
  2010     0759  3000               	movlw	0
  2011     075A  00CF               	movwf	___fldiv@a
  2012     075B  1683               	bsf	3,5	;RP0=1, select bank1
  2013     075C  1303               	bcf	3,6	;RP1=0, select bank1
  2014     075D  086A               	movf	(main@prom_ch1+3)^(0+128),w
  2015     075E  1283               	bcf	3,5	;RP0=0, select bank0
  2016     075F  1303               	bcf	3,6	;RP1=0, select bank0
  2017     0760  00D6               	movwf	___fldiv@b+3
  2018     0761  1683               	bsf	3,5	;RP0=1, select bank1
  2019     0762  1303               	bcf	3,6	;RP1=0, select bank1
  2020     0763  0869               	movf	(main@prom_ch1+2)^(0+128),w
  2021     0764  1283               	bcf	3,5	;RP0=0, select bank0
  2022     0765  1303               	bcf	3,6	;RP1=0, select bank0
  2023     0766  00D5               	movwf	___fldiv@b+2
  2024     0767  1683               	bsf	3,5	;RP0=1, select bank1
  2025     0768  1303               	bcf	3,6	;RP1=0, select bank1
  2026     0769  0868               	movf	(main@prom_ch1+1)^(0+128),w
  2027     076A  1283               	bcf	3,5	;RP0=0, select bank0
  2028     076B  1303               	bcf	3,6	;RP1=0, select bank0
  2029     076C  00D4               	movwf	___fldiv@b+1
  2030     076D  1683               	bsf	3,5	;RP0=1, select bank1
  2031     076E  1303               	bcf	3,6	;RP1=0, select bank1
  2032     076F  0867               	movf	main@prom_ch1^(0+128),w
  2033     0770  1283               	bcf	3,5	;RP0=0, select bank0
  2034     0771  1303               	bcf	3,6	;RP1=0, select bank0
  2035     0772  00D3               	movwf	___fldiv@b
  2036     0773  160A  118A  2631  120A  118A  	fcall	___fldiv
  2037     0778  1283               	bcf	3,5	;RP0=0, select bank0
  2038     0779  1303               	bcf	3,6	;RP1=0, select bank0
  2039     077A  0852               	movf	?___fldiv+3,w
  2040     077B  1683               	bsf	3,5	;RP0=1, select bank1
  2041     077C  1303               	bcf	3,6	;RP1=0, select bank1
  2042     077D  00EA               	movwf	(main@prom_ch1+3)^(0+128)
  2043     077E  1283               	bcf	3,5	;RP0=0, select bank0
  2044     077F  1303               	bcf	3,6	;RP1=0, select bank0
  2045     0780  0851               	movf	?___fldiv+2,w
  2046     0781  1683               	bsf	3,5	;RP0=1, select bank1
  2047     0782  1303               	bcf	3,6	;RP1=0, select bank1
  2048     0783  00E9               	movwf	(main@prom_ch1+2)^(0+128)
  2049     0784  1283               	bcf	3,5	;RP0=0, select bank0
  2050     0785  1303               	bcf	3,6	;RP1=0, select bank0
  2051     0786  0850               	movf	?___fldiv+1,w
  2052     0787  1683               	bsf	3,5	;RP0=1, select bank1
  2053     0788  1303               	bcf	3,6	;RP1=0, select bank1
  2054     0789  00E8               	movwf	(main@prom_ch1+1)^(0+128)
  2055     078A  1283               	bcf	3,5	;RP0=0, select bank0
  2056     078B  1303               	bcf	3,6	;RP1=0, select bank0
  2057     078C  084F               	movf	?___fldiv,w
  2058     078D  1683               	bsf	3,5	;RP0=1, select bank1
  2059     078E  1303               	bcf	3,6	;RP1=0, select bank1
  2060     078F  00E7               	movwf	main@prom_ch1^(0+128)
  2061     0790                     l2797:
  2062                           
  2063                           ;main_scale.c: 269:                 float_LCD(prom_ch1);
  2064     0790  086A               	movf	(main@prom_ch1+3)^(0+128),w
  2065     0791  00BB               	movwf	(float_LCD@value+3)^(0+128)
  2066     0792  0869               	movf	(main@prom_ch1+2)^(0+128),w
  2067     0793  00BA               	movwf	(float_LCD@value+2)^(0+128)
  2068     0794  0868               	movf	(main@prom_ch1+1)^(0+128),w
  2069     0795  00B9               	movwf	(float_LCD@value+1)^(0+128)
  2070     0796  0867               	movf	main@prom_ch1^(0+128),w
  2071     0797  00B8               	movwf	float_LCD@value^(0+128)
  2072     0798  120A  158A  206F  120A  118A  	fcall	_float_LCD
  2073                           
  2074                           ;main_scale.c: 270:                 cmd(0xC0);
  2075     079D  30C0               	movlw	192
  2076     079E  160A  118A  245C  120A  118A  	fcall	_cmd
  2077     07A3                     l2799:
  2078                           
  2079                           ;main_scale.c: 271:                 show("Irms = ");
  2080     07A3  3001               	movlw	(low ((STR_3-__stringbase)| (0+32768)))& (0+255)
  2081     07A4  00F3               	movwf	show@s
  2082     07A5  3080               	movlw	128
  2083     07A6  00F4               	movwf	show@s+1
  2084     07A7  160A  118A  24C3  120A  118A  	fcall	_show
  2085     07AC                     l2801:
  2086                           
  2087                           ;main_scale.c: 272:                 show(cadena);
  2088     07AC  3090               	movlw	(low (_cadena| (0+256)))& (0+255)
  2089     07AD  00F3               	movwf	show@s
  2090     07AE  3001               	movlw	1
  2091     07AF  00F4               	movwf	show@s+1
  2092     07B0  160A  118A  24C3  120A  118A  	fcall	_show
  2093     07B5                     l2803:
  2094                           
  2095                           ;main_scale.c: 273:                 c2 = 0;
  2096     07B5  1683               	bsf	3,5	;RP0=1, select bank1
  2097     07B6  1303               	bcf	3,6	;RP1=0, select bank1
  2098     07B7  01D2               	clrf	main@c2^(0+128)
  2099     07B8                     l2805:
  2100                           
  2101                           ;main_scale.c: 274:                 prom_ch0 = prom_ch1 = 0;
  2102     07B8  3000               	movlw	0
  2103     07B9  00EA               	movwf	(main@prom_ch1+3)^(0+128)
  2104     07BA  3000               	movlw	0
  2105     07BB  00E9               	movwf	(main@prom_ch1+2)^(0+128)
  2106     07BC  3000               	movlw	0
  2107     07BD  00E8               	movwf	(main@prom_ch1+1)^(0+128)
  2108     07BE  3000               	movlw	0
  2109     07BF  00E7               	movwf	main@prom_ch1^(0+128)
  2110     07C0  086A               	movf	(main@prom_ch1+3)^(0+128),w
  2111     07C1  00E6               	movwf	(main@prom_ch0+3)^(0+128)
  2112     07C2  0869               	movf	(main@prom_ch1+2)^(0+128),w
  2113     07C3  00E5               	movwf	(main@prom_ch0+2)^(0+128)
  2114     07C4  0868               	movf	(main@prom_ch1+1)^(0+128),w
  2115     07C5  00E4               	movwf	(main@prom_ch0+1)^(0+128)
  2116     07C6  0867               	movf	main@prom_ch1^(0+128),w
  2117     07C7  00E3               	movwf	main@prom_ch0^(0+128)
  2118     07C8                     l2807:
  2119                           
  2120                           ;main_scale.c: 276:             c2++;
  2121     07C8  3001               	movlw	1
  2122     07C9  00FF               	movwf	btemp+1
  2123     07CA  087F               	movf	btemp+1,w
  2124     07CB  07D2               	addwf	main@c2^(0+128),f
  2125     07CC                     l2809:
  2126                           
  2127                           ;main_scale.c: 277:             suma_ch0 = suma_ch1 = 0;
  2128     07CC  3000               	movlw	0
  2129     07CD  00CF               	movwf	(main@suma_ch1+3)^(0+128)
  2130     07CE  3000               	movlw	0
  2131     07CF  00CE               	movwf	(main@suma_ch1+2)^(0+128)
  2132     07D0  3000               	movlw	0
  2133     07D1  00CD               	movwf	(main@suma_ch1+1)^(0+128)
  2134     07D2  3000               	movlw	0
  2135     07D3  00CC               	movwf	main@suma_ch1^(0+128)
  2136     07D4  084F               	movf	(main@suma_ch1+3)^(0+128),w
  2137     07D5  00CB               	movwf	(main@suma_ch0+3)^(0+128)
  2138     07D6  084E               	movf	(main@suma_ch1+2)^(0+128),w
  2139     07D7  00CA               	movwf	(main@suma_ch0+2)^(0+128)
  2140     07D8  084D               	movf	(main@suma_ch1+1)^(0+128),w
  2141     07D9  00C9               	movwf	(main@suma_ch0+1)^(0+128)
  2142     07DA  084C               	movf	main@suma_ch1^(0+128),w
  2143     07DB  00C8               	movwf	main@suma_ch0^(0+128)
  2144     07DC                     l2811:
  2145                           
  2146                           ;main_scale.c: 278:             _delay((unsigned long)((0.0266666)*(4000000/4000.0)));
  2147     07DC  3007               	movlw	7
  2148     07DD  1283               	bcf	3,5	;RP0=0, select bank0
  2149     07DE  1303               	bcf	3,6	;RP1=0, select bank0
  2150     07DF  00EF               	movwf	??_main
  2151     07E0                     u3667:
  2152     07E0  0BEF               	decfsz	??_main,f
  2153     07E1  2FE0               	goto	u3667
  2154     07E2  2FE3               	nop2
  2155     07E3  2ACE               	goto	l2715
  2156     07E4  120A  118A  2800   	ljmp	start
  2157     07E7                     __end_of_main:
  2158                           
  2159                           	psect	text1
  2160     00B5                     __ptext1:	
  2161 ;; *************** function _sqrt *****************
  2162 ;; Defined at:
  2163 ;;		line 9 in file "C:\Program Files\Microchip\xc8\v2.41\pic\sources\c90\common\sprcsqrt.c"
  2164 ;; Parameters:    Size  Location     Type
  2165 ;;  a               4    0[COMMON] int 
  2166 ;; Auto vars:     Size  Location     Type
  2167 ;;  frac            4   17[BANK0 ] unsigned long 
  2168 ;;  root            4   13[BANK0 ] struct .
  2169 ;;  grs             4    7[BANK0 ] unsigned long 
  2170 ;;  tfrac           4    2[BANK0 ] unsigned long 
  2171 ;;  exp             2   11[BANK0 ] int 
  2172 ;;  p               1    6[BANK0 ] unsigned char 
  2173 ;;  i               1    1[BANK0 ] unsigned char 
  2174 ;;  sign            1    0[BANK0 ] unsigned char 
  2175 ;; Return value:  Size  Location     Type
  2176 ;;                  4    0[COMMON] unsigned char 
  2177 ;; Registers used:
  2178 ;;		wreg, status,2, status,0, btemp+1
  2179 ;; Tracked objects:
  2180 ;;		On entry : 0/0
  2181 ;;		On exit  : 0/0
  2182 ;;		Unchanged: 0/0
  2183 ;; Data sizes:     COMMON   BANK0   BANK1   BANK3   BANK2
  2184 ;;      Params:         4       0       0       0       0
  2185 ;;      Locals:         0      21       0       0       0
  2186 ;;      Temps:          4       0       0       0       0
  2187 ;;      Totals:         8      21       0       0       0
  2188 ;;Total ram usage:       29 bytes
  2189 ;; Hardware stack levels used: 1
  2190 ;; This function calls:
  2191 ;;		Nothing
  2192 ;; This function is called by:
  2193 ;;		_main
  2194 ;; This function uses a non-reentrant model
  2195 ;;
  2196                           
  2197     00B5                     _sqrt:	
  2198                           ;psect for function _sqrt
  2199                           
  2200     00B5                     l2587:	
  2201                           ;incstack = 0
  2202                           ; Regs used in _sqrt: [wreg+status,2+status,0+btemp+1]
  2203                           
  2204     00B5  0873               	movf	sqrt@a+3,w
  2205     00B6  3980               	andlw	128
  2206     00B7  1283               	bcf	3,5	;RP0=0, select bank0
  2207     00B8  1303               	bcf	3,6	;RP1=0, select bank0
  2208     00B9  00A0               	movwf	sqrt@sign
  2209     00BA                     l2589:
  2210     00BA  0873               	movf	sqrt@a+3,w
  2211     00BB  00F4               	movwf	??_sqrt
  2212     00BC  0774               	addwf	??_sqrt,w
  2213     00BD  00A6               	movwf	sqrt@p
  2214     00BE                     l2591:
  2215     00BE  1FF2               	btfss	sqrt@a+2,7
  2216     00BF  28C1               	goto	u3421
  2217     00C0  28C2               	goto	u3420
  2218     00C1                     u3421:
  2219     00C1  28C3               	goto	l2595
  2220     00C2                     u3420:
  2221     00C2                     l2593:
  2222     00C2  1426               	bsf	sqrt@p,0
  2223     00C3                     l2595:
  2224     00C3  0826               	movf	sqrt@p,w
  2225     00C4  00F4               	movwf	??_sqrt
  2226     00C5  01F5               	clrf	??_sqrt+1
  2227     00C6  0874               	movf	??_sqrt,w
  2228     00C7  00AB               	movwf	sqrt@exp
  2229     00C8  0875               	movf	??_sqrt+1,w
  2230     00C9  00AC               	movwf	sqrt@exp+1
  2231     00CA  30FF               	movlw	255
  2232     00CB  0570               	andwf	sqrt@a,w
  2233     00CC  00B1               	movwf	sqrt@frac
  2234     00CD  30FF               	movlw	255
  2235     00CE  0571               	andwf	sqrt@a+1,w
  2236     00CF  00B2               	movwf	sqrt@frac+1
  2237     00D0  307F               	movlw	127
  2238     00D1  0572               	andwf	sqrt@a+2,w
  2239     00D2  00B3               	movwf	sqrt@frac+2
  2240     00D3  3000               	movlw	0
  2241     00D4  0573               	andwf	sqrt@a+3,w
  2242     00D5  00B4               	movwf	sqrt@frac+3
  2243     00D6                     l2597:
  2244     00D6  082B               	movf	sqrt@exp,w
  2245     00D7  042C               	iorwf	sqrt@exp+1,w
  2246     00D8  1903               	btfsc	3,2
  2247     00D9  28DB               	goto	u3431
  2248     00DA  28DC               	goto	u3430
  2249     00DB                     u3431:
  2250     00DB  28E3               	goto	l2603
  2251     00DC                     u3430:
  2252     00DC                     l2599:
  2253     00DC  17B3               	bsf	sqrt@frac+2,7
  2254     00DD                     l2601:
  2255     00DD  0A2B               	incf	sqrt@exp,w
  2256     00DE  042C               	iorwf	sqrt@exp+1,w
  2257     00DF  1D03               	btfss	3,2
  2258     00E0  28E2               	goto	u3441
  2259     00E1  28E3               	goto	u3440
  2260     00E2                     u3441:
  2261     00E2  28EB               	goto	l2607
  2262     00E3                     u3440:
  2263     00E3                     l2603:
  2264     00E3  3000               	movlw	0
  2265     00E4  00B4               	movwf	sqrt@frac+3
  2266     00E5  3000               	movlw	0
  2267     00E6  00B3               	movwf	sqrt@frac+2
  2268     00E7  3000               	movlw	0
  2269     00E8  00B2               	movwf	sqrt@frac+1
  2270     00E9  3000               	movlw	0
  2271     00EA  00B1               	movwf	sqrt@frac
  2272     00EB                     l2607:
  2273     00EB  082B               	movf	sqrt@exp,w
  2274     00EC  042C               	iorwf	sqrt@exp+1,w
  2275     00ED  1D03               	btfss	3,2
  2276     00EE  28F0               	goto	u3451
  2277     00EF  28F1               	goto	u3450
  2278     00F0                     u3451:
  2279     00F0  28FA               	goto	l2613
  2280     00F1                     u3450:
  2281     00F1                     l2609:
  2282     00F1  3000               	movlw	0
  2283     00F2  00F3               	movwf	?_sqrt+3
  2284     00F3  3000               	movlw	0
  2285     00F4  00F2               	movwf	?_sqrt+2
  2286     00F5  3000               	movlw	0
  2287     00F6  00F1               	movwf	?_sqrt+1
  2288     00F7  3000               	movlw	0
  2289     00F8  00F0               	movwf	?_sqrt
  2290     00F9  2A8A               	goto	l615
  2291     00FA                     l2613:
  2292     00FA  0820               	movf	sqrt@sign,w
  2293     00FB  1903               	btfsc	3,2
  2294     00FC  28FE               	goto	u3461
  2295     00FD  28FF               	goto	u3460
  2296     00FE                     u3461:
  2297     00FE  291C               	goto	l2619
  2298     00FF                     u3460:
  2299     00FF                     l2615:
  2300     00FF  3000               	movlw	0
  2301     0100  00B0               	movwf	sqrt@root+3
  2302     0101  3040               	movlw	64
  2303     0102  00AF               	movwf	sqrt@root+2
  2304     0103  3000               	movlw	0
  2305     0104  00AE               	movwf	sqrt@root+1
  2306     0105  3000               	movlw	0
  2307     0106  00AD               	movwf	sqrt@root
  2308     0107  3080               	movlw	128
  2309     0108  04AF               	iorwf	sqrt@root+2,f
  2310     0109  30FF               	movlw	255
  2311     010A  04B0               	iorwf	sqrt@root+3,f
  2312     010B  3021               	movlw	33
  2313     010C  1683               	bsf	3,5	;RP0=1, select bank1
  2314     010D  1303               	bcf	3,6	;RP1=0, select bank1
  2315     010E  00EB               	movwf	_errno^(0+128)
  2316     010F  3000               	movlw	0
  2317     0110  00EC               	movwf	(_errno^(0+128)+1)
  2318     0111  1283               	bcf	3,5	;RP0=0, select bank0
  2319     0112  1303               	bcf	3,6	;RP1=0, select bank0
  2320     0113  0830               	movf	sqrt@root+3,w
  2321     0114  00F3               	movwf	?_sqrt+3
  2322     0115  082F               	movf	sqrt@root+2,w
  2323     0116  00F2               	movwf	?_sqrt+2
  2324     0117  082E               	movf	sqrt@root+1,w
  2325     0118  00F1               	movwf	?_sqrt+1
  2326     0119  082D               	movf	sqrt@root,w
  2327     011A  00F0               	movwf	?_sqrt
  2328     011B  2A8A               	goto	l615
  2329     011C                     l2619:
  2330     011C  0A2B               	incf	sqrt@exp,w
  2331     011D  042C               	iorwf	sqrt@exp+1,w
  2332     011E  1D03               	btfss	3,2
  2333     011F  2921               	goto	u3471
  2334     0120  2922               	goto	u3470
  2335     0121                     u3471:
  2336     0121  2933               	goto	l2625
  2337     0122                     u3470:
  2338     0122                     l2621:
  2339     0122  307F               	movlw	127
  2340     0123  00B0               	movwf	sqrt@root+3
  2341     0124  3080               	movlw	128
  2342     0125  00AF               	movwf	sqrt@root+2
  2343     0126  3000               	movlw	0
  2344     0127  00AE               	movwf	sqrt@root+1
  2345     0128  3000               	movlw	0
  2346     0129  00AD               	movwf	sqrt@root
  2347     012A  0830               	movf	sqrt@root+3,w
  2348     012B  00F3               	movwf	?_sqrt+3
  2349     012C  082F               	movf	sqrt@root+2,w
  2350     012D  00F2               	movwf	?_sqrt+2
  2351     012E  082E               	movf	sqrt@root+1,w
  2352     012F  00F1               	movwf	?_sqrt+1
  2353     0130  082D               	movf	sqrt@root,w
  2354     0131  00F0               	movwf	?_sqrt
  2355     0132  2A8A               	goto	l615
  2356     0133                     l2625:
  2357     0133  3081               	movlw	129
  2358     0134  07AB               	addwf	sqrt@exp,f
  2359     0135  1803               	skipnc
  2360     0136  0AAC               	incf	sqrt@exp+1,f
  2361     0137  30FF               	movlw	255
  2362     0138  07AC               	addwf	sqrt@exp+1,f
  2363     0139                     l2627:
  2364     0139  082B               	movf	sqrt@exp,w
  2365     013A  3901               	andlw	1
  2366     013B  00A6               	movwf	sqrt@p
  2367     013C                     l2629:
  2368     013C  3001               	movlw	1
  2369     013D  00FF               	movwf	btemp+1
  2370     013E                     u3485:
  2371     013E  0D2C               	rlf	sqrt@exp+1,w
  2372     013F  0CAC               	rrf	sqrt@exp+1,f
  2373     0140  0CAB               	rrf	sqrt@exp,f
  2374     0141  0BFF               	decfsz	btemp+1,f
  2375     0142  293E               	goto	u3485
  2376     0143                     l2631:
  2377     0143  307F               	movlw	127
  2378     0144  07AB               	addwf	sqrt@exp,f
  2379     0145  1803               	skipnc
  2380     0146  0AAC               	incf	sqrt@exp+1,f
  2381     0147  3000               	movlw	0
  2382     0148  07AC               	addwf	sqrt@exp+1,f
  2383     0149                     l2633:
  2384     0149  1003               	clrc
  2385     014A  0D31               	rlf	sqrt@frac,w
  2386     014B  00A2               	movwf	sqrt@tfrac
  2387     014C  0D32               	rlf	sqrt@frac+1,w
  2388     014D  00A3               	movwf	sqrt@tfrac+1
  2389     014E  0D33               	rlf	sqrt@frac+2,w
  2390     014F  00A4               	movwf	sqrt@tfrac+2
  2391     0150  0D34               	rlf	sqrt@frac+3,w
  2392     0151  00A5               	movwf	sqrt@tfrac+3
  2393     0152                     l2635:
  2394     0152  3000               	movlw	0
  2395     0153  00B4               	movwf	sqrt@frac+3
  2396     0154  3000               	movlw	0
  2397     0155  00B3               	movwf	sqrt@frac+2
  2398     0156  3000               	movlw	0
  2399     0157  00B2               	movwf	sqrt@frac+1
  2400     0158  3000               	movlw	0
  2401     0159  00B1               	movwf	sqrt@frac
  2402     015A                     l2637:
  2403     015A  3001               	movlw	1
  2404     015B  00AA               	movwf	sqrt@grs+3
  2405     015C  3000               	movlw	0
  2406     015D  00A9               	movwf	sqrt@grs+2
  2407     015E  3000               	movlw	0
  2408     015F  00A8               	movwf	sqrt@grs+1
  2409     0160  3000               	movlw	0
  2410     0161  00A7               	movwf	sqrt@grs
  2411     0162                     l2639:
  2412     0162  0826               	movf	sqrt@p,w
  2413     0163  1903               	btfsc	3,2
  2414     0164  2966               	goto	u3491
  2415     0165  2967               	goto	u3490
  2416     0166                     u3491:
  2417     0166  2970               	goto	l2643
  2418     0167                     u3490:
  2419     0167                     l2641:
  2420     0167  3001               	movlw	1
  2421     0168  00F4               	movwf	??_sqrt
  2422     0169                     u3505:
  2423     0169  1003               	clrc
  2424     016A  0DA2               	rlf	sqrt@tfrac,f
  2425     016B  0DA3               	rlf	sqrt@tfrac+1,f
  2426     016C  0DA4               	rlf	sqrt@tfrac+2,f
  2427     016D  0DA5               	rlf	sqrt@tfrac+3,f
  2428     016E  0BF4               	decfsz	??_sqrt,f
  2429     016F  2969               	goto	u3505
  2430     0170                     l2643:
  2431     0170  01A1               	clrf	sqrt@i
  2432     0171  29E8               	goto	l2653
  2433     0172                     l2645:
  2434     0172  0827               	movf	sqrt@grs,w
  2435     0173  04B1               	iorwf	sqrt@frac,f
  2436     0174  0828               	movf	sqrt@grs+1,w
  2437     0175  04B2               	iorwf	sqrt@frac+1,f
  2438     0176  0829               	movf	sqrt@grs+2,w
  2439     0177  04B3               	iorwf	sqrt@frac+2,f
  2440     0178  082A               	movf	sqrt@grs+3,w
  2441     0179  04B4               	iorwf	sqrt@frac+3,f
  2442     017A  0834               	movf	sqrt@frac+3,w
  2443     017B  0225               	subwf	sqrt@tfrac+3,w
  2444     017C  1D03               	skipz
  2445     017D  2988               	goto	u3515
  2446     017E  0833               	movf	sqrt@frac+2,w
  2447     017F  0224               	subwf	sqrt@tfrac+2,w
  2448     0180  1D03               	skipz
  2449     0181  2988               	goto	u3515
  2450     0182  0832               	movf	sqrt@frac+1,w
  2451     0183  0223               	subwf	sqrt@tfrac+1,w
  2452     0184  1D03               	skipz
  2453     0185  2988               	goto	u3515
  2454     0186  0831               	movf	sqrt@frac,w
  2455     0187  0222               	subwf	sqrt@tfrac,w
  2456     0188                     u3515:
  2457     0188  1C03               	skipc
  2458     0189  298B               	goto	u3511
  2459     018A  298C               	goto	u3510
  2460     018B                     u3511:
  2461     018B  29B2               	goto	l2649
  2462     018C                     u3510:
  2463     018C                     l2647:
  2464     018C  0831               	movf	sqrt@frac,w
  2465     018D  02A2               	subwf	sqrt@tfrac,f
  2466     018E  0832               	movf	sqrt@frac+1,w
  2467     018F  1C03               	skipc
  2468     0190  0F32               	incfsz	sqrt@frac+1,w
  2469     0191  02A3               	subwf	sqrt@tfrac+1,f
  2470     0192  0833               	movf	sqrt@frac+2,w
  2471     0193  1C03               	skipc
  2472     0194  0F33               	incfsz	sqrt@frac+2,w
  2473     0195  02A4               	subwf	sqrt@tfrac+2,f
  2474     0196  0834               	movf	sqrt@frac+3,w
  2475     0197  1C03               	skipc
  2476     0198  0F34               	incfsz	sqrt@frac+3,w
  2477     0199  02A5               	subwf	sqrt@tfrac+3,f
  2478     019A  0827               	movf	sqrt@grs,w
  2479     019B  07B1               	addwf	sqrt@frac,f
  2480     019C  0828               	movf	sqrt@grs+1,w
  2481     019D  1103               	clrz
  2482     019E  1803               	skipnc
  2483     019F  3E01               	addlw	1
  2484     01A0  1903               	skipnz
  2485     01A1  29A3               	goto	u3521
  2486     01A2  07B2               	addwf	sqrt@frac+1,f
  2487     01A3                     u3521:
  2488     01A3  0829               	movf	sqrt@grs+2,w
  2489     01A4  1103               	clrz
  2490     01A5  1803               	skipnc
  2491     01A6  3E01               	addlw	1
  2492     01A7  1903               	skipnz
  2493     01A8  29AA               	goto	u3522
  2494     01A9  07B3               	addwf	sqrt@frac+2,f
  2495     01AA                     u3522:
  2496     01AA  082A               	movf	sqrt@grs+3,w
  2497     01AB  1103               	clrz
  2498     01AC  1803               	skipnc
  2499     01AD  3E01               	addlw	1
  2500     01AE  1903               	skipnz
  2501     01AF  29B1               	goto	u3523
  2502     01B0  07B4               	addwf	sqrt@frac+3,f
  2503     01B1                     u3523:
  2504     01B1  29C2               	goto	l622
  2505     01B2                     l2649:
  2506     01B2  0927               	comf	sqrt@grs,w
  2507     01B3  00F4               	movwf	??_sqrt
  2508     01B4  0928               	comf	sqrt@grs+1,w
  2509     01B5  00F5               	movwf	??_sqrt+1
  2510     01B6  0929               	comf	sqrt@grs+2,w
  2511     01B7  00F6               	movwf	??_sqrt+2
  2512     01B8  092A               	comf	sqrt@grs+3,w
  2513     01B9  00F7               	movwf	??_sqrt+3
  2514     01BA  0874               	movf	??_sqrt,w
  2515     01BB  05B1               	andwf	sqrt@frac,f
  2516     01BC  0875               	movf	??_sqrt+1,w
  2517     01BD  05B2               	andwf	sqrt@frac+1,f
  2518     01BE  0876               	movf	??_sqrt+2,w
  2519     01BF  05B3               	andwf	sqrt@frac+2,f
  2520     01C0  0877               	movf	??_sqrt+3,w
  2521     01C1  05B4               	andwf	sqrt@frac+3,f
  2522     01C2                     l622:
  2523     01C2  0827               	movf	sqrt@grs,w
  2524     01C3  00F4               	movwf	??_sqrt
  2525     01C4  0828               	movf	sqrt@grs+1,w
  2526     01C5  00F5               	movwf	??_sqrt+1
  2527     01C6  0829               	movf	sqrt@grs+2,w
  2528     01C7  00F6               	movwf	??_sqrt+2
  2529     01C8  082A               	movf	sqrt@grs+3,w
  2530     01C9  00F7               	movwf	??_sqrt+3
  2531     01CA  3001               	movlw	1
  2532     01CB                     u3535:
  2533     01CB  1003               	clrc
  2534     01CC  0CF7               	rrf	??_sqrt+3,f
  2535     01CD  0CF6               	rrf	??_sqrt+2,f
  2536     01CE  0CF5               	rrf	??_sqrt+1,f
  2537     01CF  0CF4               	rrf	??_sqrt,f
  2538     01D0                     u3530:
  2539     01D0  3EFF               	addlw	-1
  2540     01D1  1D03               	skipz
  2541     01D2  29CB               	goto	u3535
  2542     01D3  0877               	movf	??_sqrt+3,w
  2543     01D4  00AA               	movwf	sqrt@grs+3
  2544     01D5  0876               	movf	??_sqrt+2,w
  2545     01D6  00A9               	movwf	sqrt@grs+2
  2546     01D7  0875               	movf	??_sqrt+1,w
  2547     01D8  00A8               	movwf	sqrt@grs+1
  2548     01D9  0874               	movf	??_sqrt,w
  2549     01DA  00A7               	movwf	sqrt@grs
  2550     01DB  3001               	movlw	1
  2551     01DC  00F4               	movwf	??_sqrt
  2552     01DD                     u3545:
  2553     01DD  1003               	clrc
  2554     01DE  0DA2               	rlf	sqrt@tfrac,f
  2555     01DF  0DA3               	rlf	sqrt@tfrac+1,f
  2556     01E0  0DA4               	rlf	sqrt@tfrac+2,f
  2557     01E1  0DA5               	rlf	sqrt@tfrac+3,f
  2558     01E2  0BF4               	decfsz	??_sqrt,f
  2559     01E3  29DD               	goto	u3545
  2560     01E4                     l2651:
  2561     01E4  3001               	movlw	1
  2562     01E5  00FF               	movwf	btemp+1
  2563     01E6  087F               	movf	btemp+1,w
  2564     01E7  07A1               	addwf	sqrt@i,f
  2565     01E8                     l2653:
  2566     01E8  3019               	movlw	25
  2567     01E9  0221               	subwf	sqrt@i,w
  2568     01EA  1C03               	skipc
  2569     01EB  29ED               	goto	u3551
  2570     01EC  29EE               	goto	u3550
  2571     01ED                     u3551:
  2572     01ED  2972               	goto	l2645
  2573     01EE                     u3550:
  2574     01EE                     l2655:
  2575     01EE  0831               	movf	sqrt@frac,w
  2576     01EF  00F4               	movwf	??_sqrt
  2577     01F0  0832               	movf	sqrt@frac+1,w
  2578     01F1  00F5               	movwf	??_sqrt+1
  2579     01F2  0833               	movf	sqrt@frac+2,w
  2580     01F3  00F6               	movwf	??_sqrt+2
  2581     01F4  0834               	movf	sqrt@frac+3,w
  2582     01F5  00F7               	movwf	??_sqrt+3
  2583     01F6  3001               	movlw	1
  2584     01F7                     u3565:
  2585     01F7  1003               	clrc
  2586     01F8  0CF7               	rrf	??_sqrt+3,f
  2587     01F9  0CF6               	rrf	??_sqrt+2,f
  2588     01FA  0CF5               	rrf	??_sqrt+1,f
  2589     01FB  0CF4               	rrf	??_sqrt,f
  2590     01FC                     u3560:
  2591     01FC  3EFF               	addlw	-1
  2592     01FD  1D03               	skipz
  2593     01FE  29F7               	goto	u3565
  2594     01FF  0877               	movf	??_sqrt+3,w
  2595     0200  00B4               	movwf	sqrt@frac+3
  2596     0201  0876               	movf	??_sqrt+2,w
  2597     0202  00B3               	movwf	sqrt@frac+2
  2598     0203  0875               	movf	??_sqrt+1,w
  2599     0204  00B2               	movwf	sqrt@frac+1
  2600     0205  0874               	movf	??_sqrt,w
  2601     0206  00B1               	movwf	sqrt@frac
  2602     0207                     l2657:
  2603     0207  3001               	movlw	1
  2604     0208  0531               	andwf	sqrt@frac,w
  2605     0209  00A7               	movwf	sqrt@grs
  2606     020A  3000               	movlw	0
  2607     020B  0532               	andwf	sqrt@frac+1,w
  2608     020C  00A8               	movwf	sqrt@grs+1
  2609     020D  3000               	movlw	0
  2610     020E  0533               	andwf	sqrt@frac+2,w
  2611     020F  00A9               	movwf	sqrt@grs+2
  2612     0210  3000               	movlw	0
  2613     0211  0534               	andwf	sqrt@frac+3,w
  2614     0212  00AA               	movwf	sqrt@grs+3
  2615     0213                     l2659:
  2616     0213  0831               	movf	sqrt@frac,w
  2617     0214  00F4               	movwf	??_sqrt
  2618     0215  0832               	movf	sqrt@frac+1,w
  2619     0216  00F5               	movwf	??_sqrt+1
  2620     0217  0833               	movf	sqrt@frac+2,w
  2621     0218  00F6               	movwf	??_sqrt+2
  2622     0219  0834               	movf	sqrt@frac+3,w
  2623     021A  00F7               	movwf	??_sqrt+3
  2624     021B  3001               	movlw	1
  2625     021C                     u3575:
  2626     021C  1003               	clrc
  2627     021D  0CF7               	rrf	??_sqrt+3,f
  2628     021E  0CF6               	rrf	??_sqrt+2,f
  2629     021F  0CF5               	rrf	??_sqrt+1,f
  2630     0220  0CF4               	rrf	??_sqrt,f
  2631     0221                     u3570:
  2632     0221  3EFF               	addlw	-1
  2633     0222  1D03               	skipz
  2634     0223  2A1C               	goto	u3575
  2635     0224  0877               	movf	??_sqrt+3,w
  2636     0225  00B4               	movwf	sqrt@frac+3
  2637     0226  0876               	movf	??_sqrt+2,w
  2638     0227  00B3               	movwf	sqrt@frac+2
  2639     0228  0875               	movf	??_sqrt+1,w
  2640     0229  00B2               	movwf	sqrt@frac+1
  2641     022A  0874               	movf	??_sqrt,w
  2642     022B  00B1               	movwf	sqrt@frac
  2643     022C  0827               	movf	sqrt@grs,w
  2644     022D  07B1               	addwf	sqrt@frac,f
  2645     022E  0828               	movf	sqrt@grs+1,w
  2646     022F  1103               	clrz
  2647     0230  1803               	skipnc
  2648     0231  3E01               	addlw	1
  2649     0232  1903               	skipnz
  2650     0233  2A35               	goto	u3581
  2651     0234  07B2               	addwf	sqrt@frac+1,f
  2652     0235                     u3581:
  2653     0235  0829               	movf	sqrt@grs+2,w
  2654     0236  1103               	clrz
  2655     0237  1803               	skipnc
  2656     0238  3E01               	addlw	1
  2657     0239  1903               	skipnz
  2658     023A  2A3C               	goto	u3582
  2659     023B  07B3               	addwf	sqrt@frac+2,f
  2660     023C                     u3582:
  2661     023C  082A               	movf	sqrt@grs+3,w
  2662     023D  1103               	clrz
  2663     023E  1803               	skipnc
  2664     023F  3E01               	addlw	1
  2665     0240  1903               	skipnz
  2666     0241  2A43               	goto	u3583
  2667     0242  07B4               	addwf	sqrt@frac+3,f
  2668     0243                     u3583:
  2669     0243                     l2661:
  2670     0243  1C34               	btfss	sqrt@frac+3,0
  2671     0244  2A46               	goto	u3591
  2672     0245  2A47               	goto	u3590
  2673     0246                     u3591:
  2674     0246  2A66               	goto	l2667
  2675     0247                     u3590:
  2676     0247                     l2663:
  2677     0247  0831               	movf	sqrt@frac,w
  2678     0248  00F4               	movwf	??_sqrt
  2679     0249  0832               	movf	sqrt@frac+1,w
  2680     024A  00F5               	movwf	??_sqrt+1
  2681     024B  0833               	movf	sqrt@frac+2,w
  2682     024C  00F6               	movwf	??_sqrt+2
  2683     024D  0834               	movf	sqrt@frac+3,w
  2684     024E  00F7               	movwf	??_sqrt+3
  2685     024F  3001               	movlw	1
  2686     0250                     u3605:
  2687     0250  1003               	clrc
  2688     0251  0CF7               	rrf	??_sqrt+3,f
  2689     0252  0CF6               	rrf	??_sqrt+2,f
  2690     0253  0CF5               	rrf	??_sqrt+1,f
  2691     0254  0CF4               	rrf	??_sqrt,f
  2692     0255                     u3600:
  2693     0255  3EFF               	addlw	-1
  2694     0256  1D03               	skipz
  2695     0257  2A50               	goto	u3605
  2696     0258  0877               	movf	??_sqrt+3,w
  2697     0259  00B4               	movwf	sqrt@frac+3
  2698     025A  0876               	movf	??_sqrt+2,w
  2699     025B  00B3               	movwf	sqrt@frac+2
  2700     025C  0875               	movf	??_sqrt+1,w
  2701     025D  00B2               	movwf	sqrt@frac+1
  2702     025E  0874               	movf	??_sqrt,w
  2703     025F  00B1               	movwf	sqrt@frac
  2704     0260                     l2665:
  2705     0260  3001               	movlw	1
  2706     0261  07AB               	addwf	sqrt@exp,f
  2707     0262  1803               	skipnc
  2708     0263  0AAC               	incf	sqrt@exp+1,f
  2709     0264  3000               	movlw	0
  2710     0265  07AC               	addwf	sqrt@exp+1,f
  2711     0266                     l2667:
  2712     0266  30FF               	movlw	255
  2713     0267  0531               	andwf	sqrt@frac,w
  2714     0268  00AD               	movwf	sqrt@root
  2715     0269  30FF               	movlw	255
  2716     026A  0532               	andwf	sqrt@frac+1,w
  2717     026B  00AE               	movwf	sqrt@root+1
  2718     026C  307F               	movlw	127
  2719     026D  0533               	andwf	sqrt@frac+2,w
  2720     026E  00AF               	movwf	sqrt@root+2
  2721     026F  3000               	movlw	0
  2722     0270  0534               	andwf	sqrt@frac+3,w
  2723     0271  00B0               	movwf	sqrt@root+3
  2724     0272                     l2669:
  2725     0272  082B               	movf	sqrt@exp,w
  2726     0273  00A6               	movwf	sqrt@p
  2727     0274                     l2671:
  2728     0274  1C26               	btfss	sqrt@p,0
  2729     0275  2A77               	goto	u3611
  2730     0276  2A78               	goto	u3610
  2731     0277                     u3611:
  2732     0277  2A79               	goto	l2675
  2733     0278                     u3610:
  2734     0278                     l2673:
  2735     0278  17AF               	bsf	sqrt@root+2,7
  2736     0279                     l2675:
  2737     0279  0826               	movf	sqrt@p,w
  2738     027A  00F4               	movwf	??_sqrt
  2739     027B  1003               	clrc
  2740     027C  0C74               	rrf	??_sqrt,w
  2741     027D  00B0               	movwf	sqrt@root+3
  2742     027E                     l2677:
  2743     027E  307F               	movlw	127
  2744     027F  00FF               	movwf	btemp+1
  2745     0280  087F               	movf	btemp+1,w
  2746     0281  05B0               	andwf	sqrt@root+3,f
  2747     0282                     l2679:
  2748     0282  0830               	movf	sqrt@root+3,w
  2749     0283  00F3               	movwf	?_sqrt+3
  2750     0284  082F               	movf	sqrt@root+2,w
  2751     0285  00F2               	movwf	?_sqrt+2
  2752     0286  082E               	movf	sqrt@root+1,w
  2753     0287  00F1               	movwf	?_sqrt+1
  2754     0288  082D               	movf	sqrt@root,w
  2755     0289  00F0               	movwf	?_sqrt
  2756     028A                     l615:
  2757     028A  0008               	return
  2758     028B                     __end_of_sqrt:
  2759                           
  2760                           	psect	text2
  2761     14C3                     __ptext2:	
  2762 ;; *************** function _show *****************
  2763 ;; Defined at:
  2764 ;;		line 139 in file "main_scale.c"
  2765 ;; Parameters:    Size  Location     Type
  2766 ;;  s               2    3[COMMON] PTR unsigned char 
  2767 ;;		 -> STR_5(8), STR_4(8), STR_3(8), STR_2(8), 
  2768 ;;		 -> STR_1(5), cadena(15), 
  2769 ;; Auto vars:     Size  Location     Type
  2770 ;;		None
  2771 ;; Return value:  Size  Location     Type
  2772 ;;                  1    wreg      void 
  2773 ;; Registers used:
  2774 ;;		wreg, fsr0l, fsr0h, status,2, status,0, btemp+1, pclath, cstack
  2775 ;; Tracked objects:
  2776 ;;		On entry : 0/0
  2777 ;;		On exit  : 0/0
  2778 ;;		Unchanged: 0/0
  2779 ;; Data sizes:     COMMON   BANK0   BANK1   BANK3   BANK2
  2780 ;;      Params:         2       0       0       0       0
  2781 ;;      Locals:         0       0       0       0       0
  2782 ;;      Temps:          0       0       0       0       0
  2783 ;;      Totals:         2       0       0       0       0
  2784 ;;Total ram usage:        2 bytes
  2785 ;; Hardware stack levels used: 1
  2786 ;; Hardware stack levels required when called: 2
  2787 ;; This function calls:
  2788 ;;		_dat
  2789 ;; This function is called by:
  2790 ;;		_main
  2791 ;; This function uses a non-reentrant model
  2792 ;;
  2793                           
  2794     14C3                     _show:	
  2795                           ;psect for function _show
  2796                           
  2797     14C3                     l2553:	
  2798                           ;incstack = 0
  2799                           ; Regs used in _show: [wreg-fsr0h+status,2+status,0+btemp+1+pclath+cstack]
  2800                           
  2801                           
  2802                           ;main_scale.c: 139: void show(unsigned char *s);main_scale.c: 140: {;main_scale.c: 141: 
      +                              while(*s) {
  2803     14C3  2CD8               	goto	l2559
  2804     14C4                     l2555:
  2805                           
  2806                           ;main_scale.c: 142:         dat(*s++);
  2807     14C4  0874               	movf	show@s+1,w
  2808     14C5  00FF               	movwf	btemp+1
  2809     14C6  0873               	movf	show@s,w
  2810     14C7  0084               	movwf	4
  2811     14C8  160A  118A  2000  160A  118A  	fcall	stringtab
  2812     14CD  160A  118A  2471  160A  118A  	fcall	_dat
  2813     14D2                     l2557:
  2814     14D2  3001               	movlw	1
  2815     14D3  07F3               	addwf	show@s,f
  2816     14D4  1803               	skipnc
  2817     14D5  0AF4               	incf	show@s+1,f
  2818     14D6  3000               	movlw	0
  2819     14D7  07F4               	addwf	show@s+1,f
  2820     14D8                     l2559:
  2821                           
  2822                           ;main_scale.c: 141:     while(*s) {
  2823     14D8  0874               	movf	show@s+1,w
  2824     14D9  1283               	bcf	3,5	;RP0=0, select bank0
  2825     14DA  1303               	bcf	3,6	;RP1=0, select bank0
  2826     14DB  00FF               	movwf	btemp+1
  2827     14DC  0873               	movf	show@s,w
  2828     14DD  0084               	movwf	4
  2829     14DE  160A  118A  2000  160A  118A  	fcall	stringtab
  2830     14E3  3A00               	xorlw	0
  2831     14E4  1D03               	skipz
  2832     14E5  2CE7               	goto	u3371
  2833     14E6  2CE8               	goto	u3370
  2834     14E7                     u3371:
  2835     14E7  2CC4               	goto	l2555
  2836     14E8                     u3370:
  2837     14E8                     l80:
  2838     14E8  0008               	return
  2839     14E9                     __end_of_show:
  2840                           
  2841                           	psect	text3
  2842     1471                     __ptext3:	
  2843 ;; *************** function _dat *****************
  2844 ;; Defined at:
  2845 ;;		line 129 in file "main_scale.c"
  2846 ;; Parameters:    Size  Location     Type
  2847 ;;  b               1    wreg     unsigned char 
  2848 ;; Auto vars:     Size  Location     Type
  2849 ;;  b               1    2[COMMON] unsigned char 
  2850 ;; Return value:  Size  Location     Type
  2851 ;;                  1    wreg      void 
  2852 ;; Registers used:
  2853 ;;		wreg, status,2, status,0, pclath, cstack
  2854 ;; Tracked objects:
  2855 ;;		On entry : 0/0
  2856 ;;		On exit  : 0/0
  2857 ;;		Unchanged: 0/0
  2858 ;; Data sizes:     COMMON   BANK0   BANK1   BANK3   BANK2
  2859 ;;      Params:         0       0       0       0       0
  2860 ;;      Locals:         1       0       0       0       0
  2861 ;;      Temps:          0       0       0       0       0
  2862 ;;      Totals:         1       0       0       0       0
  2863 ;;Total ram usage:        1 bytes
  2864 ;; Hardware stack levels used: 1
  2865 ;; Hardware stack levels required when called: 1
  2866 ;; This function calls:
  2867 ;;		_delay
  2868 ;; This function is called by:
  2869 ;;		_show
  2870 ;; This function uses a non-reentrant model
  2871 ;;
  2872                           
  2873     1471                     _dat:	
  2874                           ;psect for function _dat
  2875                           
  2876                           
  2877                           ;incstack = 0
  2878                           ; Regs used in _dat: [wreg+status,2+status,0+pclath+cstack]
  2879                           ;dat@b stored from wreg
  2880     1471  00F2               	movwf	dat@b
  2881     1472                     l2083:
  2882                           
  2883                           ;main_scale.c: 129: void dat(unsigned char b);main_scale.c: 130: {;main_scale.c: 131:   
      +                            PORTB=b;
  2884     1472  0872               	movf	dat@b,w
  2885     1473  1283               	bcf	3,5	;RP0=0, select bank0
  2886     1474  1303               	bcf	3,6	;RP1=0, select bank0
  2887     1475  0086               	movwf	6	;volatile
  2888     1476                     l2085:
  2889                           
  2890                           ;main_scale.c: 132:     RD2=1;
  2891     1476  1508               	bsf	8,2	;volatile
  2892     1477                     l2087:
  2893                           
  2894                           ;main_scale.c: 133:     RD3=0;
  2895     1477  1188               	bcf	8,3	;volatile
  2896     1478                     l2089:
  2897                           
  2898                           ;main_scale.c: 134:     RC4=1;
  2899     1478  1607               	bsf	7,4	;volatile
  2900     1479                     l2091:
  2901                           
  2902                           ;main_scale.c: 135:     delay(1000);
  2903     1479  30E8               	movlw	232
  2904     147A  00F0               	movwf	delay@cnt
  2905     147B  3003               	movlw	3
  2906     147C  00F1               	movwf	delay@cnt+1
  2907     147D  160A  118A  244D  160A  118A  	fcall	_delay
  2908     1482                     l2093:
  2909                           
  2910                           ;main_scale.c: 136:     RC4=0;
  2911     1482  1283               	bcf	3,5	;RP0=0, select bank0
  2912     1483  1303               	bcf	3,6	;RP1=0, select bank0
  2913     1484  1207               	bcf	7,4	;volatile
  2914     1485                     l74:
  2915     1485  0008               	return
  2916     1486                     __end_of_dat:
  2917                           
  2918                           	psect	text4
  2919     1486                     __ptext4:	
  2920 ;; *************** function _lcd_init *****************
  2921 ;; Defined at:
  2922 ;;		line 111 in file "main_scale.c"
  2923 ;; Parameters:    Size  Location     Type
  2924 ;;		None
  2925 ;; Auto vars:     Size  Location     Type
  2926 ;;		None
  2927 ;; Return value:  Size  Location     Type
  2928 ;;                  1    wreg      void 
  2929 ;; Registers used:
  2930 ;;		wreg, status,2, status,0, pclath, cstack
  2931 ;; Tracked objects:
  2932 ;;		On entry : 0/0
  2933 ;;		On exit  : 0/0
  2934 ;;		Unchanged: 0/0
  2935 ;; Data sizes:     COMMON   BANK0   BANK1   BANK3   BANK2
  2936 ;;      Params:         0       0       0       0       0
  2937 ;;      Locals:         0       0       0       0       0
  2938 ;;      Temps:          0       0       0       0       0
  2939 ;;      Totals:         0       0       0       0       0
  2940 ;;Total ram usage:        0 bytes
  2941 ;; Hardware stack levels used: 1
  2942 ;; Hardware stack levels required when called: 2
  2943 ;; This function calls:
  2944 ;;		_cmd
  2945 ;; This function is called by:
  2946 ;;		_main
  2947 ;; This function uses a non-reentrant model
  2948 ;;
  2949                           
  2950     1486                     _lcd_init:	
  2951                           ;psect for function _lcd_init
  2952                           
  2953     1486                     l2551:	
  2954                           ;incstack = 0
  2955                           ; Regs used in _lcd_init: [wreg+status,2+status,0+pclath+cstack]
  2956                           
  2957                           
  2958                           ;main_scale.c: 113:     cmd(0x38);
  2959     1486  3038               	movlw	56
  2960     1487  160A  118A  245C  160A  118A  	fcall	_cmd
  2961                           
  2962                           ;main_scale.c: 114:     cmd(0x0c);
  2963     148C  300C               	movlw	12
  2964     148D  160A  118A  245C  160A  118A  	fcall	_cmd
  2965                           
  2966                           ;main_scale.c: 115:     cmd(0x06);
  2967     1492  3006               	movlw	6
  2968     1493  160A  118A  245C  160A  118A  	fcall	_cmd
  2969                           
  2970                           ;main_scale.c: 116:     cmd(0x80);
  2971     1498  3080               	movlw	128
  2972     1499  160A  118A  245C  160A  118A  	fcall	_cmd
  2973     149E                     l68:
  2974     149E  0008               	return
  2975     149F                     __end_of_lcd_init:
  2976                           
  2977                           	psect	text5
  2978     145C                     __ptext5:	
  2979 ;; *************** function _cmd *****************
  2980 ;; Defined at:
  2981 ;;		line 119 in file "main_scale.c"
  2982 ;; Parameters:    Size  Location     Type
  2983 ;;  a               1    wreg     unsigned char 
  2984 ;; Auto vars:     Size  Location     Type
  2985 ;;  a               1    2[COMMON] unsigned char 
  2986 ;; Return value:  Size  Location     Type
  2987 ;;                  1    wreg      void 
  2988 ;; Registers used:
  2989 ;;		wreg, status,2, status,0, pclath, cstack
  2990 ;; Tracked objects:
  2991 ;;		On entry : 0/0
  2992 ;;		On exit  : 0/0
  2993 ;;		Unchanged: 0/0
  2994 ;; Data sizes:     COMMON   BANK0   BANK1   BANK3   BANK2
  2995 ;;      Params:         0       0       0       0       0
  2996 ;;      Locals:         1       0       0       0       0
  2997 ;;      Temps:          0       0       0       0       0
  2998 ;;      Totals:         1       0       0       0       0
  2999 ;;Total ram usage:        1 bytes
  3000 ;; Hardware stack levels used: 1
  3001 ;; Hardware stack levels required when called: 1
  3002 ;; This function calls:
  3003 ;;		_delay
  3004 ;; This function is called by:
  3005 ;;		_lcd_init
  3006 ;;		_main
  3007 ;; This function uses a non-reentrant model
  3008 ;;
  3009                           
  3010     145C                     _cmd:	
  3011                           ;psect for function _cmd
  3012                           
  3013                           
  3014                           ;incstack = 0
  3015                           ; Regs used in _cmd: [wreg+status,2+status,0+pclath+cstack]
  3016                           ;cmd@a stored from wreg
  3017     145C  00F2               	movwf	cmd@a
  3018     145D                     l2071:
  3019                           
  3020                           ;main_scale.c: 119: void cmd(unsigned char a);main_scale.c: 120: {;main_scale.c: 121:   
      +                            PORTB=a;
  3021     145D  0872               	movf	cmd@a,w
  3022     145E  1283               	bcf	3,5	;RP0=0, select bank0
  3023     145F  1303               	bcf	3,6	;RP1=0, select bank0
  3024     1460  0086               	movwf	6	;volatile
  3025     1461                     l2073:
  3026                           
  3027                           ;main_scale.c: 122:     RD2=0;
  3028     1461  1108               	bcf	8,2	;volatile
  3029     1462                     l2075:
  3030                           
  3031                           ;main_scale.c: 123:     RD3=0;
  3032     1462  1188               	bcf	8,3	;volatile
  3033     1463                     l2077:
  3034                           
  3035                           ;main_scale.c: 124:     RC4=1;
  3036     1463  1607               	bsf	7,4	;volatile
  3037     1464                     l2079:
  3038                           
  3039                           ;main_scale.c: 125:     delay(1000);
  3040     1464  30E8               	movlw	232
  3041     1465  00F0               	movwf	delay@cnt
  3042     1466  3003               	movlw	3
  3043     1467  00F1               	movwf	delay@cnt+1
  3044     1468  160A  118A  244D  160A  118A  	fcall	_delay
  3045     146D                     l2081:
  3046                           
  3047                           ;main_scale.c: 126:     RC4=0;
  3048     146D  1283               	bcf	3,5	;RP0=0, select bank0
  3049     146E  1303               	bcf	3,6	;RP1=0, select bank0
  3050     146F  1207               	bcf	7,4	;volatile
  3051     1470                     l71:
  3052     1470  0008               	return
  3053     1471                     __end_of_cmd:
  3054                           
  3055                           	psect	text6
  3056     086F                     __ptext6:	
  3057 ;; *************** function _float_LCD *****************
  3058 ;; Defined at:
  3059 ;;		line 87 in file "main_scale.c"
  3060 ;; Parameters:    Size  Location     Type
  3061 ;;  value           4   24[BANK1 ] float 
  3062 ;; Auto vars:     Size  Location     Type
  3063 ;;  i               2   33[BANK1 ] int 
  3064 ;;  pow_10          2   31[BANK1 ] int 
  3065 ;;  v_temp          2   29[BANK1 ] int 
  3066 ;;  flag            1   28[BANK1 ] unsigned char 
  3067 ;; Return value:  Size  Location     Type
  3068 ;;                  1    wreg      void 
  3069 ;; Registers used:
  3070 ;;		wreg, fsr0l, fsr0h, status,2, status,0, btemp+1, pclath, cstack
  3071 ;; Tracked objects:
  3072 ;;		On entry : 0/0
  3073 ;;		On exit  : 0/0
  3074 ;;		Unchanged: 0/0
  3075 ;; Data sizes:     COMMON   BANK0   BANK1   BANK3   BANK2
  3076 ;;      Params:         0       0       4       0       0
  3077 ;;      Locals:         0       0       7       0       0
  3078 ;;      Temps:          0       0       0       0       0
  3079 ;;      Totals:         0       0      11       0       0
  3080 ;;Total ram usage:       11 bytes
  3081 ;; Hardware stack levels used: 1
  3082 ;; Hardware stack levels required when called: 2
  3083 ;; This function calls:
  3084 ;;		___awdiv
  3085 ;;		___fldiv
  3086 ;;		___flmul
  3087 ;;		___flsub
  3088 ;;		___fltol
  3089 ;;		___xxtofl
  3090 ;;		_num_s
  3091 ;; This function is called by:
  3092 ;;		_main
  3093 ;; This function uses a non-reentrant model
  3094 ;;
  3095                           
  3096     086F                     _float_LCD:	
  3097                           ;psect for function _float_LCD
  3098                           
  3099     086F                     l2519:	
  3100                           ;incstack = 0
  3101                           ; Regs used in _float_LCD: [wreg-fsr0h+status,2+status,0+btemp+1+pclath+cstack]
  3102                           
  3103                           
  3104                           ;main_scale.c: 88:     char flag = 0;
  3105     086F  1683               	bsf	3,5	;RP0=1, select bank1
  3106     0870  1303               	bcf	3,6	;RP1=0, select bank1
  3107     0871  01BC               	clrf	float_LCD@flag^(0+128)
  3108     0872                     l2521:
  3109                           
  3110                           ;main_scale.c: 90:     int pow_10 = 1000;
  3111     0872  30E8               	movlw	232
  3112     0873  00BF               	movwf	float_LCD@pow_10^(0+128)
  3113     0874  3003               	movlw	3
  3114     0875  00C0               	movwf	(float_LCD@pow_10^(0+128)+1)
  3115     0876                     l2523:
  3116                           
  3117                           ;main_scale.c: 91:     for (int i = 0; i<8; i++){
  3118     0876  01C1               	clrf	float_LCD@i^(0+128)
  3119     0877  01C2               	clrf	(float_LCD@i+1)^(0+128)
  3120     0878                     l2529:
  3121                           
  3122                           ;main_scale.c: 92:         if(i == 4)
  3123     0878  3004               	movlw	4
  3124     0879  1683               	bsf	3,5	;RP0=1, select bank1
  3125     087A  1303               	bcf	3,6	;RP1=0, select bank1
  3126     087B  0641               	xorwf	float_LCD@i^(0+128),w
  3127     087C  0442               	iorwf	(float_LCD@i+1)^(0+128),w
  3128     087D  1D03               	btfss	3,2
  3129     087E  2880               	goto	u3341
  3130     087F  2881               	goto	u3340
  3131     0880                     u3341:
  3132     0880  28C9               	goto	l2537
  3133     0881                     u3340:
  3134     0881                     l2531:
  3135                           
  3136                           ;main_scale.c: 93:         {;main_scale.c: 94:             cadena[4] = '.';
  3137     0881  302E               	movlw	46
  3138     0882  1683               	bsf	3,5	;RP0=1, select bank3
  3139     0883  1703               	bsf	3,6	;RP1=1, select bank3
  3140     0884  0094               	movwf	(_cadena^(0+384)+4)
  3141     0885                     l2533:
  3142                           
  3143                           ;main_scale.c: 95:             value = value *1000;
  3144     0885  3044               	movlw	68
  3145     0886  1283               	bcf	3,5	;RP0=0, select bank0
  3146     0887  1303               	bcf	3,6	;RP1=0, select bank0
  3147     0888  00B8               	movwf	___flmul@b+3
  3148     0889  307A               	movlw	122
  3149     088A  00B7               	movwf	___flmul@b+2
  3150     088B  3000               	movlw	0
  3151     088C  00B6               	movwf	___flmul@b+1
  3152     088D  3000               	movlw	0
  3153     088E  00B5               	movwf	___flmul@b
  3154     088F  1683               	bsf	3,5	;RP0=1, select bank1
  3155     0890  1303               	bcf	3,6	;RP1=0, select bank1
  3156     0891  083B               	movf	(float_LCD@value+3)^(0+128),w
  3157     0892  1283               	bcf	3,5	;RP0=0, select bank0
  3158     0893  1303               	bcf	3,6	;RP1=0, select bank0
  3159     0894  00BC               	movwf	___flmul@a+3
  3160     0895  1683               	bsf	3,5	;RP0=1, select bank1
  3161     0896  1303               	bcf	3,6	;RP1=0, select bank1
  3162     0897  083A               	movf	(float_LCD@value+2)^(0+128),w
  3163     0898  1283               	bcf	3,5	;RP0=0, select bank0
  3164     0899  1303               	bcf	3,6	;RP1=0, select bank0
  3165     089A  00BB               	movwf	___flmul@a+2
  3166     089B  1683               	bsf	3,5	;RP0=1, select bank1
  3167     089C  1303               	bcf	3,6	;RP1=0, select bank1
  3168     089D  0839               	movf	(float_LCD@value+1)^(0+128),w
  3169     089E  1283               	bcf	3,5	;RP0=0, select bank0
  3170     089F  1303               	bcf	3,6	;RP1=0, select bank0
  3171     08A0  00BA               	movwf	___flmul@a+1
  3172     08A1  1683               	bsf	3,5	;RP0=1, select bank1
  3173     08A2  1303               	bcf	3,6	;RP1=0, select bank1
  3174     08A3  0838               	movf	float_LCD@value^(0+128),w
  3175     08A4  1283               	bcf	3,5	;RP0=0, select bank0
  3176     08A5  1303               	bcf	3,6	;RP1=0, select bank0
  3177     08A6  00B9               	movwf	___flmul@a
  3178     08A7  120A  158A  24BB  120A  158A  	fcall	___flmul
  3179     08AC  1283               	bcf	3,5	;RP0=0, select bank0
  3180     08AD  1303               	bcf	3,6	;RP1=0, select bank0
  3181     08AE  0838               	movf	?___flmul+3,w
  3182     08AF  1683               	bsf	3,5	;RP0=1, select bank1
  3183     08B0  1303               	bcf	3,6	;RP1=0, select bank1
  3184     08B1  00BB               	movwf	(float_LCD@value+3)^(0+128)
  3185     08B2  1283               	bcf	3,5	;RP0=0, select bank0
  3186     08B3  1303               	bcf	3,6	;RP1=0, select bank0
  3187     08B4  0837               	movf	?___flmul+2,w
  3188     08B5  1683               	bsf	3,5	;RP0=1, select bank1
  3189     08B6  1303               	bcf	3,6	;RP1=0, select bank1
  3190     08B7  00BA               	movwf	(float_LCD@value+2)^(0+128)
  3191     08B8  1283               	bcf	3,5	;RP0=0, select bank0
  3192     08B9  1303               	bcf	3,6	;RP1=0, select bank0
  3193     08BA  0836               	movf	?___flmul+1,w
  3194     08BB  1683               	bsf	3,5	;RP0=1, select bank1
  3195     08BC  1303               	bcf	3,6	;RP1=0, select bank1
  3196     08BD  00B9               	movwf	(float_LCD@value+1)^(0+128)
  3197     08BE  1283               	bcf	3,5	;RP0=0, select bank0
  3198     08BF  1303               	bcf	3,6	;RP1=0, select bank0
  3199     08C0  0835               	movf	?___flmul,w
  3200     08C1  1683               	bsf	3,5	;RP0=1, select bank1
  3201     08C2  1303               	bcf	3,6	;RP1=0, select bank1
  3202     08C3  00B8               	movwf	float_LCD@value^(0+128)
  3203     08C4                     l2535:
  3204                           
  3205                           ;main_scale.c: 96:             pow_10 = 100;
  3206     08C4  3064               	movlw	100
  3207     08C5  00BF               	movwf	float_LCD@pow_10^(0+128)
  3208     08C6  3000               	movlw	0
  3209     08C7  00C0               	movwf	(float_LCD@pow_10^(0+128)+1)
  3210                           
  3211                           ;main_scale.c: 97:             continue;
  3212     08C8  29B1               	goto	l2547
  3213     08C9                     l2537:
  3214                           
  3215                           ;main_scale.c: 99:         v_temp = (int)(value/pow_10);
  3216     08C9  083B               	movf	(float_LCD@value+3)^(0+128),w
  3217     08CA  1283               	bcf	3,5	;RP0=0, select bank0
  3218     08CB  1303               	bcf	3,6	;RP1=0, select bank0
  3219     08CC  00D6               	movwf	___fldiv@b+3
  3220     08CD  1683               	bsf	3,5	;RP0=1, select bank1
  3221     08CE  1303               	bcf	3,6	;RP1=0, select bank1
  3222     08CF  083A               	movf	(float_LCD@value+2)^(0+128),w
  3223     08D0  1283               	bcf	3,5	;RP0=0, select bank0
  3224     08D1  1303               	bcf	3,6	;RP1=0, select bank0
  3225     08D2  00D5               	movwf	___fldiv@b+2
  3226     08D3  1683               	bsf	3,5	;RP0=1, select bank1
  3227     08D4  1303               	bcf	3,6	;RP1=0, select bank1
  3228     08D5  0839               	movf	(float_LCD@value+1)^(0+128),w
  3229     08D6  1283               	bcf	3,5	;RP0=0, select bank0
  3230     08D7  1303               	bcf	3,6	;RP1=0, select bank0
  3231     08D8  00D4               	movwf	___fldiv@b+1
  3232     08D9  1683               	bsf	3,5	;RP0=1, select bank1
  3233     08DA  1303               	bcf	3,6	;RP1=0, select bank1
  3234     08DB  0838               	movf	float_LCD@value^(0+128),w
  3235     08DC  1283               	bcf	3,5	;RP0=0, select bank0
  3236     08DD  1303               	bcf	3,6	;RP1=0, select bank0
  3237     08DE  00D3               	movwf	___fldiv@b
  3238     08DF  1683               	bsf	3,5	;RP0=1, select bank1
  3239     08E0  1303               	bcf	3,6	;RP1=0, select bank1
  3240     08E1  083F               	movf	float_LCD@pow_10^(0+128),w
  3241     08E2  00F0               	movwf	___xxtofl@val
  3242     08E3  0840               	movf	(float_LCD@pow_10+1)^(0+128),w
  3243     08E4  00F1               	movwf	___xxtofl@val+1
  3244     08E5  3000               	movlw	0
  3245     08E6  1BF1               	btfsc	___xxtofl@val+1,7
  3246     08E7  30FF               	movlw	255
  3247     08E8  00F2               	movwf	___xxtofl@val+2
  3248     08E9  00F3               	movwf	___xxtofl@val+3
  3249     08EA  3001               	movlw	1
  3250     08EB  160A  118A  2579  120A  158A  	fcall	___xxtofl
  3251     08F0  0873               	movf	?___xxtofl+3,w
  3252     08F1  1283               	bcf	3,5	;RP0=0, select bank0
  3253     08F2  1303               	bcf	3,6	;RP1=0, select bank0
  3254     08F3  00D2               	movwf	___fldiv@a+3
  3255     08F4  0872               	movf	?___xxtofl+2,w
  3256     08F5  00D1               	movwf	___fldiv@a+2
  3257     08F6  0871               	movf	?___xxtofl+1,w
  3258     08F7  00D0               	movwf	___fldiv@a+1
  3259     08F8  0870               	movf	?___xxtofl,w
  3260     08F9  00CF               	movwf	___fldiv@a
  3261     08FA  160A  118A  2631  120A  158A  	fcall	___fldiv
  3262     08FF  1283               	bcf	3,5	;RP0=0, select bank0
  3263     0900  1303               	bcf	3,6	;RP1=0, select bank0
  3264     0901  0852               	movf	?___fldiv+3,w
  3265     0902  00EC               	movwf	___fltol@f1+3
  3266     0903  0851               	movf	?___fldiv+2,w
  3267     0904  00EB               	movwf	___fltol@f1+2
  3268     0905  0850               	movf	?___fldiv+1,w
  3269     0906  00EA               	movwf	___fltol@f1+1
  3270     0907  084F               	movf	?___fldiv,w
  3271     0908  00E9               	movwf	___fltol@f1
  3272     0909  120A  118A  2025  120A  158A  	fcall	___fltol
  3273     090E  1283               	bcf	3,5	;RP0=0, select bank0
  3274     090F  1303               	bcf	3,6	;RP1=0, select bank0
  3275     0910  086A               	movf	?___fltol+1,w
  3276     0911  1683               	bsf	3,5	;RP0=1, select bank1
  3277     0912  1303               	bcf	3,6	;RP1=0, select bank1
  3278     0913  00BE               	movwf	(float_LCD@v_temp+1)^(0+128)
  3279     0914  1283               	bcf	3,5	;RP0=0, select bank0
  3280     0915  1303               	bcf	3,6	;RP1=0, select bank0
  3281     0916  0869               	movf	?___fltol,w
  3282     0917  1683               	bsf	3,5	;RP0=1, select bank1
  3283     0918  1303               	bcf	3,6	;RP1=0, select bank1
  3284     0919  00BD               	movwf	float_LCD@v_temp^(0+128)
  3285     091A                     l2539:
  3286                           
  3287                           ;main_scale.c: 100:         cadena[i] = num_s(v_temp,flag);
  3288     091A  083E               	movf	(float_LCD@v_temp+1)^(0+128),w
  3289     091B  00F1               	movwf	num_s@val+1
  3290     091C  083D               	movf	float_LCD@v_temp^(0+128),w
  3291     091D  00F0               	movwf	num_s@val
  3292     091E  083C               	movf	float_LCD@flag^(0+128),w
  3293     091F  00F2               	movwf	num_s@flag
  3294     0920  160A  118A  253A  120A  158A  	fcall	_num_s
  3295     0925  00FF               	movwf	btemp+1
  3296     0926  1683               	bsf	3,5	;RP0=1, select bank1
  3297     0927  1303               	bcf	3,6	;RP1=0, select bank1
  3298     0928  0841               	movf	float_LCD@i^(0+128),w
  3299     0929  3E90               	addlw	(low (_cadena| (0+256)))& (0+255)
  3300     092A  0084               	movwf	4
  3301     092B  087F               	movf	btemp+1,w
  3302     092C  1783               	bsf	3,7	;select IRP bank3
  3303     092D  0080               	movwf	0
  3304     092E                     l2541:
  3305                           
  3306                           ;main_scale.c: 101:         if(v_temp != 0){flag = 1;}
  3307     092E  083D               	movf	float_LCD@v_temp^(0+128),w
  3308     092F  043E               	iorwf	(float_LCD@v_temp+1)^(0+128),w
  3309     0930  1903               	btfsc	3,2
  3310     0931  2933               	goto	u3351
  3311     0932  2934               	goto	u3350
  3312     0933                     u3351:
  3313     0933  2936               	goto	l2545
  3314     0934                     u3350:
  3315     0934                     l2543:
  3316     0934  01BC               	clrf	float_LCD@flag^(0+128)
  3317     0935  0ABC               	incf	float_LCD@flag^(0+128),f
  3318     0936                     l2545:
  3319                           
  3320                           ;main_scale.c: 102:         value = value - ((float)v_temp*pow_10);
  3321     0936  083F               	movf	float_LCD@pow_10^(0+128),w
  3322     0937  00F0               	movwf	___xxtofl@val
  3323     0938  0840               	movf	(float_LCD@pow_10+1)^(0+128),w
  3324     0939  00F1               	movwf	___xxtofl@val+1
  3325     093A  3000               	movlw	0
  3326     093B  1BF1               	btfsc	___xxtofl@val+1,7
  3327     093C  30FF               	movlw	255
  3328     093D  00F2               	movwf	___xxtofl@val+2
  3329     093E  00F3               	movwf	___xxtofl@val+3
  3330     093F  3001               	movlw	1
  3331     0940  160A  118A  2579  120A  158A  	fcall	___xxtofl
  3332     0945  0873               	movf	?___xxtofl+3,w
  3333     0946  1283               	bcf	3,5	;RP0=0, select bank0
  3334     0947  1303               	bcf	3,6	;RP1=0, select bank0
  3335     0948  00B8               	movwf	___flmul@b+3
  3336     0949  0872               	movf	?___xxtofl+2,w
  3337     094A  00B7               	movwf	___flmul@b+2
  3338     094B  0871               	movf	?___xxtofl+1,w
  3339     094C  00B6               	movwf	___flmul@b+1
  3340     094D  0870               	movf	?___xxtofl,w
  3341     094E  00B5               	movwf	___flmul@b
  3342     094F  1683               	bsf	3,5	;RP0=1, select bank1
  3343     0950  1303               	bcf	3,6	;RP1=0, select bank1
  3344     0951  083D               	movf	float_LCD@v_temp^(0+128),w
  3345     0952  00F0               	movwf	___xxtofl@val
  3346     0953  083E               	movf	(float_LCD@v_temp+1)^(0+128),w
  3347     0954  00F1               	movwf	___xxtofl@val+1
  3348     0955  3000               	movlw	0
  3349     0956  1BF1               	btfsc	___xxtofl@val+1,7
  3350     0957  30FF               	movlw	255
  3351     0958  00F2               	movwf	___xxtofl@val+2
  3352     0959  00F3               	movwf	___xxtofl@val+3
  3353     095A  3001               	movlw	1
  3354     095B  160A  118A  2579  120A  158A  	fcall	___xxtofl
  3355     0960  0873               	movf	?___xxtofl+3,w
  3356     0961  1283               	bcf	3,5	;RP0=0, select bank0
  3357     0962  1303               	bcf	3,6	;RP1=0, select bank0
  3358     0963  00BC               	movwf	___flmul@a+3
  3359     0964  0872               	movf	?___xxtofl+2,w
  3360     0965  00BB               	movwf	___flmul@a+2
  3361     0966  0871               	movf	?___xxtofl+1,w
  3362     0967  00BA               	movwf	___flmul@a+1
  3363     0968  0870               	movf	?___xxtofl,w
  3364     0969  00B9               	movwf	___flmul@a
  3365     096A  120A  158A  24BB  120A  158A  	fcall	___flmul
  3366     096F  1283               	bcf	3,5	;RP0=0, select bank0
  3367     0970  1303               	bcf	3,6	;RP1=0, select bank0
  3368     0971  0838               	movf	?___flmul+3,w
  3369     0972  1683               	bsf	3,5	;RP0=1, select bank1
  3370     0973  1303               	bcf	3,6	;RP1=0, select bank1
  3371     0974  00B3               	movwf	(___flsub@a+3)^(0+128)
  3372     0975  1283               	bcf	3,5	;RP0=0, select bank0
  3373     0976  1303               	bcf	3,6	;RP1=0, select bank0
  3374     0977  0837               	movf	?___flmul+2,w
  3375     0978  1683               	bsf	3,5	;RP0=1, select bank1
  3376     0979  1303               	bcf	3,6	;RP1=0, select bank1
  3377     097A  00B2               	movwf	(___flsub@a+2)^(0+128)
  3378     097B  1283               	bcf	3,5	;RP0=0, select bank0
  3379     097C  1303               	bcf	3,6	;RP1=0, select bank0
  3380     097D  0836               	movf	?___flmul+1,w
  3381     097E  1683               	bsf	3,5	;RP0=1, select bank1
  3382     097F  1303               	bcf	3,6	;RP1=0, select bank1
  3383     0980  00B1               	movwf	(___flsub@a+1)^(0+128)
  3384     0981  1283               	bcf	3,5	;RP0=0, select bank0
  3385     0982  1303               	bcf	3,6	;RP1=0, select bank0
  3386     0983  0835               	movf	?___flmul,w
  3387     0984  1683               	bsf	3,5	;RP0=1, select bank1
  3388     0985  1303               	bcf	3,6	;RP1=0, select bank1
  3389     0986  00B0               	movwf	___flsub@a^(0+128)
  3390     0987  083B               	movf	(float_LCD@value+3)^(0+128),w
  3391     0988  00B7               	movwf	(___flsub@b+3)^(0+128)
  3392     0989  083A               	movf	(float_LCD@value+2)^(0+128),w
  3393     098A  00B6               	movwf	(___flsub@b+2)^(0+128)
  3394     098B  0839               	movf	(float_LCD@value+1)^(0+128),w
  3395     098C  00B5               	movwf	(___flsub@b+1)^(0+128)
  3396     098D  0838               	movf	float_LCD@value^(0+128),w
  3397     098E  00B4               	movwf	___flsub@b^(0+128)
  3398     098F  160A  118A  249F  120A  158A  	fcall	___flsub
  3399     0994  1683               	bsf	3,5	;RP0=1, select bank1
  3400     0995  1303               	bcf	3,6	;RP1=0, select bank1
  3401     0996  0833               	movf	(?___flsub+3)^(0+128),w
  3402     0997  00BB               	movwf	(float_LCD@value+3)^(0+128)
  3403     0998  0832               	movf	(?___flsub+2)^(0+128),w
  3404     0999  00BA               	movwf	(float_LCD@value+2)^(0+128)
  3405     099A  0831               	movf	(?___flsub+1)^(0+128),w
  3406     099B  00B9               	movwf	(float_LCD@value+1)^(0+128)
  3407     099C  0830               	movf	?___flsub^(0+128),w
  3408     099D  00B8               	movwf	float_LCD@value^(0+128)
  3409                           
  3410                           ;main_scale.c: 103:         pow_10 = pow_10/10;
  3411     099E  300A               	movlw	10
  3412     099F  00F0               	movwf	___awdiv@divisor
  3413     09A0  3000               	movlw	0
  3414     09A1  00F1               	movwf	___awdiv@divisor+1
  3415     09A2  0840               	movf	(float_LCD@pow_10+1)^(0+128),w
  3416     09A3  00F3               	movwf	___awdiv@dividend+1
  3417     09A4  083F               	movf	float_LCD@pow_10^(0+128),w
  3418     09A5  00F2               	movwf	___awdiv@dividend
  3419     09A6  120A  158A  2008  120A  158A  	fcall	___awdiv
  3420     09AB  0871               	movf	?___awdiv+1,w
  3421     09AC  1683               	bsf	3,5	;RP0=1, select bank1
  3422     09AD  1303               	bcf	3,6	;RP1=0, select bank1
  3423     09AE  00C0               	movwf	(float_LCD@pow_10+1)^(0+128)
  3424     09AF  0870               	movf	?___awdiv,w
  3425     09B0  00BF               	movwf	float_LCD@pow_10^(0+128)
  3426     09B1                     l2547:
  3427     09B1  3001               	movlw	1
  3428     09B2  07C1               	addwf	float_LCD@i^(0+128),f
  3429     09B3  1803               	skipnc
  3430     09B4  0AC2               	incf	(float_LCD@i+1)^(0+128),f
  3431     09B5  3000               	movlw	0
  3432     09B6  07C2               	addwf	(float_LCD@i+1)^(0+128),f
  3433     09B7                     l2549:
  3434     09B7  0842               	movf	(float_LCD@i+1)^(0+128),w
  3435     09B8  3A80               	xorlw	128
  3436     09B9  00FF               	movwf	btemp+1
  3437     09BA  3080               	movlw	128
  3438     09BB  027F               	subwf	btemp+1,w
  3439     09BC  1D03               	skipz
  3440     09BD  29C0               	goto	u3365
  3441     09BE  3008               	movlw	8
  3442     09BF  0241               	subwf	float_LCD@i^(0+128),w
  3443     09C0                     u3365:
  3444     09C0  1C03               	skipc
  3445     09C1  29C3               	goto	u3361
  3446     09C2  29C4               	goto	u3360
  3447     09C3                     u3361:
  3448     09C3  2878               	goto	l2529
  3449     09C4                     u3360:
  3450     09C4                     l59:
  3451     09C4  0008               	return
  3452     09C5                     __end_of_float_LCD:
  3453                           
  3454                           	psect	text7
  3455     153A                     __ptext7:	
  3456 ;; *************** function _num_s *****************
  3457 ;; Defined at:
  3458 ;;		line 52 in file "main_scale.c"
  3459 ;; Parameters:    Size  Location     Type
  3460 ;;  val             2    0[COMMON] int 
  3461 ;;  flag            1    2[COMMON] unsigned char 
  3462 ;; Auto vars:     Size  Location     Type
  3463 ;;		None
  3464 ;; Return value:  Size  Location     Type
  3465 ;;                  1    wreg      unsigned char 
  3466 ;; Registers used:
  3467 ;;		wreg, fsr0l, fsr0h, status,2, status,0
  3468 ;; Tracked objects:
  3469 ;;		On entry : 0/0
  3470 ;;		On exit  : 0/0
  3471 ;;		Unchanged: 0/0
  3472 ;; Data sizes:     COMMON   BANK0   BANK1   BANK3   BANK2
  3473 ;;      Params:         3       0       0       0       0
  3474 ;;      Locals:         0       0       0       0       0
  3475 ;;      Temps:          0       0       0       0       0
  3476 ;;      Totals:         3       0       0       0       0
  3477 ;;Total ram usage:        3 bytes
  3478 ;; Hardware stack levels used: 1
  3479 ;; This function calls:
  3480 ;;		Nothing
  3481 ;; This function is called by:
  3482 ;;		_float_LCD
  3483 ;; This function uses a non-reentrant model
  3484 ;;
  3485                           
  3486     153A                     _num_s:	
  3487                           ;psect for function _num_s
  3488                           
  3489     153A                     l1997:	
  3490                           ;incstack = 0
  3491                           ; Regs used in _num_s: [wreg-fsr0h+status,2+status,0]
  3492                           
  3493                           
  3494                           ;main_scale.c: 53:     switch(val){
  3495     153A  2D56               	goto	l2065
  3496     153B                     l1999:
  3497                           
  3498                           ;main_scale.c: 55:             return '1';
  3499     153B  3031               	movlw	49
  3500     153C  2D78               	goto	l39
  3501     153D                     l2005:
  3502                           
  3503                           ;main_scale.c: 58:             return '2';
  3504     153D  3032               	movlw	50
  3505     153E  2D78               	goto	l39
  3506     153F                     l2011:
  3507                           
  3508                           ;main_scale.c: 61:             return '3';
  3509     153F  3033               	movlw	51
  3510     1540  2D78               	goto	l39
  3511     1541                     l2017:
  3512                           
  3513                           ;main_scale.c: 64:             return '4';
  3514     1541  3034               	movlw	52
  3515     1542  2D78               	goto	l39
  3516     1543                     l2023:
  3517                           
  3518                           ;main_scale.c: 67:             return '5';
  3519     1543  3035               	movlw	53
  3520     1544  2D78               	goto	l39
  3521     1545                     l2029:
  3522                           
  3523                           ;main_scale.c: 70:             return '6';
  3524     1545  3036               	movlw	54
  3525     1546  2D78               	goto	l39
  3526     1547                     l2035:
  3527                           
  3528                           ;main_scale.c: 73:             return '7';
  3529     1547  3037               	movlw	55
  3530     1548  2D78               	goto	l39
  3531     1549                     l2041:
  3532                           
  3533                           ;main_scale.c: 76:             return '8';
  3534     1549  3038               	movlw	56
  3535     154A  2D78               	goto	l39
  3536     154B                     l2047:
  3537                           
  3538                           ;main_scale.c: 79:             return '9';
  3539     154B  3039               	movlw	57
  3540     154C  2D78               	goto	l39
  3541     154D                     l2053:
  3542                           
  3543                           ;main_scale.c: 82:             if (flag == 0){return ' ';}
  3544     154D  0872               	movf	num_s@flag,w
  3545     154E  1D03               	btfss	3,2
  3546     154F  2D51               	goto	u2331
  3547     1550  2D52               	goto	u2330
  3548     1551                     u2331:
  3549     1551  2D54               	goto	l2061
  3550     1552                     u2330:
  3551     1552                     l2055:
  3552     1552  3020               	movlw	32
  3553     1553  2D78               	goto	l39
  3554     1554                     l2061:
  3555     1554  3030               	movlw	48
  3556     1555  2D78               	goto	l39
  3557     1556                     l2065:
  3558                           
  3559                           ; Switch on 2 bytes has been partitioned into a top level switch of size 1, and 1 sub-sw
      +                          itches
  3560                           ; Switch size 1, requested type "simple"
  3561                           ; Number of cases is 1, Range of values is 0 to 0
  3562                           ; switch strategies available:
  3563                           ; Name         Instructions Cycles
  3564                           ; simple_byte            4     3 (average)
  3565                           ; direct_byte           11     8 (fixed)
  3566                           ; jumptable            260     6 (fixed)
  3567                           ;	Chosen strategy is simple_byte
  3568     1556  0871               	movf	num_s@val+1,w
  3569     1557  3A00               	xorlw	0	; case 0
  3570     1558  1903               	skipnz
  3571     1559  2D5B               	goto	l2833
  3572     155A  2D4D               	goto	l2053
  3573     155B                     l2833:
  3574                           
  3575                           ; Switch size 1, requested type "simple"
  3576                           ; Number of cases is 9, Range of values is 1 to 9
  3577                           ; switch strategies available:
  3578                           ; Name         Instructions Cycles
  3579                           ; simple_byte           28    15 (average)
  3580                           ; direct_byte           38    11 (fixed)
  3581                           ; jumptable            263     9 (fixed)
  3582                           ;	Chosen strategy is simple_byte
  3583     155B  0870               	movf	num_s@val,w
  3584     155C  3A01               	xorlw	1	; case 1
  3585     155D  1903               	skipnz
  3586     155E  2D3B               	goto	l1999
  3587     155F  3A03               	xorlw	3	; case 2
  3588     1560  1903               	skipnz
  3589     1561  2D3D               	goto	l2005
  3590     1562  3A01               	xorlw	1	; case 3
  3591     1563  1903               	skipnz
  3592     1564  2D3F               	goto	l2011
  3593     1565  3A07               	xorlw	7	; case 4
  3594     1566  1903               	skipnz
  3595     1567  2D41               	goto	l2017
  3596     1568  3A01               	xorlw	1	; case 5
  3597     1569  1903               	skipnz
  3598     156A  2D43               	goto	l2023
  3599     156B  3A03               	xorlw	3	; case 6
  3600     156C  1903               	skipnz
  3601     156D  2D45               	goto	l2029
  3602     156E  3A01               	xorlw	1	; case 7
  3603     156F  1903               	skipnz
  3604     1570  2D47               	goto	l2035
  3605     1571  3A0F               	xorlw	15	; case 8
  3606     1572  1903               	skipnz
  3607     1573  2D49               	goto	l2041
  3608     1574  3A01               	xorlw	1	; case 9
  3609     1575  1903               	skipnz
  3610     1576  2D4B               	goto	l2047
  3611     1577  2D4D               	goto	l2053
  3612     1578                     l39:
  3613     1578  0008               	return
  3614     1579                     __end_of_num_s:
  3615                           
  3616                           	psect	text8
  3617     1579                     __ptext8:	
  3618 ;; *************** function ___xxtofl *****************
  3619 ;; Defined at:
  3620 ;;		line 10 in file "C:\Program Files\Microchip\xc8\v2.41\pic\sources\c90\common\xxtofl.c"
  3621 ;; Parameters:    Size  Location     Type
  3622 ;;  sign            1    wreg     unsigned char 
  3623 ;;  val             4    0[COMMON] long 
  3624 ;; Auto vars:     Size  Location     Type
  3625 ;;  sign            1    8[COMMON] unsigned char 
  3626 ;;  arg             4   10[COMMON] unsigned long 
  3627 ;;  exp             1    9[COMMON] unsigned char 
  3628 ;; Return value:  Size  Location     Type
  3629 ;;                  4    0[COMMON] unsigned char 
  3630 ;; Registers used:
  3631 ;;		wreg, status,2, status,0, btemp+1
  3632 ;; Tracked objects:
  3633 ;;		On entry : 0/0
  3634 ;;		On exit  : 0/0
  3635 ;;		Unchanged: 0/0
  3636 ;; Data sizes:     COMMON   BANK0   BANK1   BANK3   BANK2
  3637 ;;      Params:         4       0       0       0       0
  3638 ;;      Locals:         6       0       0       0       0
  3639 ;;      Temps:          4       0       0       0       0
  3640 ;;      Totals:        14       0       0       0       0
  3641 ;;Total ram usage:       14 bytes
  3642 ;; Hardware stack levels used: 1
  3643 ;; This function calls:
  3644 ;;		Nothing
  3645 ;; This function is called by:
  3646 ;;		_float_LCD
  3647 ;;		_main
  3648 ;; This function uses a non-reentrant model
  3649 ;;
  3650                           
  3651     1579                     ___xxtofl:	
  3652                           ;psect for function ___xxtofl
  3653                           
  3654                           
  3655                           ;incstack = 0
  3656                           ; Regs used in ___xxtofl: [wreg+status,2+status,0+btemp+1]
  3657                           ;___xxtofl@sign stored from wreg
  3658     1579  00F8               	movwf	___xxtofl@sign
  3659     157A                     l2471:
  3660     157A  0878               	movf	___xxtofl@sign,w
  3661     157B  1903               	btfsc	3,2
  3662     157C  2D7E               	goto	u3201
  3663     157D  2D7F               	goto	u3200
  3664     157E                     u3201:
  3665     157E  2D93               	goto	l2477
  3666     157F                     u3200:
  3667     157F                     l2473:
  3668     157F  1FF3               	btfss	___xxtofl@val+3,7
  3669     1580  2D82               	goto	u3211
  3670     1581  2D83               	goto	u3210
  3671     1582                     u3211:
  3672     1582  2D93               	goto	l2477
  3673     1583                     u3210:
  3674     1583                     l2475:
  3675     1583  0970               	comf	___xxtofl@val,w
  3676     1584  00FA               	movwf	___xxtofl@arg
  3677     1585  0971               	comf	___xxtofl@val+1,w
  3678     1586  00FB               	movwf	___xxtofl@arg+1
  3679     1587  0972               	comf	___xxtofl@val+2,w
  3680     1588  00FC               	movwf	___xxtofl@arg+2
  3681     1589  0973               	comf	___xxtofl@val+3,w
  3682     158A  00FD               	movwf	___xxtofl@arg+3
  3683     158B  0AFA               	incf	___xxtofl@arg,f
  3684     158C  1903               	skipnz
  3685     158D  0AFB               	incf	___xxtofl@arg+1,f
  3686     158E  1903               	skipnz
  3687     158F  0AFC               	incf	___xxtofl@arg+2,f
  3688     1590  1903               	skipnz
  3689     1591  0AFD               	incf	___xxtofl@arg+3,f
  3690     1592  2D9B               	goto	l648
  3691     1593                     l2477:
  3692     1593  0873               	movf	___xxtofl@val+3,w
  3693     1594  00FD               	movwf	___xxtofl@arg+3
  3694     1595  0872               	movf	___xxtofl@val+2,w
  3695     1596  00FC               	movwf	___xxtofl@arg+2
  3696     1597  0871               	movf	___xxtofl@val+1,w
  3697     1598  00FB               	movwf	___xxtofl@arg+1
  3698     1599  0870               	movf	___xxtofl@val,w
  3699     159A  00FA               	movwf	___xxtofl@arg
  3700     159B                     l648:
  3701     159B  0873               	movf	___xxtofl@val+3,w
  3702     159C  0472               	iorwf	___xxtofl@val+2,w
  3703     159D  0471               	iorwf	___xxtofl@val+1,w
  3704     159E  0470               	iorwf	___xxtofl@val,w
  3705     159F  1D03               	skipz
  3706     15A0  2DA2               	goto	u3221
  3707     15A1  2DA3               	goto	u3220
  3708     15A2                     u3221:
  3709     15A2  2DAC               	goto	l2483
  3710     15A3                     u3220:
  3711     15A3                     l2479:
  3712     15A3  3000               	movlw	0
  3713     15A4  00F3               	movwf	?___xxtofl+3
  3714     15A5  3000               	movlw	0
  3715     15A6  00F2               	movwf	?___xxtofl+2
  3716     15A7  3000               	movlw	0
  3717     15A8  00F1               	movwf	?___xxtofl+1
  3718     15A9  3000               	movlw	0
  3719     15AA  00F0               	movwf	?___xxtofl
  3720     15AB  2E30               	goto	l650
  3721     15AC                     l2483:
  3722     15AC  3096               	movlw	150
  3723     15AD  00F9               	movwf	___xxtofl@exp
  3724     15AE  2DBC               	goto	l2489
  3725     15AF                     l2485:
  3726     15AF  3001               	movlw	1
  3727     15B0  00FF               	movwf	btemp+1
  3728     15B1  087F               	movf	btemp+1,w
  3729     15B2  07F9               	addwf	___xxtofl@exp,f
  3730     15B3                     l2487:
  3731     15B3  3001               	movlw	1
  3732     15B4                     u3235:
  3733     15B4  1003               	clrc
  3734     15B5  0CFD               	rrf	___xxtofl@arg+3,f
  3735     15B6  0CFC               	rrf	___xxtofl@arg+2,f
  3736     15B7  0CFB               	rrf	___xxtofl@arg+1,f
  3737     15B8  0CFA               	rrf	___xxtofl@arg,f
  3738     15B9  3EFF               	addlw	-1
  3739     15BA  1D03               	skipz
  3740     15BB  2DB4               	goto	u3235
  3741     15BC                     l2489:
  3742     15BC  30FE               	movlw	254
  3743     15BD  057D               	andwf	___xxtofl@arg+3,w
  3744     15BE  1D03               	btfss	3,2
  3745     15BF  2DC1               	goto	u3241
  3746     15C0  2DC2               	goto	u3240
  3747     15C1                     u3241:
  3748     15C1  2DAF               	goto	l2485
  3749     15C2                     u3240:
  3750     15C2  2DDE               	goto	l2497
  3751     15C3                     l2491:
  3752     15C3  3001               	movlw	1
  3753     15C4  00FF               	movwf	btemp+1
  3754     15C5  087F               	movf	btemp+1,w
  3755     15C6  07F9               	addwf	___xxtofl@exp,f
  3756     15C7                     l2493:
  3757     15C7  3001               	movlw	1
  3758     15C8  07FA               	addwf	___xxtofl@arg,f
  3759     15C9  3000               	movlw	0
  3760     15CA  1803               	skipnc
  3761     15CB  3001               	movlw	1
  3762     15CC  07FB               	addwf	___xxtofl@arg+1,f
  3763     15CD  3000               	movlw	0
  3764     15CE  1803               	skipnc
  3765     15CF  3001               	movlw	1
  3766     15D0  07FC               	addwf	___xxtofl@arg+2,f
  3767     15D1  3000               	movlw	0
  3768     15D2  1803               	skipnc
  3769     15D3  3001               	movlw	1
  3770     15D4  07FD               	addwf	___xxtofl@arg+3,f
  3771     15D5                     l2495:
  3772     15D5  3001               	movlw	1
  3773     15D6                     u3255:
  3774     15D6  1003               	clrc
  3775     15D7  0CFD               	rrf	___xxtofl@arg+3,f
  3776     15D8  0CFC               	rrf	___xxtofl@arg+2,f
  3777     15D9  0CFB               	rrf	___xxtofl@arg+1,f
  3778     15DA  0CFA               	rrf	___xxtofl@arg,f
  3779     15DB  3EFF               	addlw	-1
  3780     15DC  1D03               	skipz
  3781     15DD  2DD6               	goto	u3255
  3782     15DE                     l2497:
  3783     15DE  30FF               	movlw	255
  3784     15DF  057D               	andwf	___xxtofl@arg+3,w
  3785     15E0  1D03               	btfss	3,2
  3786     15E1  2DE3               	goto	u3261
  3787     15E2  2DE4               	goto	u3260
  3788     15E3                     u3261:
  3789     15E3  2DC3               	goto	l2491
  3790     15E4                     u3260:
  3791     15E4  2DF0               	goto	l2501
  3792     15E5                     l2499:
  3793     15E5  3001               	movlw	1
  3794     15E6  02F9               	subwf	___xxtofl@exp,f
  3795     15E7  3001               	movlw	1
  3796     15E8  00F4               	movwf	??___xxtofl
  3797     15E9                     u3275:
  3798     15E9  1003               	clrc
  3799     15EA  0DFA               	rlf	___xxtofl@arg,f
  3800     15EB  0DFB               	rlf	___xxtofl@arg+1,f
  3801     15EC  0DFC               	rlf	___xxtofl@arg+2,f
  3802     15ED  0DFD               	rlf	___xxtofl@arg+3,f
  3803     15EE  0BF4               	decfsz	??___xxtofl,f
  3804     15EF  2DE9               	goto	u3275
  3805     15F0                     l2501:
  3806     15F0  1BFC               	btfsc	___xxtofl@arg+2,7
  3807     15F1  2DF3               	goto	u3281
  3808     15F2  2DF4               	goto	u3280
  3809     15F3                     u3281:
  3810     15F3  2DFA               	goto	l661
  3811     15F4                     u3280:
  3812     15F4                     l2503:
  3813     15F4  3002               	movlw	2
  3814     15F5  0279               	subwf	___xxtofl@exp,w
  3815     15F6  1803               	skipnc
  3816     15F7  2DF9               	goto	u3291
  3817     15F8  2DFA               	goto	u3290
  3818     15F9                     u3291:
  3819     15F9  2DE5               	goto	l2499
  3820     15FA                     u3290:
  3821     15FA                     l661:
  3822     15FA  1879               	btfsc	___xxtofl@exp,0
  3823     15FB  2DFD               	goto	u3301
  3824     15FC  2DFE               	goto	u3300
  3825     15FD                     u3301:
  3826     15FD  2E06               	goto	l662
  3827     15FE                     u3300:
  3828     15FE                     l2505:
  3829     15FE  30FF               	movlw	255
  3830     15FF  05FA               	andwf	___xxtofl@arg,f
  3831     1600  30FF               	movlw	255
  3832     1601  05FB               	andwf	___xxtofl@arg+1,f
  3833     1602  307F               	movlw	127
  3834     1603  05FC               	andwf	___xxtofl@arg+2,f
  3835     1604  30FF               	movlw	255
  3836     1605  05FD               	andwf	___xxtofl@arg+3,f
  3837     1606                     l662:
  3838     1606  1003               	clrc
  3839     1607  0CF9               	rrf	___xxtofl@exp,f
  3840     1608                     l2507:
  3841     1608  0879               	movf	___xxtofl@exp,w
  3842     1609  00F4               	movwf	??___xxtofl
  3843     160A  01F5               	clrf	??___xxtofl+1
  3844     160B  01F6               	clrf	??___xxtofl+2
  3845     160C  01F7               	clrf	??___xxtofl+3
  3846     160D  3018               	movlw	24
  3847     160E                     u3315:
  3848     160E  1003               	clrc
  3849     160F  0DF4               	rlf	??___xxtofl,f
  3850     1610  0DF5               	rlf	??___xxtofl+1,f
  3851     1611  0DF6               	rlf	??___xxtofl+2,f
  3852     1612  0DF7               	rlf	??___xxtofl+3,f
  3853     1613                     u3310:
  3854     1613  3EFF               	addlw	-1
  3855     1614  1D03               	skipz
  3856     1615  2E0E               	goto	u3315
  3857     1616  0874               	movf	??___xxtofl,w
  3858     1617  04FA               	iorwf	___xxtofl@arg,f
  3859     1618  0875               	movf	??___xxtofl+1,w
  3860     1619  04FB               	iorwf	___xxtofl@arg+1,f
  3861     161A  0876               	movf	??___xxtofl+2,w
  3862     161B  04FC               	iorwf	___xxtofl@arg+2,f
  3863     161C  0877               	movf	??___xxtofl+3,w
  3864     161D  04FD               	iorwf	___xxtofl@arg+3,f
  3865     161E                     l2509:
  3866     161E  0878               	movf	___xxtofl@sign,w
  3867     161F  1903               	btfsc	3,2
  3868     1620  2E22               	goto	u3321
  3869     1621  2E23               	goto	u3320
  3870     1622                     u3321:
  3871     1622  2E28               	goto	l2515
  3872     1623                     u3320:
  3873     1623                     l2511:
  3874     1623  1FF3               	btfss	___xxtofl@val+3,7
  3875     1624  2E26               	goto	u3331
  3876     1625  2E27               	goto	u3330
  3877     1626                     u3331:
  3878     1626  2E28               	goto	l2515
  3879     1627                     u3330:
  3880     1627                     l2513:
  3881     1627  17FD               	bsf	___xxtofl@arg+3,7
  3882     1628                     l2515:
  3883     1628  087D               	movf	___xxtofl@arg+3,w
  3884     1629  00F3               	movwf	?___xxtofl+3
  3885     162A  087C               	movf	___xxtofl@arg+2,w
  3886     162B  00F2               	movwf	?___xxtofl+2
  3887     162C  087B               	movf	___xxtofl@arg+1,w
  3888     162D  00F1               	movwf	?___xxtofl+1
  3889     162E  087A               	movf	___xxtofl@arg,w
  3890     162F  00F0               	movwf	?___xxtofl
  3891     1630                     l650:
  3892     1630  0008               	return
  3893     1631                     __end_of___xxtofl:
  3894                           
  3895                           	psect	text9
  3896     0025                     __ptext9:	
  3897 ;; *************** function ___fltol *****************
  3898 ;; Defined at:
  3899 ;;		line 43 in file "C:\Program Files\Microchip\xc8\v2.41\pic\sources\c90\common\fltol.c"
  3900 ;; Parameters:    Size  Location     Type
  3901 ;;  f1              4   73[BANK0 ] unsigned char 
  3902 ;; Auto vars:     Size  Location     Type
  3903 ;;  exp1            1   78[BANK0 ] unsigned char 
  3904 ;;  sign1           1   77[BANK0 ] unsigned char 
  3905 ;; Return value:  Size  Location     Type
  3906 ;;                  4   73[BANK0 ] long 
  3907 ;; Registers used:
  3908 ;;		wreg, status,2, status,0, btemp+1
  3909 ;; Tracked objects:
  3910 ;;		On entry : 0/0
  3911 ;;		On exit  : 0/0
  3912 ;;		Unchanged: 0/0
  3913 ;; Data sizes:     COMMON   BANK0   BANK1   BANK3   BANK2
  3914 ;;      Params:         0       4       0       0       0
  3915 ;;      Locals:         0       2       0       0       0
  3916 ;;      Temps:          0       0       4       0       0
  3917 ;;      Totals:         0       6       4       0       0
  3918 ;;Total ram usage:       10 bytes
  3919 ;; Hardware stack levels used: 1
  3920 ;; This function calls:
  3921 ;;		Nothing
  3922 ;; This function is called by:
  3923 ;;		_float_LCD
  3924 ;; This function uses a non-reentrant model
  3925 ;;
  3926                           
  3927     0025                     ___fltol:	
  3928                           ;psect for function ___fltol
  3929                           
  3930     0025                     l2139:	
  3931                           ;incstack = 0
  3932                           ; Regs used in ___fltol: [wreg+status,2+status,0+btemp+1]
  3933                           
  3934     0025  1003               	clrc
  3935     0026  1283               	bcf	3,5	;RP0=0, select bank0
  3936     0027  1303               	bcf	3,6	;RP1=0, select bank0
  3937     0028  0D6B               	rlf	___fltol@f1+2,w
  3938     0029  0D6C               	rlf	___fltol@f1+3,w
  3939     002A  00EE               	movwf	___fltol@exp1
  3940     002B  086E               	movf	___fltol@exp1,w
  3941     002C  1D03               	btfss	3,2
  3942     002D  282F               	goto	u2441
  3943     002E  2830               	goto	u2440
  3944     002F                     u2441:
  3945     002F  2839               	goto	l2145
  3946     0030                     u2440:
  3947     0030                     l2141:
  3948     0030  3000               	movlw	0
  3949     0031  00EC               	movwf	?___fltol+3
  3950     0032  3000               	movlw	0
  3951     0033  00EB               	movwf	?___fltol+2
  3952     0034  3000               	movlw	0
  3953     0035  00EA               	movwf	?___fltol+1
  3954     0036  3000               	movlw	0
  3955     0037  00E9               	movwf	?___fltol
  3956     0038  28B4               	goto	l381
  3957     0039                     l2145:
  3958     0039  0869               	movf	___fltol@f1,w
  3959     003A  1683               	bsf	3,5	;RP0=1, select bank1
  3960     003B  1303               	bcf	3,6	;RP1=0, select bank1
  3961     003C  00A0               	movwf	??___fltol^(0+128)
  3962     003D  1283               	bcf	3,5	;RP0=0, select bank0
  3963     003E  1303               	bcf	3,6	;RP1=0, select bank0
  3964     003F  086A               	movf	___fltol@f1+1,w
  3965     0040  1683               	bsf	3,5	;RP0=1, select bank1
  3966     0041  1303               	bcf	3,6	;RP1=0, select bank1
  3967     0042  00A1               	movwf	(??___fltol^(0+128)+1)
  3968     0043  1283               	bcf	3,5	;RP0=0, select bank0
  3969     0044  1303               	bcf	3,6	;RP1=0, select bank0
  3970     0045  086B               	movf	___fltol@f1+2,w
  3971     0046  1683               	bsf	3,5	;RP0=1, select bank1
  3972     0047  1303               	bcf	3,6	;RP1=0, select bank1
  3973     0048  00A2               	movwf	(??___fltol^(0+128)+2)
  3974     0049  1283               	bcf	3,5	;RP0=0, select bank0
  3975     004A  1303               	bcf	3,6	;RP1=0, select bank0
  3976     004B  086C               	movf	___fltol@f1+3,w
  3977     004C  1683               	bsf	3,5	;RP0=1, select bank1
  3978     004D  1303               	bcf	3,6	;RP1=0, select bank1
  3979     004E  00A3               	movwf	(??___fltol^(0+128)+3)
  3980     004F  301F               	movlw	31
  3981     0050                     u2455:
  3982     0050  1003               	clrc
  3983     0051  0CA3               	rrf	(??___fltol^(0+128)+3),f
  3984     0052  0CA2               	rrf	(??___fltol^(0+128)+2),f
  3985     0053  0CA1               	rrf	(??___fltol^(0+128)+1),f
  3986     0054  0CA0               	rrf	??___fltol^(0+128),f
  3987     0055                     u2450:
  3988     0055  3EFF               	addlw	-1
  3989     0056  1D03               	skipz
  3990     0057  2850               	goto	u2455
  3991     0058  0820               	movf	??___fltol^(0+128),w
  3992     0059  1283               	bcf	3,5	;RP0=0, select bank0
  3993     005A  1303               	bcf	3,6	;RP1=0, select bank0
  3994     005B  00ED               	movwf	___fltol@sign1
  3995     005C                     l2147:
  3996     005C  17EB               	bsf	___fltol@f1+2,7
  3997     005D                     l2149:
  3998     005D  30FF               	movlw	255
  3999     005E  05E9               	andwf	___fltol@f1,f
  4000     005F  30FF               	movlw	255
  4001     0060  05EA               	andwf	___fltol@f1+1,f
  4002     0061  30FF               	movlw	255
  4003     0062  05EB               	andwf	___fltol@f1+2,f
  4004     0063  3000               	movlw	0
  4005     0064  05EC               	andwf	___fltol@f1+3,f
  4006     0065                     l2151:
  4007     0065  3096               	movlw	150
  4008     0066  02EE               	subwf	___fltol@exp1,f
  4009     0067                     l2153:
  4010     0067  1FEE               	btfss	___fltol@exp1,7
  4011     0068  286A               	goto	u2461
  4012     0069  286B               	goto	u2460
  4013     006A                     u2461:
  4014     006A  2885               	goto	l2165
  4015     006B                     u2460:
  4016     006B                     l2155:
  4017     006B  086E               	movf	___fltol@exp1,w
  4018     006C  3A80               	xorlw	128
  4019     006D  3E97               	addlw	151
  4020     006E  1803               	skipnc
  4021     006F  2871               	goto	u2471
  4022     0070  2872               	goto	u2470
  4023     0071                     u2471:
  4024     0071  2873               	goto	l2161
  4025     0072                     u2470:
  4026     0072  2830               	goto	l2141
  4027     0073                     l2161:
  4028     0073  3001               	movlw	1
  4029     0074                     u2485:
  4030     0074  1003               	clrc
  4031     0075  0CEC               	rrf	___fltol@f1+3,f
  4032     0076  0CEB               	rrf	___fltol@f1+2,f
  4033     0077  0CEA               	rrf	___fltol@f1+1,f
  4034     0078  0CE9               	rrf	___fltol@f1,f
  4035     0079  3EFF               	addlw	-1
  4036     007A  1D03               	skipz
  4037     007B  2874               	goto	u2485
  4038     007C                     l2163:
  4039     007C  3001               	movlw	1
  4040     007D  00FF               	movwf	btemp+1
  4041     007E  087F               	movf	btemp+1,w
  4042     007F  07EE               	addwf	___fltol@exp1,f
  4043     0080  1D03               	btfss	3,2
  4044     0081  2883               	goto	u2491
  4045     0082  2884               	goto	u2490
  4046     0083                     u2491:
  4047     0083  2873               	goto	l2161
  4048     0084                     u2490:
  4049     0084  28A4               	goto	l2173
  4050     0085                     l2165:
  4051     0085  3020               	movlw	32
  4052     0086  026E               	subwf	___fltol@exp1,w
  4053     0087  1C03               	skipc
  4054     0088  288A               	goto	u2501
  4055     0089  288B               	goto	u2500
  4056     008A                     u2501:
  4057     008A  289F               	goto	l388
  4058     008B                     u2500:
  4059     008B  2830               	goto	l2141
  4060     008C                     l2171:
  4061     008C  3001               	movlw	1
  4062     008D  1683               	bsf	3,5	;RP0=1, select bank1
  4063     008E  1303               	bcf	3,6	;RP1=0, select bank1
  4064     008F  00A0               	movwf	??___fltol^(0+128)
  4065     0090                     u2515:
  4066     0090  1003               	clrc
  4067     0091  1283               	bcf	3,5	;RP0=0, select bank0
  4068     0092  1303               	bcf	3,6	;RP1=0, select bank0
  4069     0093  0DE9               	rlf	___fltol@f1,f
  4070     0094  0DEA               	rlf	___fltol@f1+1,f
  4071     0095  0DEB               	rlf	___fltol@f1+2,f
  4072     0096  0DEC               	rlf	___fltol@f1+3,f
  4073     0097  1683               	bsf	3,5	;RP0=1, select bank1
  4074     0098  1303               	bcf	3,6	;RP1=0, select bank1
  4075     0099  0BA0               	decfsz	??___fltol^(0+128),f
  4076     009A  2890               	goto	u2515
  4077     009B  3001               	movlw	1
  4078     009C  1283               	bcf	3,5	;RP0=0, select bank0
  4079     009D  1303               	bcf	3,6	;RP1=0, select bank0
  4080     009E  02EE               	subwf	___fltol@exp1,f
  4081     009F                     l388:
  4082     009F  086E               	movf	___fltol@exp1,w
  4083     00A0  1D03               	btfss	3,2
  4084     00A1  28A3               	goto	u2521
  4085     00A2  28A4               	goto	u2520
  4086     00A3                     u2521:
  4087     00A3  288C               	goto	l2171
  4088     00A4                     u2520:
  4089     00A4                     l2173:
  4090     00A4  086D               	movf	___fltol@sign1,w
  4091     00A5  1903               	btfsc	3,2
  4092     00A6  28A8               	goto	u2531
  4093     00A7  28A9               	goto	u2530
  4094     00A8                     u2531:
  4095     00A8  28B4               	goto	l391
  4096     00A9                     u2530:
  4097     00A9                     l2175:
  4098     00A9  09E9               	comf	___fltol@f1,f
  4099     00AA  09EA               	comf	___fltol@f1+1,f
  4100     00AB  09EB               	comf	___fltol@f1+2,f
  4101     00AC  09EC               	comf	___fltol@f1+3,f
  4102     00AD  0AE9               	incf	___fltol@f1,f
  4103     00AE  1903               	skipnz
  4104     00AF  0AEA               	incf	___fltol@f1+1,f
  4105     00B0  1903               	skipnz
  4106     00B1  0AEB               	incf	___fltol@f1+2,f
  4107     00B2  1903               	skipnz
  4108     00B3  0AEC               	incf	___fltol@f1+3,f
  4109     00B4                     l391:
  4110     00B4                     l381:
  4111     00B4  0008               	return
  4112     00B5                     __end_of___fltol:
  4113                           
  4114                           	psect	text10
  4115     149F                     __ptext10:	
  4116 ;; *************** function ___flsub *****************
  4117 ;; Defined at:
  4118 ;;		line 242 in file "C:\Program Files\Microchip\xc8\v2.41\pic\sources\c90\common\sprcadd.c"
  4119 ;; Parameters:    Size  Location     Type
  4120 ;;  a               4   16[BANK1 ] long 
  4121 ;;  b               4   20[BANK1 ] long 
  4122 ;; Auto vars:     Size  Location     Type
  4123 ;;		None
  4124 ;; Return value:  Size  Location     Type
  4125 ;;                  4   16[BANK1 ] long 
  4126 ;; Registers used:
  4127 ;;		wreg, status,2, status,0, btemp+1, pclath, cstack
  4128 ;; Tracked objects:
  4129 ;;		On entry : 0/0
  4130 ;;		On exit  : 0/0
  4131 ;;		Unchanged: 0/0
  4132 ;; Data sizes:     COMMON   BANK0   BANK1   BANK3   BANK2
  4133 ;;      Params:         0       0       8       0       0
  4134 ;;      Locals:         0       0       0       0       0
  4135 ;;      Temps:          0       0       0       0       0
  4136 ;;      Totals:         0       0       8       0       0
  4137 ;;Total ram usage:        8 bytes
  4138 ;; Hardware stack levels used: 1
  4139 ;; Hardware stack levels required when called: 1
  4140 ;; This function calls:
  4141 ;;		___fladd
  4142 ;; This function is called by:
  4143 ;;		_float_LCD
  4144 ;; This function uses a non-reentrant model
  4145 ;;
  4146                           
  4147     149F                     ___flsub:	
  4148                           ;psect for function ___flsub
  4149                           
  4150     149F                     l2177:	
  4151                           ;incstack = 0
  4152                           ; Regs used in ___flsub: [wreg+status,2+status,0+btemp+1+pclath+cstack]
  4153                           
  4154     149F  3080               	movlw	128
  4155     14A0  1683               	bsf	3,5	;RP0=1, select bank1
  4156     14A1  1303               	bcf	3,6	;RP1=0, select bank1
  4157     14A2  06B3               	xorwf	(___flsub@a+3)^(0+128),f
  4158     14A3                     l2179:
  4159     14A3  0837               	movf	(___flsub@b+3)^(0+128),w
  4160     14A4  00A3               	movwf	(___fladd@b+3)^(0+128)
  4161     14A5  0836               	movf	(___flsub@b+2)^(0+128),w
  4162     14A6  00A2               	movwf	(___fladd@b+2)^(0+128)
  4163     14A7  0835               	movf	(___flsub@b+1)^(0+128),w
  4164     14A8  00A1               	movwf	(___fladd@b+1)^(0+128)
  4165     14A9  0834               	movf	___flsub@b^(0+128),w
  4166     14AA  00A0               	movwf	___fladd@b^(0+128)
  4167     14AB  0833               	movf	(___flsub@a+3)^(0+128),w
  4168     14AC  00A7               	movwf	(___fladd@a+3)^(0+128)
  4169     14AD  0832               	movf	(___flsub@a+2)^(0+128),w
  4170     14AE  00A6               	movwf	(___fladd@a+2)^(0+128)
  4171     14AF  0831               	movf	(___flsub@a+1)^(0+128),w
  4172     14B0  00A5               	movwf	(___fladd@a+1)^(0+128)
  4173     14B1  0830               	movf	___flsub@a^(0+128),w
  4174     14B2  00A4               	movwf	___fladd@a^(0+128)
  4175     14B3  120A  158A  21C5  160A  118A  	fcall	___fladd
  4176     14B8  1683               	bsf	3,5	;RP0=1, select bank1
  4177     14B9  1303               	bcf	3,6	;RP1=0, select bank1
  4178     14BA  0823               	movf	(?___fladd+3)^(0+128),w
  4179     14BB  00B3               	movwf	(?___flsub+3)^(0+128)
  4180     14BC  0822               	movf	(?___fladd+2)^(0+128),w
  4181     14BD  00B2               	movwf	(?___flsub+2)^(0+128)
  4182     14BE  0821               	movf	(?___fladd+1)^(0+128),w
  4183     14BF  00B1               	movwf	(?___flsub+1)^(0+128)
  4184     14C0  0820               	movf	?___fladd^(0+128),w
  4185     14C1  00B0               	movwf	?___flsub^(0+128)
  4186     14C2                     l534:
  4187     14C2  0008               	return
  4188     14C3                     __end_of___flsub:
  4189                           
  4190                           	psect	text11
  4191     09C5                     __ptext11:	
  4192 ;; *************** function ___fladd *****************
  4193 ;; Defined at:
  4194 ;;		line 10 in file "C:\Program Files\Microchip\xc8\v2.41\pic\sources\c90\common\sprcadd.c"
  4195 ;; Parameters:    Size  Location     Type
  4196 ;;  b               4    0[BANK1 ] long 
  4197 ;;  a               4    4[BANK1 ] long 
  4198 ;; Auto vars:     Size  Location     Type
  4199 ;;  grs             1   76[BANK0 ] unsigned char 
  4200 ;;  bexp            1   75[BANK0 ] unsigned char 
  4201 ;;  aexp            1   74[BANK0 ] unsigned char 
  4202 ;;  signs           1   73[BANK0 ] unsigned char 
  4203 ;; Return value:  Size  Location     Type
  4204 ;;                  4    0[BANK1 ] unsigned char 
  4205 ;; Registers used:
  4206 ;;		wreg, status,2, status,0, btemp+1
  4207 ;; Tracked objects:
  4208 ;;		On entry : 0/0
  4209 ;;		On exit  : 0/0
  4210 ;;		Unchanged: 0/0
  4211 ;; Data sizes:     COMMON   BANK0   BANK1   BANK3   BANK2
  4212 ;;      Params:         0       0       8       0       0
  4213 ;;      Locals:         0       4       0       0       0
  4214 ;;      Temps:          0       0       8       0       0
  4215 ;;      Totals:         0       4      16       0       0
  4216 ;;Total ram usage:       20 bytes
  4217 ;; Hardware stack levels used: 1
  4218 ;; This function calls:
  4219 ;;		Nothing
  4220 ;; This function is called by:
  4221 ;;		_main
  4222 ;;		___flsub
  4223 ;; This function uses a non-reentrant model
  4224 ;;
  4225                           
  4226     09C5                     ___fladd:	
  4227                           ;psect for function ___fladd
  4228                           
  4229     09C5                     l1783:	
  4230                           ;incstack = 0
  4231                           ; Regs used in ___fladd: [wreg+status,2+status,0+btemp+1]
  4232                           
  4233     09C5  1683               	bsf	3,5	;RP0=1, select bank1
  4234     09C6  1303               	bcf	3,6	;RP1=0, select bank1
  4235     09C7  0823               	movf	(___fladd@b^(0+128)+3),w
  4236     09C8  3980               	andlw	128
  4237     09C9  1283               	bcf	3,5	;RP0=0, select bank0
  4238     09CA  1303               	bcf	3,6	;RP1=0, select bank0
  4239     09CB  00E9               	movwf	___fladd@signs
  4240     09CC                     l1785:
  4241     09CC  1683               	bsf	3,5	;RP0=1, select bank1
  4242     09CD  1303               	bcf	3,6	;RP1=0, select bank1
  4243     09CE  0823               	movf	(___fladd@b^(0+128)+3),w
  4244     09CF  00A8               	movwf	??___fladd^(0+128)
  4245     09D0  0728               	addwf	??___fladd^(0+128),w
  4246     09D1  1283               	bcf	3,5	;RP0=0, select bank0
  4247     09D2  1303               	bcf	3,6	;RP1=0, select bank0
  4248     09D3  00EB               	movwf	___fladd@bexp
  4249     09D4                     l1787:
  4250     09D4  1683               	bsf	3,5	;RP0=1, select bank1
  4251     09D5  1303               	bcf	3,6	;RP1=0, select bank1
  4252     09D6  1FA2               	btfss	(___fladd@b^(0+128)+2),7
  4253     09D7  29D9               	goto	u1841
  4254     09D8  29DA               	goto	u1840
  4255     09D9                     u1841:
  4256     09D9  29DD               	goto	l1791
  4257     09DA                     u1840:
  4258     09DA                     l1789:
  4259     09DA  1283               	bcf	3,5	;RP0=0, select bank0
  4260     09DB  1303               	bcf	3,6	;RP1=0, select bank0
  4261     09DC  146B               	bsf	___fladd@bexp,0
  4262     09DD                     l1791:
  4263     09DD  1283               	bcf	3,5	;RP0=0, select bank0
  4264     09DE  086B               	movf	___fladd@bexp,w
  4265     09DF  1903               	btfsc	3,2
  4266     09E0  29E2               	goto	u1851
  4267     09E1  29E3               	goto	u1850
  4268     09E2                     u1851:
  4269     09E2  29F7               	goto	l1801
  4270     09E3                     u1850:
  4271     09E3                     l1793:
  4272     09E3  0A6B               	incf	___fladd@bexp,w
  4273     09E4  1D03               	btfss	3,2
  4274     09E5  29E7               	goto	u1861
  4275     09E6  29E8               	goto	u1860
  4276     09E7                     u1861:
  4277     09E7  29F2               	goto	l1797
  4278     09E8                     u1860:
  4279     09E8                     l1795:
  4280     09E8  3000               	movlw	0
  4281     09E9  1683               	bsf	3,5	;RP0=1, select bank1
  4282     09EA  1303               	bcf	3,6	;RP1=0, select bank1
  4283     09EB  00A3               	movwf	(___fladd@b+3)^(0+128)
  4284     09EC  3000               	movlw	0
  4285     09ED  00A2               	movwf	(___fladd@b+2)^(0+128)
  4286     09EE  3000               	movlw	0
  4287     09EF  00A1               	movwf	(___fladd@b+1)^(0+128)
  4288     09F0  3000               	movlw	0
  4289     09F1  00A0               	movwf	___fladd@b^(0+128)
  4290     09F2                     l1797:
  4291     09F2  1683               	bsf	3,5	;RP0=1, select bank1
  4292     09F3  1303               	bcf	3,6	;RP1=0, select bank1
  4293     09F4  17A2               	bsf	(___fladd@b^(0+128)+2),7
  4294     09F5                     l1799:
  4295     09F5  01A3               	clrf	(___fladd@b^(0+128)+3)
  4296     09F6  2A01               	goto	l1803
  4297     09F7                     l1801:
  4298     09F7  3000               	movlw	0
  4299     09F8  1683               	bsf	3,5	;RP0=1, select bank1
  4300     09F9  1303               	bcf	3,6	;RP1=0, select bank1
  4301     09FA  00A3               	movwf	(___fladd@b+3)^(0+128)
  4302     09FB  3000               	movlw	0
  4303     09FC  00A2               	movwf	(___fladd@b+2)^(0+128)
  4304     09FD  3000               	movlw	0
  4305     09FE  00A1               	movwf	(___fladd@b+1)^(0+128)
  4306     09FF  3000               	movlw	0
  4307     0A00  00A0               	movwf	___fladd@b^(0+128)
  4308     0A01                     l1803:
  4309     0A01  0827               	movf	(___fladd@a^(0+128)+3),w
  4310     0A02  3980               	andlw	128
  4311     0A03  1283               	bcf	3,5	;RP0=0, select bank0
  4312     0A04  1303               	bcf	3,6	;RP1=0, select bank0
  4313     0A05  00EA               	movwf	___fladd@aexp
  4314     0A06                     l1805:
  4315     0A06  086A               	movf	___fladd@aexp,w
  4316     0A07  0669               	xorwf	___fladd@signs,w
  4317     0A08  1903               	skipnz
  4318     0A09  2A0B               	goto	u1871
  4319     0A0A  2A0C               	goto	u1870
  4320     0A0B                     u1871:
  4321     0A0B  2A0D               	goto	l1809
  4322     0A0C                     u1870:
  4323     0A0C                     l1807:
  4324     0A0C  1769               	bsf	___fladd@signs,6
  4325     0A0D                     l1809:
  4326     0A0D  1683               	bsf	3,5	;RP0=1, select bank1
  4327     0A0E  1303               	bcf	3,6	;RP1=0, select bank1
  4328     0A0F  0827               	movf	(___fladd@a^(0+128)+3),w
  4329     0A10  00A8               	movwf	??___fladd^(0+128)
  4330     0A11  0728               	addwf	??___fladd^(0+128),w
  4331     0A12  1283               	bcf	3,5	;RP0=0, select bank0
  4332     0A13  1303               	bcf	3,6	;RP1=0, select bank0
  4333     0A14  00EA               	movwf	___fladd@aexp
  4334     0A15                     l1811:
  4335     0A15  1683               	bsf	3,5	;RP0=1, select bank1
  4336     0A16  1303               	bcf	3,6	;RP1=0, select bank1
  4337     0A17  1FA6               	btfss	(___fladd@a^(0+128)+2),7
  4338     0A18  2A1A               	goto	u1881
  4339     0A19  2A1B               	goto	u1880
  4340     0A1A                     u1881:
  4341     0A1A  2A1E               	goto	l1815
  4342     0A1B                     u1880:
  4343     0A1B                     l1813:
  4344     0A1B  1283               	bcf	3,5	;RP0=0, select bank0
  4345     0A1C  1303               	bcf	3,6	;RP1=0, select bank0
  4346     0A1D  146A               	bsf	___fladd@aexp,0
  4347     0A1E                     l1815:
  4348     0A1E  1283               	bcf	3,5	;RP0=0, select bank0
  4349     0A1F  086A               	movf	___fladd@aexp,w
  4350     0A20  1903               	btfsc	3,2
  4351     0A21  2A23               	goto	u1891
  4352     0A22  2A24               	goto	u1890
  4353     0A23                     u1891:
  4354     0A23  2A38               	goto	l1825
  4355     0A24                     u1890:
  4356     0A24                     l1817:
  4357     0A24  0A6A               	incf	___fladd@aexp,w
  4358     0A25  1D03               	btfss	3,2
  4359     0A26  2A28               	goto	u1901
  4360     0A27  2A29               	goto	u1900
  4361     0A28                     u1901:
  4362     0A28  2A33               	goto	l1821
  4363     0A29                     u1900:
  4364     0A29                     l1819:
  4365     0A29  3000               	movlw	0
  4366     0A2A  1683               	bsf	3,5	;RP0=1, select bank1
  4367     0A2B  1303               	bcf	3,6	;RP1=0, select bank1
  4368     0A2C  00A7               	movwf	(___fladd@a+3)^(0+128)
  4369     0A2D  3000               	movlw	0
  4370     0A2E  00A6               	movwf	(___fladd@a+2)^(0+128)
  4371     0A2F  3000               	movlw	0
  4372     0A30  00A5               	movwf	(___fladd@a+1)^(0+128)
  4373     0A31  3000               	movlw	0
  4374     0A32  00A4               	movwf	___fladd@a^(0+128)
  4375     0A33                     l1821:
  4376     0A33  1683               	bsf	3,5	;RP0=1, select bank1
  4377     0A34  1303               	bcf	3,6	;RP1=0, select bank1
  4378     0A35  17A6               	bsf	(___fladd@a^(0+128)+2),7
  4379     0A36                     l1823:
  4380     0A36  01A7               	clrf	(___fladd@a^(0+128)+3)
  4381     0A37  2A42               	goto	l488
  4382     0A38                     l1825:
  4383     0A38  3000               	movlw	0
  4384     0A39  1683               	bsf	3,5	;RP0=1, select bank1
  4385     0A3A  1303               	bcf	3,6	;RP1=0, select bank1
  4386     0A3B  00A7               	movwf	(___fladd@a+3)^(0+128)
  4387     0A3C  3000               	movlw	0
  4388     0A3D  00A6               	movwf	(___fladd@a+2)^(0+128)
  4389     0A3E  3000               	movlw	0
  4390     0A3F  00A5               	movwf	(___fladd@a+1)^(0+128)
  4391     0A40  3000               	movlw	0
  4392     0A41  00A4               	movwf	___fladd@a^(0+128)
  4393     0A42                     l488:
  4394     0A42  1283               	bcf	3,5	;RP0=0, select bank0
  4395     0A43  1303               	bcf	3,6	;RP1=0, select bank0
  4396     0A44  086B               	movf	___fladd@bexp,w
  4397     0A45  026A               	subwf	___fladd@aexp,w
  4398     0A46  1803               	skipnc
  4399     0A47  2A49               	goto	u1911
  4400     0A48  2A4A               	goto	u1910
  4401     0A49                     u1911:
  4402     0A49  2A92               	goto	l1861
  4403     0A4A                     u1910:
  4404     0A4A                     l1827:
  4405     0A4A  1F69               	btfss	___fladd@signs,6
  4406     0A4B  2A4D               	goto	u1921
  4407     0A4C  2A4E               	goto	u1920
  4408     0A4D                     u1921:
  4409     0A4D  2A52               	goto	l1831
  4410     0A4E                     u1920:
  4411     0A4E                     l1829:
  4412     0A4E  3080               	movlw	128
  4413     0A4F  00FF               	movwf	btemp+1
  4414     0A50  087F               	movf	btemp+1,w
  4415     0A51  06E9               	xorwf	___fladd@signs,f
  4416     0A52                     l1831:
  4417     0A52  086B               	movf	___fladd@bexp,w
  4418     0A53  00EC               	movwf	___fladd@grs
  4419     0A54                     l1833:
  4420     0A54  086A               	movf	___fladd@aexp,w
  4421     0A55  00EB               	movwf	___fladd@bexp
  4422     0A56                     l1835:
  4423     0A56  086C               	movf	___fladd@grs,w
  4424     0A57  00EA               	movwf	___fladd@aexp
  4425     0A58                     l1837:
  4426     0A58  1683               	bsf	3,5	;RP0=1, select bank1
  4427     0A59  1303               	bcf	3,6	;RP1=0, select bank1
  4428     0A5A  0820               	movf	___fladd@b^(0+128),w
  4429     0A5B  1283               	bcf	3,5	;RP0=0, select bank0
  4430     0A5C  1303               	bcf	3,6	;RP1=0, select bank0
  4431     0A5D  00EC               	movwf	___fladd@grs
  4432     0A5E                     l1839:
  4433     0A5E  1683               	bsf	3,5	;RP0=1, select bank1
  4434     0A5F  1303               	bcf	3,6	;RP1=0, select bank1
  4435     0A60  0824               	movf	___fladd@a^(0+128),w
  4436     0A61  00A0               	movwf	___fladd@b^(0+128)
  4437     0A62                     l1841:
  4438     0A62  1283               	bcf	3,5	;RP0=0, select bank0
  4439     0A63  1303               	bcf	3,6	;RP1=0, select bank0
  4440     0A64  086C               	movf	___fladd@grs,w
  4441     0A65  1683               	bsf	3,5	;RP0=1, select bank1
  4442     0A66  1303               	bcf	3,6	;RP1=0, select bank1
  4443     0A67  00A4               	movwf	___fladd@a^(0+128)
  4444     0A68                     l1843:
  4445     0A68  0821               	movf	(___fladd@b^(0+128)+1),w
  4446     0A69  1283               	bcf	3,5	;RP0=0, select bank0
  4447     0A6A  1303               	bcf	3,6	;RP1=0, select bank0
  4448     0A6B  00EC               	movwf	___fladd@grs
  4449     0A6C                     l1845:
  4450     0A6C  1683               	bsf	3,5	;RP0=1, select bank1
  4451     0A6D  1303               	bcf	3,6	;RP1=0, select bank1
  4452     0A6E  0825               	movf	(___fladd@a^(0+128)+1),w
  4453     0A6F  00A1               	movwf	(___fladd@b^(0+128)+1)
  4454     0A70                     l1847:
  4455     0A70  1283               	bcf	3,5	;RP0=0, select bank0
  4456     0A71  1303               	bcf	3,6	;RP1=0, select bank0
  4457     0A72  086C               	movf	___fladd@grs,w
  4458     0A73  1683               	bsf	3,5	;RP0=1, select bank1
  4459     0A74  1303               	bcf	3,6	;RP1=0, select bank1
  4460     0A75  00A5               	movwf	(___fladd@a^(0+128)+1)
  4461     0A76                     l1849:
  4462     0A76  0822               	movf	(___fladd@b^(0+128)+2),w
  4463     0A77  1283               	bcf	3,5	;RP0=0, select bank0
  4464     0A78  1303               	bcf	3,6	;RP1=0, select bank0
  4465     0A79  00EC               	movwf	___fladd@grs
  4466     0A7A                     l1851:
  4467     0A7A  1683               	bsf	3,5	;RP0=1, select bank1
  4468     0A7B  1303               	bcf	3,6	;RP1=0, select bank1
  4469     0A7C  0826               	movf	(___fladd@a^(0+128)+2),w
  4470     0A7D  00A2               	movwf	(___fladd@b^(0+128)+2)
  4471     0A7E                     l1853:
  4472     0A7E  1283               	bcf	3,5	;RP0=0, select bank0
  4473     0A7F  1303               	bcf	3,6	;RP1=0, select bank0
  4474     0A80  086C               	movf	___fladd@grs,w
  4475     0A81  1683               	bsf	3,5	;RP0=1, select bank1
  4476     0A82  1303               	bcf	3,6	;RP1=0, select bank1
  4477     0A83  00A6               	movwf	(___fladd@a^(0+128)+2)
  4478     0A84                     l1855:
  4479     0A84  0823               	movf	(___fladd@b^(0+128)+3),w
  4480     0A85  1283               	bcf	3,5	;RP0=0, select bank0
  4481     0A86  1303               	bcf	3,6	;RP1=0, select bank0
  4482     0A87  00EC               	movwf	___fladd@grs
  4483     0A88                     l1857:
  4484     0A88  1683               	bsf	3,5	;RP0=1, select bank1
  4485     0A89  1303               	bcf	3,6	;RP1=0, select bank1
  4486     0A8A  0827               	movf	(___fladd@a^(0+128)+3),w
  4487     0A8B  00A3               	movwf	(___fladd@b^(0+128)+3)
  4488     0A8C                     l1859:
  4489     0A8C  1283               	bcf	3,5	;RP0=0, select bank0
  4490     0A8D  1303               	bcf	3,6	;RP1=0, select bank0
  4491     0A8E  086C               	movf	___fladd@grs,w
  4492     0A8F  1683               	bsf	3,5	;RP0=1, select bank1
  4493     0A90  1303               	bcf	3,6	;RP1=0, select bank1
  4494     0A91  00A7               	movwf	(___fladd@a^(0+128)+3)
  4495     0A92                     l1861:
  4496     0A92  1283               	bcf	3,5	;RP0=0, select bank0
  4497     0A93  01EC               	clrf	___fladd@grs
  4498     0A94                     l1863:
  4499     0A94  086A               	movf	___fladd@aexp,w
  4500     0A95  1683               	bsf	3,5	;RP0=1, select bank1
  4501     0A96  1303               	bcf	3,6	;RP1=0, select bank1
  4502     0A97  00A8               	movwf	??___fladd^(0+128)
  4503     0A98  01A9               	clrf	(??___fladd^(0+128)+1)
  4504     0A99  0829               	movf	(??___fladd+1)^(0+128),w
  4505     0A9A  00AB               	movwf	((??___fladd+2)^(0+128)+1)
  4506     0A9B  1283               	bcf	3,5	;RP0=0, select bank0
  4507     0A9C  1303               	bcf	3,6	;RP1=0, select bank0
  4508     0A9D  086B               	movf	___fladd@bexp,w
  4509     0A9E  1683               	bsf	3,5	;RP0=1, select bank1
  4510     0A9F  1303               	bcf	3,6	;RP1=0, select bank1
  4511     0AA0  0228               	subwf	??___fladd^(0+128),w
  4512     0AA1  00AA               	movwf	(??___fladd+2)^(0+128)
  4513     0AA2  1C03               	skipc
  4514     0AA3  03AB               	decf	((??___fladd+2)^(0+128)+1),f
  4515     0AA4  082B               	movf	(??___fladd+3)^(0+128),w
  4516     0AA5  3A80               	xorlw	128
  4517     0AA6  00FF               	movwf	btemp+1
  4518     0AA7  3080               	movlw	128
  4519     0AA8  027F               	subwf	btemp+1,w
  4520     0AA9  1D03               	skipz
  4521     0AAA  2AAD               	goto	u1935
  4522     0AAB  301A               	movlw	26
  4523     0AAC  022A               	subwf	(??___fladd+2)^(0+128),w
  4524     0AAD                     u1935:
  4525     0AAD  1C03               	skipc
  4526     0AAE  2AB0               	goto	u1931
  4527     0AAF  2AB1               	goto	u1930
  4528     0AB0                     u1931:
  4529     0AB0  2AFA               	goto	l1879
  4530     0AB1                     u1930:
  4531     0AB1                     l1865:
  4532     0AB1  1683               	bsf	3,5	;RP0=1, select bank1
  4533     0AB2  1303               	bcf	3,6	;RP1=0, select bank1
  4534     0AB3  0823               	movf	(___fladd@b+3)^(0+128),w
  4535     0AB4  0422               	iorwf	(___fladd@b+2)^(0+128),w
  4536     0AB5  0421               	iorwf	(___fladd@b+1)^(0+128),w
  4537     0AB6  0420               	iorwf	___fladd@b^(0+128),w
  4538     0AB7  1D03               	skipz
  4539     0AB8  2ABA               	goto	u1941
  4540     0AB9  2ABC               	goto	u1940
  4541     0ABA                     u1941:
  4542     0ABA  3001               	movlw	1
  4543     0ABB  2ABD               	goto	u1950
  4544     0ABC                     u1940:
  4545     0ABC  3000               	movlw	0
  4546     0ABD                     u1950:
  4547     0ABD  1283               	bcf	3,5	;RP0=0, select bank0
  4548     0ABE  1303               	bcf	3,6	;RP1=0, select bank0
  4549     0ABF  00EC               	movwf	___fladd@grs
  4550     0AC0  3000               	movlw	0
  4551     0AC1  1683               	bsf	3,5	;RP0=1, select bank1
  4552     0AC2  1303               	bcf	3,6	;RP1=0, select bank1
  4553     0AC3  00A3               	movwf	(___fladd@b+3)^(0+128)
  4554     0AC4  3000               	movlw	0
  4555     0AC5  00A2               	movwf	(___fladd@b+2)^(0+128)
  4556     0AC6  3000               	movlw	0
  4557     0AC7  00A1               	movwf	(___fladd@b+1)^(0+128)
  4558     0AC8  3000               	movlw	0
  4559     0AC9  00A0               	movwf	___fladd@b^(0+128)
  4560     0ACA  1283               	bcf	3,5	;RP0=0, select bank0
  4561     0ACB  1303               	bcf	3,6	;RP1=0, select bank0
  4562     0ACC  086A               	movf	___fladd@aexp,w
  4563     0ACD  00EB               	movwf	___fladd@bexp
  4564     0ACE  2B02               	goto	l492
  4565     0ACF                     l494:
  4566     0ACF  1C6C               	btfss	___fladd@grs,0
  4567     0AD0  2AD2               	goto	u1961
  4568     0AD1  2AD3               	goto	u1960
  4569     0AD2                     u1961:
  4570     0AD2  2ADE               	goto	l1869
  4571     0AD3                     u1960:
  4572     0AD3                     l1867:
  4573     0AD3  086C               	movf	___fladd@grs,w
  4574     0AD4  1683               	bsf	3,5	;RP0=1, select bank1
  4575     0AD5  1303               	bcf	3,6	;RP1=0, select bank1
  4576     0AD6  00A8               	movwf	??___fladd^(0+128)
  4577     0AD7  1003               	clrc
  4578     0AD8  0C28               	rrf	??___fladd^(0+128),w
  4579     0AD9  3801               	iorlw	1
  4580     0ADA  1283               	bcf	3,5	;RP0=0, select bank0
  4581     0ADB  1303               	bcf	3,6	;RP1=0, select bank0
  4582     0ADC  00EC               	movwf	___fladd@grs
  4583     0ADD  2AE0               	goto	l1871
  4584     0ADE                     l1869:
  4585     0ADE  1003               	clrc
  4586     0ADF  0CEC               	rrf	___fladd@grs,f
  4587     0AE0                     l1871:
  4588     0AE0  1683               	bsf	3,5	;RP0=1, select bank1
  4589     0AE1  1303               	bcf	3,6	;RP1=0, select bank1
  4590     0AE2  1C20               	btfss	___fladd@b^(0+128),0
  4591     0AE3  2AE5               	goto	u1971
  4592     0AE4  2AE6               	goto	u1970
  4593     0AE5                     u1971:
  4594     0AE5  2AE9               	goto	l1875
  4595     0AE6                     u1970:
  4596     0AE6                     l1873:
  4597     0AE6  1283               	bcf	3,5	;RP0=0, select bank0
  4598     0AE7  1303               	bcf	3,6	;RP1=0, select bank0
  4599     0AE8  17EC               	bsf	___fladd@grs,7
  4600     0AE9                     l1875:
  4601     0AE9  3001               	movlw	1
  4602     0AEA  1683               	bsf	3,5	;RP0=1, select bank1
  4603     0AEB  1303               	bcf	3,6	;RP1=0, select bank1
  4604     0AEC  00A8               	movwf	??___fladd^(0+128)
  4605     0AED                     u1985:
  4606     0AED  0D23               	rlf	(___fladd@b+3)^(0+128),w
  4607     0AEE  0CA3               	rrf	(___fladd@b+3)^(0+128),f
  4608     0AEF  0CA2               	rrf	(___fladd@b+2)^(0+128),f
  4609     0AF0  0CA1               	rrf	(___fladd@b+1)^(0+128),f
  4610     0AF1  0CA0               	rrf	___fladd@b^(0+128),f
  4611     0AF2  0BA8               	decfsz	(??___fladd^(0+128))& (0+127),f
  4612     0AF3  2AED               	goto	u1985
  4613     0AF4                     l1877:
  4614     0AF4  3001               	movlw	1
  4615     0AF5  00FF               	movwf	btemp+1
  4616     0AF6  087F               	movf	btemp+1,w
  4617     0AF7  1283               	bcf	3,5	;RP0=0, select bank0
  4618     0AF8  1303               	bcf	3,6	;RP1=0, select bank0
  4619     0AF9  07EB               	addwf	___fladd@bexp,f
  4620     0AFA                     l1879:
  4621     0AFA  1283               	bcf	3,5	;RP0=0, select bank0
  4622     0AFB  1303               	bcf	3,6	;RP1=0, select bank0
  4623     0AFC  086A               	movf	___fladd@aexp,w
  4624     0AFD  026B               	subwf	___fladd@bexp,w
  4625     0AFE  1C03               	skipc
  4626     0AFF  2B01               	goto	u1991
  4627     0B00  2B02               	goto	u1990
  4628     0B01                     u1991:
  4629     0B01  2ACF               	goto	l494
  4630     0B02                     u1990:
  4631     0B02                     l492:
  4632     0B02  1B69               	btfsc	___fladd@signs,6
  4633     0B03  2B05               	goto	u2001
  4634     0B04  2B06               	goto	u2000
  4635     0B05                     u2001:
  4636     0B05  2B61               	goto	l1905
  4637     0B06                     u2000:
  4638     0B06                     l1881:
  4639     0B06  086B               	movf	___fladd@bexp,w
  4640     0B07  1D03               	btfss	3,2
  4641     0B08  2B0A               	goto	u2011
  4642     0B09  2B0B               	goto	u2010
  4643     0B0A                     u2011:
  4644     0B0A  2B16               	goto	l1887
  4645     0B0B                     u2010:
  4646     0B0B                     l1883:
  4647     0B0B  3000               	movlw	0
  4648     0B0C  1683               	bsf	3,5	;RP0=1, select bank1
  4649     0B0D  1303               	bcf	3,6	;RP1=0, select bank1
  4650     0B0E  00A3               	movwf	(?___fladd+3)^(0+128)
  4651     0B0F  3000               	movlw	0
  4652     0B10  00A2               	movwf	(?___fladd+2)^(0+128)
  4653     0B11  3000               	movlw	0
  4654     0B12  00A1               	movwf	(?___fladd+1)^(0+128)
  4655     0B13  3000               	movlw	0
  4656     0B14  00A0               	movwf	?___fladd^(0+128)
  4657     0B15  2CBA               	goto	l501
  4658     0B16                     l1887:
  4659     0B16  1683               	bsf	3,5	;RP0=1, select bank1
  4660     0B17  1303               	bcf	3,6	;RP1=0, select bank1
  4661     0B18  0824               	movf	___fladd@a^(0+128),w
  4662     0B19  07A0               	addwf	___fladd@b^(0+128),f
  4663     0B1A  0825               	movf	(___fladd@a+1)^(0+128),w
  4664     0B1B  1103               	clrz
  4665     0B1C  1803               	skipnc
  4666     0B1D  3E01               	addlw	1
  4667     0B1E  1903               	skipnz
  4668     0B1F  2B21               	goto	u2021
  4669     0B20  07A1               	addwf	(___fladd@b+1)^(0+128),f
  4670     0B21                     u2021:
  4671     0B21  0826               	movf	(___fladd@a+2)^(0+128),w
  4672     0B22  1103               	clrz
  4673     0B23  1803               	skipnc
  4674     0B24  3E01               	addlw	1
  4675     0B25  1903               	skipnz
  4676     0B26  2B28               	goto	u2022
  4677     0B27  07A2               	addwf	(___fladd@b+2)^(0+128),f
  4678     0B28                     u2022:
  4679     0B28  0827               	movf	(___fladd@a+3)^(0+128),w
  4680     0B29  1103               	clrz
  4681     0B2A  1803               	skipnc
  4682     0B2B  3E01               	addlw	1
  4683     0B2C  1903               	skipnz
  4684     0B2D  2B2F               	goto	u2023
  4685     0B2E  07A3               	addwf	(___fladd@b+3)^(0+128),f
  4686     0B2F                     u2023:
  4687     0B2F                     l1889:
  4688     0B2F  1C23               	btfss	(___fladd@b+3)^(0+128),0
  4689     0B30  2B32               	goto	u2031
  4690     0B31  2B33               	goto	u2030
  4691     0B32                     u2031:
  4692     0B32  2C28               	goto	l1941
  4693     0B33                     u2030:
  4694     0B33                     l1891:
  4695     0B33  1283               	bcf	3,5	;RP0=0, select bank0
  4696     0B34  1303               	bcf	3,6	;RP1=0, select bank0
  4697     0B35  1C6C               	btfss	___fladd@grs,0
  4698     0B36  2B38               	goto	u2041
  4699     0B37  2B39               	goto	u2040
  4700     0B38                     u2041:
  4701     0B38  2B44               	goto	l1895
  4702     0B39                     u2040:
  4703     0B39                     l1893:
  4704     0B39  086C               	movf	___fladd@grs,w
  4705     0B3A  1683               	bsf	3,5	;RP0=1, select bank1
  4706     0B3B  1303               	bcf	3,6	;RP1=0, select bank1
  4707     0B3C  00A8               	movwf	??___fladd^(0+128)
  4708     0B3D  1003               	clrc
  4709     0B3E  0C28               	rrf	??___fladd^(0+128),w
  4710     0B3F  3801               	iorlw	1
  4711     0B40  1283               	bcf	3,5	;RP0=0, select bank0
  4712     0B41  1303               	bcf	3,6	;RP1=0, select bank0
  4713     0B42  00EC               	movwf	___fladd@grs
  4714     0B43  2B46               	goto	l1897
  4715     0B44                     l1895:
  4716     0B44  1003               	clrc
  4717     0B45  0CEC               	rrf	___fladd@grs,f
  4718     0B46                     l1897:
  4719     0B46  1683               	bsf	3,5	;RP0=1, select bank1
  4720     0B47  1303               	bcf	3,6	;RP1=0, select bank1
  4721     0B48  1C20               	btfss	___fladd@b^(0+128),0
  4722     0B49  2B4B               	goto	u2051
  4723     0B4A  2B4C               	goto	u2050
  4724     0B4B                     u2051:
  4725     0B4B  2B4F               	goto	l1901
  4726     0B4C                     u2050:
  4727     0B4C                     l1899:
  4728     0B4C  1283               	bcf	3,5	;RP0=0, select bank0
  4729     0B4D  1303               	bcf	3,6	;RP1=0, select bank0
  4730     0B4E  17EC               	bsf	___fladd@grs,7
  4731     0B4F                     l1901:
  4732     0B4F  3001               	movlw	1
  4733     0B50  1683               	bsf	3,5	;RP0=1, select bank1
  4734     0B51  1303               	bcf	3,6	;RP1=0, select bank1
  4735     0B52  00A8               	movwf	??___fladd^(0+128)
  4736     0B53                     u2065:
  4737     0B53  0D23               	rlf	(___fladd@b+3)^(0+128),w
  4738     0B54  0CA3               	rrf	(___fladd@b+3)^(0+128),f
  4739     0B55  0CA2               	rrf	(___fladd@b+2)^(0+128),f
  4740     0B56  0CA1               	rrf	(___fladd@b+1)^(0+128),f
  4741     0B57  0CA0               	rrf	___fladd@b^(0+128),f
  4742     0B58  0BA8               	decfsz	(??___fladd^(0+128))& (0+127),f
  4743     0B59  2B53               	goto	u2065
  4744     0B5A                     l1903:
  4745     0B5A  3001               	movlw	1
  4746     0B5B  00FF               	movwf	btemp+1
  4747     0B5C  087F               	movf	btemp+1,w
  4748     0B5D  1283               	bcf	3,5	;RP0=0, select bank0
  4749     0B5E  1303               	bcf	3,6	;RP1=0, select bank0
  4750     0B5F  07EB               	addwf	___fladd@bexp,f
  4751     0B60  2C28               	goto	l1941
  4752     0B61                     l1905:
  4753     0B61  1683               	bsf	3,5	;RP0=1, select bank1
  4754     0B62  1303               	bcf	3,6	;RP1=0, select bank1
  4755     0B63  0823               	movf	(___fladd@b+3)^(0+128),w
  4756     0B64  3A80               	xorlw	128
  4757     0B65  00FF               	movwf	btemp+1
  4758     0B66  0827               	movf	(___fladd@a+3)^(0+128),w
  4759     0B67  3A80               	xorlw	128
  4760     0B68  027F               	subwf	btemp+1,w
  4761     0B69  1D03               	skipz
  4762     0B6A  2B75               	goto	u2073
  4763     0B6B  0826               	movf	(___fladd@a+2)^(0+128),w
  4764     0B6C  0222               	subwf	(___fladd@b+2)^(0+128),w
  4765     0B6D  1D03               	skipz
  4766     0B6E  2B75               	goto	u2073
  4767     0B6F  0825               	movf	(___fladd@a+1)^(0+128),w
  4768     0B70  0221               	subwf	(___fladd@b+1)^(0+128),w
  4769     0B71  1D03               	skipz
  4770     0B72  2B75               	goto	u2073
  4771     0B73  0824               	movf	___fladd@a^(0+128),w
  4772     0B74  0220               	subwf	___fladd@b^(0+128),w
  4773     0B75                     u2073:
  4774     0B75  1803               	skipnc
  4775     0B76  2B78               	goto	u2071
  4776     0B77  2B79               	goto	u2070
  4777     0B78                     u2071:
  4778     0B78  2BD5               	goto	l1917
  4779     0B79                     u2070:
  4780     0B79                     l1907:
  4781     0B79  30FF               	movlw	255
  4782     0B7A  00A8               	movwf	??___fladd^(0+128)
  4783     0B7B  30FF               	movlw	255
  4784     0B7C  00A9               	movwf	(??___fladd^(0+128)+1)
  4785     0B7D  30FF               	movlw	255
  4786     0B7E  00AA               	movwf	(??___fladd^(0+128)+2)
  4787     0B7F  30FF               	movlw	255
  4788     0B80  00AB               	movwf	(??___fladd^(0+128)+3)
  4789     0B81  0824               	movf	___fladd@a^(0+128),w
  4790     0B82  00AC               	movwf	(??___fladd+4)^(0+128)
  4791     0B83  0825               	movf	(___fladd@a+1)^(0+128),w
  4792     0B84  00AD               	movwf	((??___fladd+4)^(0+128)+1)
  4793     0B85  0826               	movf	(___fladd@a+2)^(0+128),w
  4794     0B86  00AE               	movwf	((??___fladd+4)^(0+128)+2)
  4795     0B87  0827               	movf	(___fladd@a+3)^(0+128),w
  4796     0B88  00AF               	movwf	((??___fladd+4)^(0+128)+3)
  4797     0B89  0820               	movf	___fladd@b^(0+128),w
  4798     0B8A  02AC               	subwf	(??___fladd+4)^(0+128),f
  4799     0B8B  0821               	movf	(___fladd@b+1)^(0+128),w
  4800     0B8C  1C03               	skipc
  4801     0B8D  0F21               	incfsz	(___fladd@b+1)^(0+128),w
  4802     0B8E  2B90               	goto	u2081
  4803     0B8F  2B91               	goto	u2082
  4804     0B90                     u2081:
  4805     0B90  02AD               	subwf	((??___fladd+4)^(0+128)+1),f
  4806     0B91                     u2082:
  4807     0B91  0822               	movf	(___fladd@b+2)^(0+128),w
  4808     0B92  1C03               	skipc
  4809     0B93  0F22               	incfsz	(___fladd@b+2)^(0+128),w
  4810     0B94  2B96               	goto	u2083
  4811     0B95  2B97               	goto	u2084
  4812     0B96                     u2083:
  4813     0B96  02AE               	subwf	((??___fladd+4)^(0+128)+2),f
  4814     0B97                     u2084:
  4815     0B97  0823               	movf	(___fladd@b+3)^(0+128),w
  4816     0B98  1C03               	skipc
  4817     0B99  0F23               	incfsz	(___fladd@b+3)^(0+128),w
  4818     0B9A  2B9C               	goto	u2085
  4819     0B9B  2B9D               	goto	u2086
  4820     0B9C                     u2085:
  4821     0B9C  02AF               	subwf	((??___fladd+4)^(0+128)+3),f
  4822     0B9D                     u2086:
  4823     0B9D  082C               	movf	(??___fladd+4)^(0+128),w
  4824     0B9E  07A8               	addwf	??___fladd^(0+128),f
  4825     0B9F  082D               	movf	(??___fladd+5)^(0+128),w
  4826     0BA0  1803               	skipnc
  4827     0BA1  0F2D               	incfsz	(??___fladd+5)^(0+128),w
  4828     0BA2  2BA4               	goto	u2090
  4829     0BA3  2BA5               	goto	u2091
  4830     0BA4                     u2090:
  4831     0BA4  07A9               	addwf	(??___fladd^(0+128)+1),f
  4832     0BA5                     u2091:
  4833     0BA5  082E               	movf	(??___fladd+6)^(0+128),w
  4834     0BA6  1803               	skipnc
  4835     0BA7  0F2E               	incfsz	(??___fladd+6)^(0+128),w
  4836     0BA8  2BAA               	goto	u2092
  4837     0BA9  2BAB               	goto	u2093
  4838     0BAA                     u2092:
  4839     0BAA  07AA               	addwf	(??___fladd^(0+128)+2),f
  4840     0BAB                     u2093:
  4841     0BAB  082F               	movf	(??___fladd+7)^(0+128),w
  4842     0BAC  1803               	skipnc
  4843     0BAD  0A2F               	incf	(??___fladd+7)^(0+128),w
  4844     0BAE  07AB               	addwf	(??___fladd^(0+128)+3),f
  4845     0BAF  082B               	movf	(??___fladd+3)^(0+128),w
  4846     0BB0  00A3               	movwf	(___fladd@b+3)^(0+128)
  4847     0BB1  082A               	movf	(??___fladd+2)^(0+128),w
  4848     0BB2  00A2               	movwf	(___fladd@b+2)^(0+128)
  4849     0BB3  0829               	movf	(??___fladd+1)^(0+128),w
  4850     0BB4  00A1               	movwf	(___fladd@b+1)^(0+128)
  4851     0BB5  0828               	movf	??___fladd^(0+128),w
  4852     0BB6  00A0               	movwf	___fladd@b^(0+128)
  4853     0BB7                     l1909:
  4854     0BB7  3080               	movlw	128
  4855     0BB8  00FF               	movwf	btemp+1
  4856     0BB9  087F               	movf	btemp+1,w
  4857     0BBA  1283               	bcf	3,5	;RP0=0, select bank0
  4858     0BBB  1303               	bcf	3,6	;RP1=0, select bank0
  4859     0BBC  06E9               	xorwf	___fladd@signs,f
  4860     0BBD                     l1911:
  4861     0BBD  09EC               	comf	___fladd@grs,f
  4862     0BBE  0AEC               	incf	___fladd@grs,f
  4863     0BBF                     l1913:
  4864     0BBF  086C               	movf	___fladd@grs,w
  4865     0BC0  1D03               	btfss	3,2
  4866     0BC1  2BC3               	goto	u2101
  4867     0BC2  2BC4               	goto	u2100
  4868     0BC3                     u2101:
  4869     0BC3  2BE3               	goto	l509
  4870     0BC4                     u2100:
  4871     0BC4                     l1915:
  4872     0BC4  3001               	movlw	1
  4873     0BC5  1683               	bsf	3,5	;RP0=1, select bank1
  4874     0BC6  1303               	bcf	3,6	;RP1=0, select bank1
  4875     0BC7  07A0               	addwf	___fladd@b^(0+128),f
  4876     0BC8  3000               	movlw	0
  4877     0BC9  1803               	skipnc
  4878     0BCA  3001               	movlw	1
  4879     0BCB  07A1               	addwf	(___fladd@b+1)^(0+128),f
  4880     0BCC  3000               	movlw	0
  4881     0BCD  1803               	skipnc
  4882     0BCE  3001               	movlw	1
  4883     0BCF  07A2               	addwf	(___fladd@b+2)^(0+128),f
  4884     0BD0  3000               	movlw	0
  4885     0BD1  1803               	skipnc
  4886     0BD2  3001               	movlw	1
  4887     0BD3  07A3               	addwf	(___fladd@b+3)^(0+128),f
  4888     0BD4  2BE3               	goto	l509
  4889     0BD5                     l1917:
  4890     0BD5  0824               	movf	___fladd@a^(0+128),w
  4891     0BD6  02A0               	subwf	___fladd@b^(0+128),f
  4892     0BD7  0825               	movf	(___fladd@a+1)^(0+128),w
  4893     0BD8  1C03               	skipc
  4894     0BD9  0F25               	incfsz	(___fladd@a+1)^(0+128),w
  4895     0BDA  02A1               	subwf	(___fladd@b+1)^(0+128),f
  4896     0BDB  0826               	movf	(___fladd@a+2)^(0+128),w
  4897     0BDC  1C03               	skipc
  4898     0BDD  0F26               	incfsz	(___fladd@a+2)^(0+128),w
  4899     0BDE  02A2               	subwf	(___fladd@b+2)^(0+128),f
  4900     0BDF  0827               	movf	(___fladd@a+3)^(0+128),w
  4901     0BE0  1C03               	skipc
  4902     0BE1  0F27               	incfsz	(___fladd@a+3)^(0+128),w
  4903     0BE2  02A3               	subwf	(___fladd@b+3)^(0+128),f
  4904     0BE3                     l509:
  4905     0BE3  1683               	bsf	3,5	;RP0=1, select bank1
  4906     0BE4  1303               	bcf	3,6	;RP1=0, select bank1
  4907     0BE5  0823               	movf	(___fladd@b+3)^(0+128),w
  4908     0BE6  0422               	iorwf	(___fladd@b+2)^(0+128),w
  4909     0BE7  0421               	iorwf	(___fladd@b+1)^(0+128),w
  4910     0BE8  0420               	iorwf	___fladd@b^(0+128),w
  4911     0BE9  1D03               	skipz
  4912     0BEA  2BEC               	goto	u2111
  4913     0BEB  2BED               	goto	u2110
  4914     0BEC                     u2111:
  4915     0BEC  2C22               	goto	l1939
  4916     0BED                     u2110:
  4917     0BED                     l1919:
  4918     0BED  1283               	bcf	3,5	;RP0=0, select bank0
  4919     0BEE  1303               	bcf	3,6	;RP1=0, select bank0
  4920     0BEF  086C               	movf	___fladd@grs,w
  4921     0BF0  1D03               	btfss	3,2
  4922     0BF1  2BF3               	goto	u2121
  4923     0BF2  2BF4               	goto	u2120
  4924     0BF3                     u2121:
  4925     0BF3  2C22               	goto	l1939
  4926     0BF4                     u2120:
  4927     0BF4                     l1921:
  4928     0BF4  3000               	movlw	0
  4929     0BF5  1683               	bsf	3,5	;RP0=1, select bank1
  4930     0BF6  1303               	bcf	3,6	;RP1=0, select bank1
  4931     0BF7  00A3               	movwf	(?___fladd+3)^(0+128)
  4932     0BF8  3000               	movlw	0
  4933     0BF9  00A2               	movwf	(?___fladd+2)^(0+128)
  4934     0BFA  3000               	movlw	0
  4935     0BFB  00A1               	movwf	(?___fladd+1)^(0+128)
  4936     0BFC  3000               	movlw	0
  4937     0BFD  00A0               	movwf	?___fladd^(0+128)
  4938     0BFE  2CBA               	goto	l501
  4939     0BFF                     l1925:
  4940     0BFF  3001               	movlw	1
  4941     0C00  00A8               	movwf	??___fladd^(0+128)
  4942     0C01                     u2135:
  4943     0C01  1003               	clrc
  4944     0C02  0DA0               	rlf	___fladd@b^(0+128),f
  4945     0C03  0DA1               	rlf	(___fladd@b+1)^(0+128),f
  4946     0C04  0DA2               	rlf	(___fladd@b+2)^(0+128),f
  4947     0C05  0DA3               	rlf	(___fladd@b+3)^(0+128),f
  4948     0C06  0BA8               	decfsz	??___fladd^(0+128),f
  4949     0C07  2C01               	goto	u2135
  4950     0C08                     l1927:
  4951     0C08  1283               	bcf	3,5	;RP0=0, select bank0
  4952     0C09  1303               	bcf	3,6	;RP1=0, select bank0
  4953     0C0A  1FEC               	btfss	___fladd@grs,7
  4954     0C0B  2C0D               	goto	u2141
  4955     0C0C  2C0E               	goto	u2140
  4956     0C0D                     u2141:
  4957     0C0D  2C11               	goto	l513
  4958     0C0E                     u2140:
  4959     0C0E                     l1929:
  4960     0C0E  1683               	bsf	3,5	;RP0=1, select bank1
  4961     0C0F  1303               	bcf	3,6	;RP1=0, select bank1
  4962     0C10  1420               	bsf	___fladd@b^(0+128),0
  4963     0C11                     l513:
  4964     0C11  1283               	bcf	3,5	;RP0=0, select bank0
  4965     0C12  1C6C               	btfss	___fladd@grs,0
  4966     0C13  2C15               	goto	u2151
  4967     0C14  2C16               	goto	u2150
  4968     0C15                     u2151:
  4969     0C15  2C19               	goto	l1933
  4970     0C16                     u2150:
  4971     0C16                     l1931:
  4972     0C16  1403               	setc
  4973     0C17  0DEC               	rlf	___fladd@grs,f
  4974     0C18  2C1B               	goto	l1935
  4975     0C19                     l1933:
  4976     0C19  1003               	clrc
  4977     0C1A  0DEC               	rlf	___fladd@grs,f
  4978     0C1B                     l1935:
  4979     0C1B  086B               	movf	___fladd@bexp,w
  4980     0C1C  1903               	btfsc	3,2
  4981     0C1D  2C1F               	goto	u2161
  4982     0C1E  2C20               	goto	u2160
  4983     0C1F                     u2161:
  4984     0C1F  2C22               	goto	l1939
  4985     0C20                     u2160:
  4986     0C20                     l1937:
  4987     0C20  3001               	movlw	1
  4988     0C21  02EB               	subwf	___fladd@bexp,f
  4989     0C22                     l1939:
  4990     0C22  1683               	bsf	3,5	;RP0=1, select bank1
  4991     0C23  1303               	bcf	3,6	;RP1=0, select bank1
  4992     0C24  1FA2               	btfss	(___fladd@b+2)^(0+128),7
  4993     0C25  2C27               	goto	u2171
  4994     0C26  2C28               	goto	u2170
  4995     0C27                     u2171:
  4996     0C27  2BFF               	goto	l1925
  4997     0C28                     u2170:
  4998     0C28                     l1941:
  4999     0C28  1283               	bcf	3,5	;RP0=0, select bank0
  5000     0C29  01EA               	clrf	___fladd@aexp
  5001     0C2A                     l1943:
  5002     0C2A  1FEC               	btfss	___fladd@grs,7
  5003     0C2B  2C2D               	goto	u2181
  5004     0C2C  2C2E               	goto	u2180
  5005     0C2D                     u2181:
  5006     0C2D  2C3F               	goto	l1951
  5007     0C2E                     u2180:
  5008     0C2E                     l1945:
  5009     0C2E  086C               	movf	___fladd@grs,w
  5010     0C2F  397F               	andlw	127
  5011     0C30  1903               	btfsc	3,2
  5012     0C31  2C33               	goto	u2191
  5013     0C32  2C34               	goto	u2190
  5014     0C33                     u2191:
  5015     0C33  2C38               	goto	l519
  5016     0C34                     u2190:
  5017     0C34                     l1947:
  5018     0C34  1283               	bcf	3,5	;RP0=0, select bank0
  5019     0C35  01EA               	clrf	___fladd@aexp
  5020     0C36  0AEA               	incf	___fladd@aexp,f
  5021     0C37  2C3F               	goto	l1951
  5022     0C38                     l519:
  5023     0C38  1683               	bsf	3,5	;RP0=1, select bank1
  5024     0C39  1303               	bcf	3,6	;RP1=0, select bank1
  5025     0C3A  1C20               	btfss	___fladd@b^(0+128),0
  5026     0C3B  2C3D               	goto	u2201
  5027     0C3C  2C3E               	goto	u2200
  5028     0C3D                     u2201:
  5029     0C3D  2C3F               	goto	l1951
  5030     0C3E                     u2200:
  5031     0C3E  2C34               	goto	l1947
  5032     0C3F                     l1951:
  5033     0C3F  1283               	bcf	3,5	;RP0=0, select bank0
  5034     0C40  086A               	movf	___fladd@aexp,w
  5035     0C41  1903               	btfsc	3,2
  5036     0C42  2C44               	goto	u2211
  5037     0C43  2C45               	goto	u2210
  5038     0C44                     u2211:
  5039     0C44  2C7D               	goto	l1961
  5040     0C45                     u2210:
  5041     0C45                     l1953:
  5042     0C45  3001               	movlw	1
  5043     0C46  1683               	bsf	3,5	;RP0=1, select bank1
  5044     0C47  1303               	bcf	3,6	;RP1=0, select bank1
  5045     0C48  07A0               	addwf	___fladd@b^(0+128),f
  5046     0C49  3000               	movlw	0
  5047     0C4A  1803               	skipnc
  5048     0C4B  3001               	movlw	1
  5049     0C4C  07A1               	addwf	(___fladd@b+1)^(0+128),f
  5050     0C4D  3000               	movlw	0
  5051     0C4E  1803               	skipnc
  5052     0C4F  3001               	movlw	1
  5053     0C50  07A2               	addwf	(___fladd@b+2)^(0+128),f
  5054     0C51  3000               	movlw	0
  5055     0C52  1803               	skipnc
  5056     0C53  3001               	movlw	1
  5057     0C54  07A3               	addwf	(___fladd@b+3)^(0+128),f
  5058     0C55                     l1955:
  5059     0C55  1C23               	btfss	(___fladd@b+3)^(0+128),0
  5060     0C56  2C58               	goto	u2221
  5061     0C57  2C59               	goto	u2220
  5062     0C58                     u2221:
  5063     0C58  2C7D               	goto	l1961
  5064     0C59                     u2220:
  5065     0C59                     l1957:
  5066     0C59  0820               	movf	___fladd@b^(0+128),w
  5067     0C5A  00A8               	movwf	??___fladd^(0+128)
  5068     0C5B  0821               	movf	(___fladd@b+1)^(0+128),w
  5069     0C5C  00A9               	movwf	(??___fladd^(0+128)+1)
  5070     0C5D  0822               	movf	(___fladd@b+2)^(0+128),w
  5071     0C5E  00AA               	movwf	(??___fladd^(0+128)+2)
  5072     0C5F  0823               	movf	(___fladd@b+3)^(0+128),w
  5073     0C60  00AB               	movwf	(??___fladd^(0+128)+3)
  5074     0C61  3001               	movlw	1
  5075     0C62  00AC               	movwf	(??___fladd+4)^(0+128)
  5076     0C63                     u2235:
  5077     0C63  0D2B               	rlf	(??___fladd^(0+128)+3),w
  5078     0C64  0CAB               	rrf	(??___fladd^(0+128)+3),f
  5079     0C65  0CAA               	rrf	(??___fladd^(0+128)+2),f
  5080     0C66  0CA9               	rrf	(??___fladd^(0+128)+1),f
  5081     0C67  0CA8               	rrf	??___fladd^(0+128),f
  5082     0C68                     u2230:
  5083     0C68  0BAC               	decfsz	(??___fladd+4)^(0+128),f
  5084     0C69  2C63               	goto	u2235
  5085     0C6A  082B               	movf	(??___fladd+3)^(0+128),w
  5086     0C6B  00A3               	movwf	(___fladd@b+3)^(0+128)
  5087     0C6C  082A               	movf	(??___fladd+2)^(0+128),w
  5088     0C6D  00A2               	movwf	(___fladd@b+2)^(0+128)
  5089     0C6E  0829               	movf	(??___fladd+1)^(0+128),w
  5090     0C6F  00A1               	movwf	(___fladd@b+1)^(0+128)
  5091     0C70  0828               	movf	??___fladd^(0+128),w
  5092     0C71  00A0               	movwf	___fladd@b^(0+128)
  5093     0C72  1283               	bcf	3,5	;RP0=0, select bank0
  5094     0C73  1303               	bcf	3,6	;RP1=0, select bank0
  5095     0C74  0A6B               	incf	___fladd@bexp,w
  5096     0C75  1903               	btfsc	3,2
  5097     0C76  2C78               	goto	u2241
  5098     0C77  2C79               	goto	u2240
  5099     0C78                     u2241:
  5100     0C78  2C7D               	goto	l1961
  5101     0C79                     u2240:
  5102     0C79                     l1959:
  5103     0C79  3001               	movlw	1
  5104     0C7A  00FF               	movwf	btemp+1
  5105     0C7B  087F               	movf	btemp+1,w
  5106     0C7C  07EB               	addwf	___fladd@bexp,f
  5107     0C7D                     l1961:
  5108     0C7D  1283               	bcf	3,5	;RP0=0, select bank0
  5109     0C7E  0A6B               	incf	___fladd@bexp,w
  5110     0C7F  1903               	btfsc	3,2
  5111     0C80  2C82               	goto	u2251
  5112     0C81  2C83               	goto	u2250
  5113     0C82                     u2251:
  5114     0C82  2C88               	goto	l1965
  5115     0C83                     u2250:
  5116     0C83                     l1963:
  5117     0C83  086B               	movf	___fladd@bexp,w
  5118     0C84  1D03               	btfss	3,2
  5119     0C85  2C87               	goto	u2261
  5120     0C86  2C88               	goto	u2260
  5121     0C87                     u2261:
  5122     0C87  2C9A               	goto	l1971
  5123     0C88                     u2260:
  5124     0C88                     l1965:
  5125     0C88  3000               	movlw	0
  5126     0C89  1683               	bsf	3,5	;RP0=1, select bank1
  5127     0C8A  1303               	bcf	3,6	;RP1=0, select bank1
  5128     0C8B  00A3               	movwf	(___fladd@b+3)^(0+128)
  5129     0C8C  3000               	movlw	0
  5130     0C8D  00A2               	movwf	(___fladd@b+2)^(0+128)
  5131     0C8E  3000               	movlw	0
  5132     0C8F  00A1               	movwf	(___fladd@b+1)^(0+128)
  5133     0C90  3000               	movlw	0
  5134     0C91  00A0               	movwf	___fladd@b^(0+128)
  5135     0C92                     l1967:
  5136     0C92  1283               	bcf	3,5	;RP0=0, select bank0
  5137     0C93  1303               	bcf	3,6	;RP1=0, select bank0
  5138     0C94  086B               	movf	___fladd@bexp,w
  5139     0C95  1D03               	btfss	3,2
  5140     0C96  2C98               	goto	u2271
  5141     0C97  2C99               	goto	u2270
  5142     0C98                     u2271:
  5143     0C98  2C9A               	goto	l1971
  5144     0C99                     u2270:
  5145     0C99                     l1969:
  5146     0C99  01E9               	clrf	___fladd@signs
  5147     0C9A                     l1971:
  5148     0C9A  1C6B               	btfss	___fladd@bexp,0
  5149     0C9B  2C9D               	goto	u2281
  5150     0C9C  2C9E               	goto	u2280
  5151     0C9D                     u2281:
  5152     0C9D  2CA2               	goto	l1975
  5153     0C9E                     u2280:
  5154     0C9E                     l1973:
  5155     0C9E  1683               	bsf	3,5	;RP0=1, select bank1
  5156     0C9F  1303               	bcf	3,6	;RP1=0, select bank1
  5157     0CA0  17A2               	bsf	(___fladd@b^(0+128)+2),7
  5158     0CA1  2CA8               	goto	l1977
  5159     0CA2                     l1975:
  5160     0CA2  307F               	movlw	127
  5161     0CA3  00FF               	movwf	btemp+1
  5162     0CA4  087F               	movf	btemp+1,w
  5163     0CA5  1683               	bsf	3,5	;RP0=1, select bank1
  5164     0CA6  1303               	bcf	3,6	;RP1=0, select bank1
  5165     0CA7  05A2               	andwf	(___fladd@b^(0+128)+2),f
  5166     0CA8                     l1977:
  5167     0CA8  1283               	bcf	3,5	;RP0=0, select bank0
  5168     0CA9  1303               	bcf	3,6	;RP1=0, select bank0
  5169     0CAA  086B               	movf	___fladd@bexp,w
  5170     0CAB  1683               	bsf	3,5	;RP0=1, select bank1
  5171     0CAC  1303               	bcf	3,6	;RP1=0, select bank1
  5172     0CAD  00A8               	movwf	??___fladd^(0+128)
  5173     0CAE  1003               	clrc
  5174     0CAF  0C28               	rrf	??___fladd^(0+128),w
  5175     0CB0  00A3               	movwf	(___fladd@b^(0+128)+3)
  5176     0CB1                     l1979:
  5177     0CB1  1283               	bcf	3,5	;RP0=0, select bank0
  5178     0CB2  1303               	bcf	3,6	;RP1=0, select bank0
  5179     0CB3  1FE9               	btfss	___fladd@signs,7
  5180     0CB4  2CB6               	goto	u2291
  5181     0CB5  2CB7               	goto	u2290
  5182     0CB6                     u2291:
  5183     0CB6  2CBA               	goto	l531
  5184     0CB7                     u2290:
  5185     0CB7                     l1981:
  5186     0CB7  1683               	bsf	3,5	;RP0=1, select bank1
  5187     0CB8  1303               	bcf	3,6	;RP1=0, select bank1
  5188     0CB9  17A3               	bsf	(___fladd@b^(0+128)+3),7
  5189     0CBA                     l531:
  5190     0CBA                     l501:
  5191     0CBA  0008               	return
  5192     0CBB                     __end_of___fladd:
  5193                           
  5194                           	psect	text12
  5195     0CBB                     __ptext12:	
  5196 ;; *************** function ___flmul *****************
  5197 ;; Defined at:
  5198 ;;		line 8 in file "C:\Program Files\Microchip\xc8\v2.41\pic\sources\c90\common\sprcmul.c"
  5199 ;; Parameters:    Size  Location     Type
  5200 ;;  b               4   21[BANK0 ] unsigned char 
  5201 ;;  a               4   25[BANK0 ] unsigned char 
  5202 ;; Auto vars:     Size  Location     Type
  5203 ;;  prod            4   41[BANK0 ] struct .
  5204 ;;  grs             4   35[BANK0 ] unsigned long 
  5205 ;;  temp            2   45[BANK0 ] struct .
  5206 ;;  bexp            1   40[BANK0 ] unsigned char 
  5207 ;;  aexp            1   39[BANK0 ] unsigned char 
  5208 ;;  sign            1   34[BANK0 ] unsigned char 
  5209 ;; Return value:  Size  Location     Type
  5210 ;;                  4   21[BANK0 ] unsigned char 
  5211 ;; Registers used:
  5212 ;;		wreg, status,2, status,0, btemp+1, pclath, cstack
  5213 ;; Tracked objects:
  5214 ;;		On entry : 0/0
  5215 ;;		On exit  : 0/0
  5216 ;;		Unchanged: 0/0
  5217 ;; Data sizes:     COMMON   BANK0   BANK1   BANK3   BANK2
  5218 ;;      Params:         0       8       0       0       0
  5219 ;;      Locals:         0      13       0       0       0
  5220 ;;      Temps:          0       5       0       0       0
  5221 ;;      Totals:         0      26       0       0       0
  5222 ;;Total ram usage:       26 bytes
  5223 ;; Hardware stack levels used: 1
  5224 ;; Hardware stack levels required when called: 1
  5225 ;; This function calls:
  5226 ;;		__Umul8_16
  5227 ;; This function is called by:
  5228 ;;		_float_LCD
  5229 ;;		_main
  5230 ;; This function uses a non-reentrant model
  5231 ;;
  5232                           
  5233     0CBB                     ___flmul:	
  5234                           ;psect for function ___flmul
  5235                           
  5236     0CBB                     l2329:	
  5237                           ;incstack = 0
  5238                           ; Regs used in ___flmul: [wreg+status,2+status,0+btemp+1+pclath+cstack]
  5239                           
  5240     0CBB  1283               	bcf	3,5	;RP0=0, select bank0
  5241     0CBC  1303               	bcf	3,6	;RP1=0, select bank0
  5242     0CBD  0838               	movf	___flmul@b+3,w
  5243     0CBE  3980               	andlw	128
  5244     0CBF  00C2               	movwf	___flmul@sign
  5245     0CC0                     l2331:
  5246     0CC0  0838               	movf	___flmul@b+3,w
  5247     0CC1  00BD               	movwf	??___flmul
  5248     0CC2  073D               	addwf	??___flmul,w
  5249     0CC3  00C8               	movwf	___flmul@bexp
  5250     0CC4                     l2333:
  5251     0CC4  1FB7               	btfss	___flmul@b+2,7
  5252     0CC5  2CC7               	goto	u2831
  5253     0CC6  2CC8               	goto	u2830
  5254     0CC7                     u2831:
  5255     0CC7  2CC9               	goto	l2337
  5256     0CC8                     u2830:
  5257     0CC8                     l2335:
  5258     0CC8  1448               	bsf	___flmul@bexp,0
  5259     0CC9                     l2337:
  5260     0CC9  0848               	movf	___flmul@bexp,w
  5261     0CCA  1903               	btfsc	3,2
  5262     0CCB  2CCD               	goto	u2841
  5263     0CCC  2CCE               	goto	u2840
  5264     0CCD                     u2841:
  5265     0CCD  2CDD               	goto	l2345
  5266     0CCE                     u2840:
  5267     0CCE                     l2339:
  5268     0CCE  0A48               	incf	___flmul@bexp,w
  5269     0CCF  1D03               	btfss	3,2
  5270     0CD0  2CD2               	goto	u2851
  5271     0CD1  2CD3               	goto	u2850
  5272     0CD2                     u2851:
  5273     0CD2  2CDB               	goto	l2343
  5274     0CD3                     u2850:
  5275     0CD3                     l2341:
  5276     0CD3  3000               	movlw	0
  5277     0CD4  00B8               	movwf	___flmul@b+3
  5278     0CD5  3000               	movlw	0
  5279     0CD6  00B7               	movwf	___flmul@b+2
  5280     0CD7  3000               	movlw	0
  5281     0CD8  00B6               	movwf	___flmul@b+1
  5282     0CD9  3000               	movlw	0
  5283     0CDA  00B5               	movwf	___flmul@b
  5284     0CDB                     l2343:
  5285     0CDB  17B7               	bsf	___flmul@b+2,7
  5286     0CDC  2CE5               	goto	l2347
  5287     0CDD                     l2345:
  5288     0CDD  3000               	movlw	0
  5289     0CDE  00B8               	movwf	___flmul@b+3
  5290     0CDF  3000               	movlw	0
  5291     0CE0  00B7               	movwf	___flmul@b+2
  5292     0CE1  3000               	movlw	0
  5293     0CE2  00B6               	movwf	___flmul@b+1
  5294     0CE3  3000               	movlw	0
  5295     0CE4  00B5               	movwf	___flmul@b
  5296     0CE5                     l2347:
  5297     0CE5  083C               	movf	___flmul@a+3,w
  5298     0CE6  3980               	andlw	128
  5299     0CE7  00FF               	movwf	btemp+1
  5300     0CE8  087F               	movf	btemp+1,w
  5301     0CE9  06C2               	xorwf	___flmul@sign,f
  5302     0CEA                     l2349:
  5303     0CEA  083C               	movf	___flmul@a+3,w
  5304     0CEB  00BD               	movwf	??___flmul
  5305     0CEC  073D               	addwf	??___flmul,w
  5306     0CED  00C7               	movwf	___flmul@aexp
  5307     0CEE                     l2351:
  5308     0CEE  1FBB               	btfss	___flmul@a+2,7
  5309     0CEF  2CF1               	goto	u2861
  5310     0CF0  2CF2               	goto	u2860
  5311     0CF1                     u2861:
  5312     0CF1  2CF3               	goto	l2355
  5313     0CF2                     u2860:
  5314     0CF2                     l2353:
  5315     0CF2  1447               	bsf	___flmul@aexp,0
  5316     0CF3                     l2355:
  5317     0CF3  0847               	movf	___flmul@aexp,w
  5318     0CF4  1903               	btfsc	3,2
  5319     0CF5  2CF7               	goto	u2871
  5320     0CF6  2CF8               	goto	u2870
  5321     0CF7                     u2871:
  5322     0CF7  2D07               	goto	l2363
  5323     0CF8                     u2870:
  5324     0CF8                     l2357:
  5325     0CF8  0A47               	incf	___flmul@aexp,w
  5326     0CF9  1D03               	btfss	3,2
  5327     0CFA  2CFC               	goto	u2881
  5328     0CFB  2CFD               	goto	u2880
  5329     0CFC                     u2881:
  5330     0CFC  2D05               	goto	l2361
  5331     0CFD                     u2880:
  5332     0CFD                     l2359:
  5333     0CFD  3000               	movlw	0
  5334     0CFE  00BC               	movwf	___flmul@a+3
  5335     0CFF  3000               	movlw	0
  5336     0D00  00BB               	movwf	___flmul@a+2
  5337     0D01  3000               	movlw	0
  5338     0D02  00BA               	movwf	___flmul@a+1
  5339     0D03  3000               	movlw	0
  5340     0D04  00B9               	movwf	___flmul@a
  5341     0D05                     l2361:
  5342     0D05  17BB               	bsf	___flmul@a+2,7
  5343     0D06  2D0F               	goto	l2365
  5344     0D07                     l2363:
  5345     0D07  3000               	movlw	0
  5346     0D08  00BC               	movwf	___flmul@a+3
  5347     0D09  3000               	movlw	0
  5348     0D0A  00BB               	movwf	___flmul@a+2
  5349     0D0B  3000               	movlw	0
  5350     0D0C  00BA               	movwf	___flmul@a+1
  5351     0D0D  3000               	movlw	0
  5352     0D0E  00B9               	movwf	___flmul@a
  5353     0D0F                     l2365:
  5354     0D0F  0847               	movf	___flmul@aexp,w
  5355     0D10  1903               	btfsc	3,2
  5356     0D11  2D13               	goto	u2891
  5357     0D12  2D14               	goto	u2890
  5358     0D13                     u2891:
  5359     0D13  2D19               	goto	l2369
  5360     0D14                     u2890:
  5361     0D14                     l2367:
  5362     0D14  0848               	movf	___flmul@bexp,w
  5363     0D15  1D03               	btfss	3,2
  5364     0D16  2D18               	goto	u2901
  5365     0D17  2D19               	goto	u2900
  5366     0D18                     u2901:
  5367     0D18  2D22               	goto	l2373
  5368     0D19                     u2900:
  5369     0D19                     l2369:
  5370     0D19  3000               	movlw	0
  5371     0D1A  00B8               	movwf	?___flmul+3
  5372     0D1B  3000               	movlw	0
  5373     0D1C  00B7               	movwf	?___flmul+2
  5374     0D1D  3000               	movlw	0
  5375     0D1E  00B6               	movwf	?___flmul+1
  5376     0D1F  3000               	movlw	0
  5377     0D20  00B5               	movwf	?___flmul
  5378     0D21  2FFF               	goto	l584
  5379     0D22                     l2373:
  5380     0D22  0835               	movf	___flmul@b,w
  5381     0D23  00F0               	movwf	__Umul8_16@multiplicand
  5382     0D24  083B               	movf	___flmul@a+2,w
  5383     0D25  160A  118A  24E9  120A  158A  	fcall	__Umul8_16
  5384     0D2A  0871               	movf	?__Umul8_16+1,w
  5385     0D2B  1283               	bcf	3,5	;RP0=0, select bank0
  5386     0D2C  1303               	bcf	3,6	;RP1=0, select bank0
  5387     0D2D  00CE               	movwf	___flmul@temp+1
  5388     0D2E  0870               	movf	?__Umul8_16,w
  5389     0D2F  00CD               	movwf	___flmul@temp
  5390     0D30                     l2375:
  5391     0D30  084D               	movf	___flmul@temp,w
  5392     0D31  00BD               	movwf	??___flmul
  5393     0D32  01BE               	clrf	??___flmul+1
  5394     0D33  01BF               	clrf	??___flmul+2
  5395     0D34  01C0               	clrf	??___flmul+3
  5396     0D35  0840               	movf	??___flmul+3,w
  5397     0D36  00C6               	movwf	___flmul@grs+3
  5398     0D37  083F               	movf	??___flmul+2,w
  5399     0D38  00C5               	movwf	___flmul@grs+2
  5400     0D39  083E               	movf	??___flmul+1,w
  5401     0D3A  00C4               	movwf	___flmul@grs+1
  5402     0D3B  083D               	movf	??___flmul,w
  5403     0D3C  00C3               	movwf	___flmul@grs
  5404     0D3D                     l2377:
  5405     0D3D  084E               	movf	___flmul@temp+1,w
  5406     0D3E  00BD               	movwf	??___flmul
  5407     0D3F  01BE               	clrf	??___flmul+1
  5408     0D40  01BF               	clrf	??___flmul+2
  5409     0D41  01C0               	clrf	??___flmul+3
  5410     0D42  0840               	movf	??___flmul+3,w
  5411     0D43  00CC               	movwf	___flmul@prod+3
  5412     0D44  083F               	movf	??___flmul+2,w
  5413     0D45  00CB               	movwf	___flmul@prod+2
  5414     0D46  083E               	movf	??___flmul+1,w
  5415     0D47  00CA               	movwf	___flmul@prod+1
  5416     0D48  083D               	movf	??___flmul,w
  5417     0D49  00C9               	movwf	___flmul@prod
  5418     0D4A  0836               	movf	___flmul@b+1,w
  5419     0D4B  00F0               	movwf	__Umul8_16@multiplicand
  5420     0D4C  083A               	movf	___flmul@a+1,w
  5421     0D4D  160A  118A  24E9  120A  158A  	fcall	__Umul8_16
  5422     0D52  0871               	movf	?__Umul8_16+1,w
  5423     0D53  1283               	bcf	3,5	;RP0=0, select bank0
  5424     0D54  1303               	bcf	3,6	;RP1=0, select bank0
  5425     0D55  00CE               	movwf	___flmul@temp+1
  5426     0D56  0870               	movf	?__Umul8_16,w
  5427     0D57  00CD               	movwf	___flmul@temp
  5428     0D58                     l2379:
  5429     0D58  084D               	movf	___flmul@temp,w
  5430     0D59  00BD               	movwf	??___flmul
  5431     0D5A  01BE               	clrf	??___flmul+1
  5432     0D5B  01BF               	clrf	??___flmul+2
  5433     0D5C  01C0               	clrf	??___flmul+3
  5434     0D5D  083D               	movf	??___flmul,w
  5435     0D5E  07C3               	addwf	___flmul@grs,f
  5436     0D5F  083E               	movf	??___flmul+1,w
  5437     0D60  1103               	clrz
  5438     0D61  1803               	skipnc
  5439     0D62  3E01               	addlw	1
  5440     0D63  1903               	skipnz
  5441     0D64  2D66               	goto	u2911
  5442     0D65  07C4               	addwf	___flmul@grs+1,f
  5443     0D66                     u2911:
  5444     0D66  083F               	movf	??___flmul+2,w
  5445     0D67  1103               	clrz
  5446     0D68  1803               	skipnc
  5447     0D69  3E01               	addlw	1
  5448     0D6A  1903               	skipnz
  5449     0D6B  2D6D               	goto	u2912
  5450     0D6C  07C5               	addwf	___flmul@grs+2,f
  5451     0D6D                     u2912:
  5452     0D6D  0840               	movf	??___flmul+3,w
  5453     0D6E  1103               	clrz
  5454     0D6F  1803               	skipnc
  5455     0D70  3E01               	addlw	1
  5456     0D71  1903               	skipnz
  5457     0D72  2D74               	goto	u2913
  5458     0D73  07C6               	addwf	___flmul@grs+3,f
  5459     0D74                     u2913:
  5460     0D74                     l2381:
  5461     0D74  084E               	movf	___flmul@temp+1,w
  5462     0D75  00BD               	movwf	??___flmul
  5463     0D76  01BE               	clrf	??___flmul+1
  5464     0D77  01BF               	clrf	??___flmul+2
  5465     0D78  01C0               	clrf	??___flmul+3
  5466     0D79  083D               	movf	??___flmul,w
  5467     0D7A  07C9               	addwf	___flmul@prod,f
  5468     0D7B  083E               	movf	??___flmul+1,w
  5469     0D7C  1103               	clrz
  5470     0D7D  1803               	skipnc
  5471     0D7E  3E01               	addlw	1
  5472     0D7F  1903               	skipnz
  5473     0D80  2D82               	goto	u2921
  5474     0D81  07CA               	addwf	___flmul@prod+1,f
  5475     0D82                     u2921:
  5476     0D82  083F               	movf	??___flmul+2,w
  5477     0D83  1103               	clrz
  5478     0D84  1803               	skipnc
  5479     0D85  3E01               	addlw	1
  5480     0D86  1903               	skipnz
  5481     0D87  2D89               	goto	u2922
  5482     0D88  07CB               	addwf	___flmul@prod+2,f
  5483     0D89                     u2922:
  5484     0D89  0840               	movf	??___flmul+3,w
  5485     0D8A  1103               	clrz
  5486     0D8B  1803               	skipnc
  5487     0D8C  3E01               	addlw	1
  5488     0D8D  1903               	skipnz
  5489     0D8E  2D90               	goto	u2923
  5490     0D8F  07CC               	addwf	___flmul@prod+3,f
  5491     0D90                     u2923:
  5492     0D90  0837               	movf	___flmul@b+2,w
  5493     0D91  00F0               	movwf	__Umul8_16@multiplicand
  5494     0D92  0839               	movf	___flmul@a,w
  5495     0D93  160A  118A  24E9  120A  158A  	fcall	__Umul8_16
  5496     0D98  0871               	movf	?__Umul8_16+1,w
  5497     0D99  1283               	bcf	3,5	;RP0=0, select bank0
  5498     0D9A  1303               	bcf	3,6	;RP1=0, select bank0
  5499     0D9B  00CE               	movwf	___flmul@temp+1
  5500     0D9C  0870               	movf	?__Umul8_16,w
  5501     0D9D  00CD               	movwf	___flmul@temp
  5502     0D9E                     l2383:
  5503     0D9E  084D               	movf	___flmul@temp,w
  5504     0D9F  00BD               	movwf	??___flmul
  5505     0DA0  01BE               	clrf	??___flmul+1
  5506     0DA1  01BF               	clrf	??___flmul+2
  5507     0DA2  01C0               	clrf	??___flmul+3
  5508     0DA3  083D               	movf	??___flmul,w
  5509     0DA4  07C3               	addwf	___flmul@grs,f
  5510     0DA5  083E               	movf	??___flmul+1,w
  5511     0DA6  1103               	clrz
  5512     0DA7  1803               	skipnc
  5513     0DA8  3E01               	addlw	1
  5514     0DA9  1903               	skipnz
  5515     0DAA  2DAC               	goto	u2931
  5516     0DAB  07C4               	addwf	___flmul@grs+1,f
  5517     0DAC                     u2931:
  5518     0DAC  083F               	movf	??___flmul+2,w
  5519     0DAD  1103               	clrz
  5520     0DAE  1803               	skipnc
  5521     0DAF  3E01               	addlw	1
  5522     0DB0  1903               	skipnz
  5523     0DB1  2DB3               	goto	u2932
  5524     0DB2  07C5               	addwf	___flmul@grs+2,f
  5525     0DB3                     u2932:
  5526     0DB3  0840               	movf	??___flmul+3,w
  5527     0DB4  1103               	clrz
  5528     0DB5  1803               	skipnc
  5529     0DB6  3E01               	addlw	1
  5530     0DB7  1903               	skipnz
  5531     0DB8  2DBA               	goto	u2933
  5532     0DB9  07C6               	addwf	___flmul@grs+3,f
  5533     0DBA                     u2933:
  5534     0DBA                     l2385:
  5535     0DBA  084E               	movf	___flmul@temp+1,w
  5536     0DBB  00BD               	movwf	??___flmul
  5537     0DBC  01BE               	clrf	??___flmul+1
  5538     0DBD  01BF               	clrf	??___flmul+2
  5539     0DBE  01C0               	clrf	??___flmul+3
  5540     0DBF  083D               	movf	??___flmul,w
  5541     0DC0  07C9               	addwf	___flmul@prod,f
  5542     0DC1  083E               	movf	??___flmul+1,w
  5543     0DC2  1103               	clrz
  5544     0DC3  1803               	skipnc
  5545     0DC4  3E01               	addlw	1
  5546     0DC5  1903               	skipnz
  5547     0DC6  2DC8               	goto	u2941
  5548     0DC7  07CA               	addwf	___flmul@prod+1,f
  5549     0DC8                     u2941:
  5550     0DC8  083F               	movf	??___flmul+2,w
  5551     0DC9  1103               	clrz
  5552     0DCA  1803               	skipnc
  5553     0DCB  3E01               	addlw	1
  5554     0DCC  1903               	skipnz
  5555     0DCD  2DCF               	goto	u2942
  5556     0DCE  07CB               	addwf	___flmul@prod+2,f
  5557     0DCF                     u2942:
  5558     0DCF  0840               	movf	??___flmul+3,w
  5559     0DD0  1103               	clrz
  5560     0DD1  1803               	skipnc
  5561     0DD2  3E01               	addlw	1
  5562     0DD3  1903               	skipnz
  5563     0DD4  2DD6               	goto	u2943
  5564     0DD5  07CC               	addwf	___flmul@prod+3,f
  5565     0DD6                     u2943:
  5566     0DD6                     l2387:
  5567     0DD6  3008               	movlw	8
  5568     0DD7  00BD               	movwf	??___flmul
  5569     0DD8                     u2955:
  5570     0DD8  1003               	clrc
  5571     0DD9  0DC3               	rlf	___flmul@grs,f
  5572     0DDA  0DC4               	rlf	___flmul@grs+1,f
  5573     0DDB  0DC5               	rlf	___flmul@grs+2,f
  5574     0DDC  0DC6               	rlf	___flmul@grs+3,f
  5575     0DDD  0BBD               	decfsz	??___flmul,f
  5576     0DDE  2DD8               	goto	u2955
  5577     0DDF                     l2389:
  5578     0DDF  0836               	movf	___flmul@b+1,w
  5579     0DE0  00F0               	movwf	__Umul8_16@multiplicand
  5580     0DE1  0839               	movf	___flmul@a,w
  5581     0DE2  160A  118A  24E9  120A  158A  	fcall	__Umul8_16
  5582     0DE7  0871               	movf	?__Umul8_16+1,w
  5583     0DE8  1283               	bcf	3,5	;RP0=0, select bank0
  5584     0DE9  1303               	bcf	3,6	;RP1=0, select bank0
  5585     0DEA  00CE               	movwf	___flmul@temp+1
  5586     0DEB  0870               	movf	?__Umul8_16,w
  5587     0DEC  00CD               	movwf	___flmul@temp
  5588     0DED                     l2391:
  5589     0DED  084D               	movf	___flmul@temp,w
  5590     0DEE  00BD               	movwf	??___flmul
  5591     0DEF  084E               	movf	___flmul@temp+1,w
  5592     0DF0  00BE               	movwf	??___flmul+1
  5593     0DF1  01BF               	clrf	??___flmul+2
  5594     0DF2  01C0               	clrf	??___flmul+3
  5595     0DF3  083D               	movf	??___flmul,w
  5596     0DF4  07C3               	addwf	___flmul@grs,f
  5597     0DF5  083E               	movf	??___flmul+1,w
  5598     0DF6  1103               	clrz
  5599     0DF7  1803               	skipnc
  5600     0DF8  3E01               	addlw	1
  5601     0DF9  1903               	skipnz
  5602     0DFA  2DFC               	goto	u2961
  5603     0DFB  07C4               	addwf	___flmul@grs+1,f
  5604     0DFC                     u2961:
  5605     0DFC  083F               	movf	??___flmul+2,w
  5606     0DFD  1103               	clrz
  5607     0DFE  1803               	skipnc
  5608     0DFF  3E01               	addlw	1
  5609     0E00  1903               	skipnz
  5610     0E01  2E03               	goto	u2962
  5611     0E02  07C5               	addwf	___flmul@grs+2,f
  5612     0E03                     u2962:
  5613     0E03  0840               	movf	??___flmul+3,w
  5614     0E04  1103               	clrz
  5615     0E05  1803               	skipnc
  5616     0E06  3E01               	addlw	1
  5617     0E07  1903               	skipnz
  5618     0E08  2E0A               	goto	u2963
  5619     0E09  07C6               	addwf	___flmul@grs+3,f
  5620     0E0A                     u2963:
  5621     0E0A                     l2393:
  5622     0E0A  0835               	movf	___flmul@b,w
  5623     0E0B  00F0               	movwf	__Umul8_16@multiplicand
  5624     0E0C  083A               	movf	___flmul@a+1,w
  5625     0E0D  160A  118A  24E9  120A  158A  	fcall	__Umul8_16
  5626     0E12  0871               	movf	?__Umul8_16+1,w
  5627     0E13  1283               	bcf	3,5	;RP0=0, select bank0
  5628     0E14  1303               	bcf	3,6	;RP1=0, select bank0
  5629     0E15  00CE               	movwf	___flmul@temp+1
  5630     0E16  0870               	movf	?__Umul8_16,w
  5631     0E17  00CD               	movwf	___flmul@temp
  5632     0E18                     l2395:
  5633     0E18  084D               	movf	___flmul@temp,w
  5634     0E19  00BD               	movwf	??___flmul
  5635     0E1A  084E               	movf	___flmul@temp+1,w
  5636     0E1B  00BE               	movwf	??___flmul+1
  5637     0E1C  01BF               	clrf	??___flmul+2
  5638     0E1D  01C0               	clrf	??___flmul+3
  5639     0E1E  083D               	movf	??___flmul,w
  5640     0E1F  07C3               	addwf	___flmul@grs,f
  5641     0E20  083E               	movf	??___flmul+1,w
  5642     0E21  1103               	clrz
  5643     0E22  1803               	skipnc
  5644     0E23  3E01               	addlw	1
  5645     0E24  1903               	skipnz
  5646     0E25  2E27               	goto	u2971
  5647     0E26  07C4               	addwf	___flmul@grs+1,f
  5648     0E27                     u2971:
  5649     0E27  083F               	movf	??___flmul+2,w
  5650     0E28  1103               	clrz
  5651     0E29  1803               	skipnc
  5652     0E2A  3E01               	addlw	1
  5653     0E2B  1903               	skipnz
  5654     0E2C  2E2E               	goto	u2972
  5655     0E2D  07C5               	addwf	___flmul@grs+2,f
  5656     0E2E                     u2972:
  5657     0E2E  0840               	movf	??___flmul+3,w
  5658     0E2F  1103               	clrz
  5659     0E30  1803               	skipnc
  5660     0E31  3E01               	addlw	1
  5661     0E32  1903               	skipnz
  5662     0E33  2E35               	goto	u2973
  5663     0E34  07C6               	addwf	___flmul@grs+3,f
  5664     0E35                     u2973:
  5665     0E35                     l2397:
  5666     0E35  3008               	movlw	8
  5667     0E36  00BD               	movwf	??___flmul
  5668     0E37                     u2985:
  5669     0E37  1003               	clrc
  5670     0E38  0DC3               	rlf	___flmul@grs,f
  5671     0E39  0DC4               	rlf	___flmul@grs+1,f
  5672     0E3A  0DC5               	rlf	___flmul@grs+2,f
  5673     0E3B  0DC6               	rlf	___flmul@grs+3,f
  5674     0E3C  0BBD               	decfsz	??___flmul,f
  5675     0E3D  2E37               	goto	u2985
  5676     0E3E  0835               	movf	___flmul@b,w
  5677     0E3F  00F0               	movwf	__Umul8_16@multiplicand
  5678     0E40  0839               	movf	___flmul@a,w
  5679     0E41  160A  118A  24E9  120A  158A  	fcall	__Umul8_16
  5680     0E46  0871               	movf	?__Umul8_16+1,w
  5681     0E47  1283               	bcf	3,5	;RP0=0, select bank0
  5682     0E48  1303               	bcf	3,6	;RP1=0, select bank0
  5683     0E49  00CE               	movwf	___flmul@temp+1
  5684     0E4A  0870               	movf	?__Umul8_16,w
  5685     0E4B  00CD               	movwf	___flmul@temp
  5686     0E4C                     l2399:
  5687     0E4C  084D               	movf	___flmul@temp,w
  5688     0E4D  00BD               	movwf	??___flmul
  5689     0E4E  084E               	movf	___flmul@temp+1,w
  5690     0E4F  00BE               	movwf	??___flmul+1
  5691     0E50  01BF               	clrf	??___flmul+2
  5692     0E51  01C0               	clrf	??___flmul+3
  5693     0E52  083D               	movf	??___flmul,w
  5694     0E53  07C3               	addwf	___flmul@grs,f
  5695     0E54  083E               	movf	??___flmul+1,w
  5696     0E55  1103               	clrz
  5697     0E56  1803               	skipnc
  5698     0E57  3E01               	addlw	1
  5699     0E58  1903               	skipnz
  5700     0E59  2E5B               	goto	u2991
  5701     0E5A  07C4               	addwf	___flmul@grs+1,f
  5702     0E5B                     u2991:
  5703     0E5B  083F               	movf	??___flmul+2,w
  5704     0E5C  1103               	clrz
  5705     0E5D  1803               	skipnc
  5706     0E5E  3E01               	addlw	1
  5707     0E5F  1903               	skipnz
  5708     0E60  2E62               	goto	u2992
  5709     0E61  07C5               	addwf	___flmul@grs+2,f
  5710     0E62                     u2992:
  5711     0E62  0840               	movf	??___flmul+3,w
  5712     0E63  1103               	clrz
  5713     0E64  1803               	skipnc
  5714     0E65  3E01               	addlw	1
  5715     0E66  1903               	skipnz
  5716     0E67  2E69               	goto	u2993
  5717     0E68  07C6               	addwf	___flmul@grs+3,f
  5718     0E69                     u2993:
  5719     0E69                     l2401:
  5720     0E69  0836               	movf	___flmul@b+1,w
  5721     0E6A  00F0               	movwf	__Umul8_16@multiplicand
  5722     0E6B  083B               	movf	___flmul@a+2,w
  5723     0E6C  160A  118A  24E9  120A  158A  	fcall	__Umul8_16
  5724     0E71  0871               	movf	?__Umul8_16+1,w
  5725     0E72  1283               	bcf	3,5	;RP0=0, select bank0
  5726     0E73  1303               	bcf	3,6	;RP1=0, select bank0
  5727     0E74  00CE               	movwf	___flmul@temp+1
  5728     0E75  0870               	movf	?__Umul8_16,w
  5729     0E76  00CD               	movwf	___flmul@temp
  5730     0E77  084D               	movf	___flmul@temp,w
  5731     0E78  00BD               	movwf	??___flmul
  5732     0E79  084E               	movf	___flmul@temp+1,w
  5733     0E7A  00BE               	movwf	??___flmul+1
  5734     0E7B  01BF               	clrf	??___flmul+2
  5735     0E7C  01C0               	clrf	??___flmul+3
  5736     0E7D  083D               	movf	??___flmul,w
  5737     0E7E  07C9               	addwf	___flmul@prod,f
  5738     0E7F  083E               	movf	??___flmul+1,w
  5739     0E80  1103               	clrz
  5740     0E81  1803               	skipnc
  5741     0E82  3E01               	addlw	1
  5742     0E83  1903               	skipnz
  5743     0E84  2E86               	goto	u3001
  5744     0E85  07CA               	addwf	___flmul@prod+1,f
  5745     0E86                     u3001:
  5746     0E86  083F               	movf	??___flmul+2,w
  5747     0E87  1103               	clrz
  5748     0E88  1803               	skipnc
  5749     0E89  3E01               	addlw	1
  5750     0E8A  1903               	skipnz
  5751     0E8B  2E8D               	goto	u3002
  5752     0E8C  07CB               	addwf	___flmul@prod+2,f
  5753     0E8D                     u3002:
  5754     0E8D  0840               	movf	??___flmul+3,w
  5755     0E8E  1103               	clrz
  5756     0E8F  1803               	skipnc
  5757     0E90  3E01               	addlw	1
  5758     0E91  1903               	skipnz
  5759     0E92  2E94               	goto	u3003
  5760     0E93  07CC               	addwf	___flmul@prod+3,f
  5761     0E94                     u3003:
  5762     0E94                     l2403:
  5763     0E94  0837               	movf	___flmul@b+2,w
  5764     0E95  00F0               	movwf	__Umul8_16@multiplicand
  5765     0E96  083A               	movf	___flmul@a+1,w
  5766     0E97  160A  118A  24E9  120A  158A  	fcall	__Umul8_16
  5767     0E9C  0871               	movf	?__Umul8_16+1,w
  5768     0E9D  1283               	bcf	3,5	;RP0=0, select bank0
  5769     0E9E  1303               	bcf	3,6	;RP1=0, select bank0
  5770     0E9F  00CE               	movwf	___flmul@temp+1
  5771     0EA0  0870               	movf	?__Umul8_16,w
  5772     0EA1  00CD               	movwf	___flmul@temp
  5773     0EA2                     l2405:
  5774     0EA2  084D               	movf	___flmul@temp,w
  5775     0EA3  00BD               	movwf	??___flmul
  5776     0EA4  084E               	movf	___flmul@temp+1,w
  5777     0EA5  00BE               	movwf	??___flmul+1
  5778     0EA6  01BF               	clrf	??___flmul+2
  5779     0EA7  01C0               	clrf	??___flmul+3
  5780     0EA8  083D               	movf	??___flmul,w
  5781     0EA9  07C9               	addwf	___flmul@prod,f
  5782     0EAA  083E               	movf	??___flmul+1,w
  5783     0EAB  1103               	clrz
  5784     0EAC  1803               	skipnc
  5785     0EAD  3E01               	addlw	1
  5786     0EAE  1903               	skipnz
  5787     0EAF  2EB1               	goto	u3011
  5788     0EB0  07CA               	addwf	___flmul@prod+1,f
  5789     0EB1                     u3011:
  5790     0EB1  083F               	movf	??___flmul+2,w
  5791     0EB2  1103               	clrz
  5792     0EB3  1803               	skipnc
  5793     0EB4  3E01               	addlw	1
  5794     0EB5  1903               	skipnz
  5795     0EB6  2EB8               	goto	u3012
  5796     0EB7  07CB               	addwf	___flmul@prod+2,f
  5797     0EB8                     u3012:
  5798     0EB8  0840               	movf	??___flmul+3,w
  5799     0EB9  1103               	clrz
  5800     0EBA  1803               	skipnc
  5801     0EBB  3E01               	addlw	1
  5802     0EBC  1903               	skipnz
  5803     0EBD  2EBF               	goto	u3013
  5804     0EBE  07CC               	addwf	___flmul@prod+3,f
  5805     0EBF                     u3013:
  5806     0EBF  0837               	movf	___flmul@b+2,w
  5807     0EC0  00F0               	movwf	__Umul8_16@multiplicand
  5808     0EC1  083B               	movf	___flmul@a+2,w
  5809     0EC2  160A  118A  24E9  120A  158A  	fcall	__Umul8_16
  5810     0EC7  0871               	movf	?__Umul8_16+1,w
  5811     0EC8  1283               	bcf	3,5	;RP0=0, select bank0
  5812     0EC9  1303               	bcf	3,6	;RP1=0, select bank0
  5813     0ECA  00CE               	movwf	___flmul@temp+1
  5814     0ECB  0870               	movf	?__Umul8_16,w
  5815     0ECC  00CD               	movwf	___flmul@temp
  5816     0ECD                     l2407:
  5817     0ECD  084D               	movf	___flmul@temp,w
  5818     0ECE  00BD               	movwf	??___flmul
  5819     0ECF  084E               	movf	___flmul@temp+1,w
  5820     0ED0  00BE               	movwf	??___flmul+1
  5821     0ED1  01BF               	clrf	??___flmul+2
  5822     0ED2  01C0               	clrf	??___flmul+3
  5823     0ED3  3008               	movlw	8
  5824     0ED4                     u3025:
  5825     0ED4  1003               	clrc
  5826     0ED5  0DBD               	rlf	??___flmul,f
  5827     0ED6  0DBE               	rlf	??___flmul+1,f
  5828     0ED7  0DBF               	rlf	??___flmul+2,f
  5829     0ED8  0DC0               	rlf	??___flmul+3,f
  5830     0ED9                     u3020:
  5831     0ED9  3EFF               	addlw	-1
  5832     0EDA  1D03               	skipz
  5833     0EDB  2ED4               	goto	u3025
  5834     0EDC  083D               	movf	??___flmul,w
  5835     0EDD  07C9               	addwf	___flmul@prod,f
  5836     0EDE  083E               	movf	??___flmul+1,w
  5837     0EDF  1103               	clrz
  5838     0EE0  1803               	skipnc
  5839     0EE1  3E01               	addlw	1
  5840     0EE2  1903               	skipnz
  5841     0EE3  2EE5               	goto	u3031
  5842     0EE4  07CA               	addwf	___flmul@prod+1,f
  5843     0EE5                     u3031:
  5844     0EE5  083F               	movf	??___flmul+2,w
  5845     0EE6  1103               	clrz
  5846     0EE7  1803               	skipnc
  5847     0EE8  3E01               	addlw	1
  5848     0EE9  1903               	skipnz
  5849     0EEA  2EEC               	goto	u3032
  5850     0EEB  07CB               	addwf	___flmul@prod+2,f
  5851     0EEC                     u3032:
  5852     0EEC  0840               	movf	??___flmul+3,w
  5853     0EED  1103               	clrz
  5854     0EEE  1803               	skipnc
  5855     0EEF  3E01               	addlw	1
  5856     0EF0  1903               	skipnz
  5857     0EF1  2EF3               	goto	u3033
  5858     0EF2  07CC               	addwf	___flmul@prod+3,f
  5859     0EF3                     u3033:
  5860     0EF3                     l2409:
  5861     0EF3  0843               	movf	___flmul@grs,w
  5862     0EF4  00BD               	movwf	??___flmul
  5863     0EF5  0844               	movf	___flmul@grs+1,w
  5864     0EF6  00BE               	movwf	??___flmul+1
  5865     0EF7  0845               	movf	___flmul@grs+2,w
  5866     0EF8  00BF               	movwf	??___flmul+2
  5867     0EF9  0846               	movf	___flmul@grs+3,w
  5868     0EFA  00C0               	movwf	??___flmul+3
  5869     0EFB  3018               	movlw	24
  5870     0EFC                     u3045:
  5871     0EFC  1003               	clrc
  5872     0EFD  0CC0               	rrf	??___flmul+3,f
  5873     0EFE  0CBF               	rrf	??___flmul+2,f
  5874     0EFF  0CBE               	rrf	??___flmul+1,f
  5875     0F00  0CBD               	rrf	??___flmul,f
  5876     0F01                     u3040:
  5877     0F01  3EFF               	addlw	-1
  5878     0F02  1D03               	skipz
  5879     0F03  2EFC               	goto	u3045
  5880     0F04  083D               	movf	??___flmul,w
  5881     0F05  07C9               	addwf	___flmul@prod,f
  5882     0F06  083E               	movf	??___flmul+1,w
  5883     0F07  1103               	clrz
  5884     0F08  1803               	skipnc
  5885     0F09  3E01               	addlw	1
  5886     0F0A  1903               	skipnz
  5887     0F0B  2F0D               	goto	u3051
  5888     0F0C  07CA               	addwf	___flmul@prod+1,f
  5889     0F0D                     u3051:
  5890     0F0D  083F               	movf	??___flmul+2,w
  5891     0F0E  1103               	clrz
  5892     0F0F  1803               	skipnc
  5893     0F10  3E01               	addlw	1
  5894     0F11  1903               	skipnz
  5895     0F12  2F14               	goto	u3052
  5896     0F13  07CB               	addwf	___flmul@prod+2,f
  5897     0F14                     u3052:
  5898     0F14  0840               	movf	??___flmul+3,w
  5899     0F15  1103               	clrz
  5900     0F16  1803               	skipnc
  5901     0F17  3E01               	addlw	1
  5902     0F18  1903               	skipnz
  5903     0F19  2F1B               	goto	u3053
  5904     0F1A  07CC               	addwf	___flmul@prod+3,f
  5905     0F1B                     u3053:
  5906     0F1B                     l2411:
  5907     0F1B  3008               	movlw	8
  5908     0F1C  00BD               	movwf	??___flmul
  5909     0F1D                     u3065:
  5910     0F1D  1003               	clrc
  5911     0F1E  0DC3               	rlf	___flmul@grs,f
  5912     0F1F  0DC4               	rlf	___flmul@grs+1,f
  5913     0F20  0DC5               	rlf	___flmul@grs+2,f
  5914     0F21  0DC6               	rlf	___flmul@grs+3,f
  5915     0F22  0BBD               	decfsz	??___flmul,f
  5916     0F23  2F1D               	goto	u3065
  5917     0F24                     l2413:
  5918     0F24  0848               	movf	___flmul@bexp,w
  5919     0F25  0747               	addwf	___flmul@aexp,w
  5920     0F26  00BD               	movwf	??___flmul
  5921     0F27  01BE               	clrf	??___flmul+1
  5922     0F28  0DBE               	rlf	??___flmul+1,f
  5923     0F29  083D               	movf	??___flmul,w
  5924     0F2A  3E82               	addlw	130
  5925     0F2B  00CD               	movwf	___flmul@temp
  5926     0F2C  083E               	movf	??___flmul+1,w
  5927     0F2D  1803               	skipnc
  5928     0F2E  3E01               	addlw	1
  5929     0F2F  3EFF               	addlw	255
  5930     0F30  00CE               	movwf	___flmul@temp+1
  5931     0F31  2F4F               	goto	l2425
  5932     0F32                     l2415:
  5933     0F32  3001               	movlw	1
  5934     0F33  00BD               	movwf	??___flmul
  5935     0F34                     u3075:
  5936     0F34  1003               	clrc
  5937     0F35  0DC9               	rlf	___flmul@prod,f
  5938     0F36  0DCA               	rlf	___flmul@prod+1,f
  5939     0F37  0DCB               	rlf	___flmul@prod+2,f
  5940     0F38  0DCC               	rlf	___flmul@prod+3,f
  5941     0F39  0BBD               	decfsz	??___flmul,f
  5942     0F3A  2F34               	goto	u3075
  5943     0F3B                     l2417:
  5944     0F3B  1FC6               	btfss	___flmul@grs+3,7
  5945     0F3C  2F3E               	goto	u3081
  5946     0F3D  2F3F               	goto	u3080
  5947     0F3E                     u3081:
  5948     0F3E  2F40               	goto	l2421
  5949     0F3F                     u3080:
  5950     0F3F                     l2419:
  5951     0F3F  1449               	bsf	___flmul@prod,0
  5952     0F40                     l2421:
  5953     0F40  3001               	movlw	1
  5954     0F41  00BD               	movwf	??___flmul
  5955     0F42                     u3095:
  5956     0F42  1003               	clrc
  5957     0F43  0DC3               	rlf	___flmul@grs,f
  5958     0F44  0DC4               	rlf	___flmul@grs+1,f
  5959     0F45  0DC5               	rlf	___flmul@grs+2,f
  5960     0F46  0DC6               	rlf	___flmul@grs+3,f
  5961     0F47  0BBD               	decfsz	??___flmul,f
  5962     0F48  2F42               	goto	u3095
  5963     0F49                     l2423:
  5964     0F49  30FF               	movlw	255
  5965     0F4A  07CD               	addwf	___flmul@temp,f
  5966     0F4B  1803               	skipnc
  5967     0F4C  0ACE               	incf	___flmul@temp+1,f
  5968     0F4D  30FF               	movlw	255
  5969     0F4E  07CE               	addwf	___flmul@temp+1,f
  5970     0F4F                     l2425:
  5971     0F4F  1FCB               	btfss	___flmul@prod+2,7
  5972     0F50  2F52               	goto	u3101
  5973     0F51  2F53               	goto	u3100
  5974     0F52                     u3101:
  5975     0F52  2F32               	goto	l2415
  5976     0F53                     u3100:
  5977     0F53                     l2427:
  5978     0F53  01C7               	clrf	___flmul@aexp
  5979     0F54                     l2429:
  5980     0F54  1FC6               	btfss	___flmul@grs+3,7
  5981     0F55  2F57               	goto	u3111
  5982     0F56  2F58               	goto	u3110
  5983     0F57                     u3111:
  5984     0F57  2F74               	goto	l2437
  5985     0F58                     u3110:
  5986     0F58                     l2431:
  5987     0F58  30FF               	movlw	255
  5988     0F59  0543               	andwf	___flmul@grs,w
  5989     0F5A  00BD               	movwf	??___flmul
  5990     0F5B  30FF               	movlw	255
  5991     0F5C  0544               	andwf	___flmul@grs+1,w
  5992     0F5D  00BE               	movwf	??___flmul+1
  5993     0F5E  30FF               	movlw	255
  5994     0F5F  0545               	andwf	___flmul@grs+2,w
  5995     0F60  00BF               	movwf	??___flmul+2
  5996     0F61  307F               	movlw	127
  5997     0F62  0546               	andwf	___flmul@grs+3,w
  5998     0F63  00C0               	movwf	??___flmul+3
  5999     0F64  0840               	movf	??___flmul+3,w
  6000     0F65  043F               	iorwf	??___flmul+2,w
  6001     0F66  043E               	iorwf	??___flmul+1,w
  6002     0F67  043D               	iorwf	??___flmul,w
  6003     0F68  1903               	skipnz
  6004     0F69  2F6B               	goto	u3121
  6005     0F6A  2F6C               	goto	u3120
  6006     0F6B                     u3121:
  6007     0F6B  2F6F               	goto	l590
  6008     0F6C                     u3120:
  6009     0F6C                     l2433:
  6010     0F6C  01C7               	clrf	___flmul@aexp
  6011     0F6D  0AC7               	incf	___flmul@aexp,f
  6012     0F6E  2F74               	goto	l2437
  6013     0F6F                     l590:
  6014     0F6F  1C49               	btfss	___flmul@prod,0
  6015     0F70  2F72               	goto	u3131
  6016     0F71  2F73               	goto	u3130
  6017     0F72                     u3131:
  6018     0F72  2F74               	goto	l2437
  6019     0F73                     u3130:
  6020     0F73  2F6C               	goto	l2433
  6021     0F74                     l2437:
  6022     0F74  0847               	movf	___flmul@aexp,w
  6023     0F75  1903               	btfsc	3,2
  6024     0F76  2F78               	goto	u3141
  6025     0F77  2F79               	goto	u3140
  6026     0F78                     u3141:
  6027     0F78  2FAA               	goto	l2447
  6028     0F79                     u3140:
  6029     0F79                     l2439:
  6030     0F79  3001               	movlw	1
  6031     0F7A  07C9               	addwf	___flmul@prod,f
  6032     0F7B  3000               	movlw	0
  6033     0F7C  1803               	skipnc
  6034     0F7D  3001               	movlw	1
  6035     0F7E  07CA               	addwf	___flmul@prod+1,f
  6036     0F7F  3000               	movlw	0
  6037     0F80  1803               	skipnc
  6038     0F81  3001               	movlw	1
  6039     0F82  07CB               	addwf	___flmul@prod+2,f
  6040     0F83  3000               	movlw	0
  6041     0F84  1803               	skipnc
  6042     0F85  3001               	movlw	1
  6043     0F86  07CC               	addwf	___flmul@prod+3,f
  6044     0F87                     l2441:
  6045     0F87  1C4C               	btfss	___flmul@prod+3,0
  6046     0F88  2F8A               	goto	u3151
  6047     0F89  2F8B               	goto	u3150
  6048     0F8A                     u3151:
  6049     0F8A  2FAA               	goto	l2447
  6050     0F8B                     u3150:
  6051     0F8B                     l2443:
  6052     0F8B  0849               	movf	___flmul@prod,w
  6053     0F8C  00BD               	movwf	??___flmul
  6054     0F8D  084A               	movf	___flmul@prod+1,w
  6055     0F8E  00BE               	movwf	??___flmul+1
  6056     0F8F  084B               	movf	___flmul@prod+2,w
  6057     0F90  00BF               	movwf	??___flmul+2
  6058     0F91  084C               	movf	___flmul@prod+3,w
  6059     0F92  00C0               	movwf	??___flmul+3
  6060     0F93  3001               	movlw	1
  6061     0F94  00C1               	movwf	??___flmul+4
  6062     0F95                     u3165:
  6063     0F95  0D40               	rlf	??___flmul+3,w
  6064     0F96  0CC0               	rrf	??___flmul+3,f
  6065     0F97  0CBF               	rrf	??___flmul+2,f
  6066     0F98  0CBE               	rrf	??___flmul+1,f
  6067     0F99  0CBD               	rrf	??___flmul,f
  6068     0F9A                     u3160:
  6069     0F9A  0BC1               	decfsz	??___flmul+4,f
  6070     0F9B  2F95               	goto	u3165
  6071     0F9C  0840               	movf	??___flmul+3,w
  6072     0F9D  00CC               	movwf	___flmul@prod+3
  6073     0F9E  083F               	movf	??___flmul+2,w
  6074     0F9F  00CB               	movwf	___flmul@prod+2
  6075     0FA0  083E               	movf	??___flmul+1,w
  6076     0FA1  00CA               	movwf	___flmul@prod+1
  6077     0FA2  083D               	movf	??___flmul,w
  6078     0FA3  00C9               	movwf	___flmul@prod
  6079     0FA4                     l2445:
  6080     0FA4  3001               	movlw	1
  6081     0FA5  07CD               	addwf	___flmul@temp,f
  6082     0FA6  1803               	skipnc
  6083     0FA7  0ACE               	incf	___flmul@temp+1,f
  6084     0FA8  3000               	movlw	0
  6085     0FA9  07CE               	addwf	___flmul@temp+1,f
  6086     0FAA                     l2447:
  6087     0FAA  084E               	movf	___flmul@temp+1,w
  6088     0FAB  3A80               	xorlw	128
  6089     0FAC  00FF               	movwf	btemp+1
  6090     0FAD  3080               	movlw	128
  6091     0FAE  027F               	subwf	btemp+1,w
  6092     0FAF  1D03               	skipz
  6093     0FB0  2FB3               	goto	u3175
  6094     0FB1  30FF               	movlw	255
  6095     0FB2  024D               	subwf	___flmul@temp,w
  6096     0FB3                     u3175:
  6097     0FB3  1C03               	skipc
  6098     0FB4  2FB6               	goto	u3171
  6099     0FB5  2FB7               	goto	u3170
  6100     0FB6                     u3171:
  6101     0FB6  2FC2               	goto	l2451
  6102     0FB7                     u3170:
  6103     0FB7                     l2449:
  6104     0FB7  307F               	movlw	127
  6105     0FB8  1283               	bcf	3,5	;RP0=0, select bank0
  6106     0FB9  1303               	bcf	3,6	;RP1=0, select bank0
  6107     0FBA  00CC               	movwf	___flmul@prod+3
  6108     0FBB  3080               	movlw	128
  6109     0FBC  00CB               	movwf	___flmul@prod+2
  6110     0FBD  3000               	movlw	0
  6111     0FBE  00CA               	movwf	___flmul@prod+1
  6112     0FBF  3000               	movlw	0
  6113     0FC0  00C9               	movwf	___flmul@prod
  6114     0FC1  2FF3               	goto	l2465
  6115     0FC2                     l2451:
  6116     0FC2  1283               	bcf	3,5	;RP0=0, select bank0
  6117     0FC3  1303               	bcf	3,6	;RP1=0, select bank0
  6118     0FC4  084E               	movf	___flmul@temp+1,w
  6119     0FC5  3A80               	xorlw	128
  6120     0FC6  00FF               	movwf	btemp+1
  6121     0FC7  3080               	movlw	128
  6122     0FC8  027F               	subwf	btemp+1,w
  6123     0FC9  1D03               	skipz
  6124     0FCA  2FCD               	goto	u3185
  6125     0FCB  3001               	movlw	1
  6126     0FCC  024D               	subwf	___flmul@temp,w
  6127     0FCD                     u3185:
  6128     0FCD  1803               	skipnc
  6129     0FCE  2FD0               	goto	u3181
  6130     0FCF  2FD1               	goto	u3180
  6131     0FD0                     u3181:
  6132     0FD0  2FDD               	goto	l2457
  6133     0FD1                     u3180:
  6134     0FD1                     l2453:
  6135     0FD1  3000               	movlw	0
  6136     0FD2  1283               	bcf	3,5	;RP0=0, select bank0
  6137     0FD3  1303               	bcf	3,6	;RP1=0, select bank0
  6138     0FD4  00CC               	movwf	___flmul@prod+3
  6139     0FD5  3000               	movlw	0
  6140     0FD6  00CB               	movwf	___flmul@prod+2
  6141     0FD7  3000               	movlw	0
  6142     0FD8  00CA               	movwf	___flmul@prod+1
  6143     0FD9  3000               	movlw	0
  6144     0FDA  00C9               	movwf	___flmul@prod
  6145     0FDB                     l2455:
  6146     0FDB  01C2               	clrf	___flmul@sign
  6147     0FDC  2FF3               	goto	l2465
  6148     0FDD                     l2457:
  6149     0FDD  1283               	bcf	3,5	;RP0=0, select bank0
  6150     0FDE  1303               	bcf	3,6	;RP1=0, select bank0
  6151     0FDF  084D               	movf	___flmul@temp,w
  6152     0FE0  00C8               	movwf	___flmul@bexp
  6153     0FE1  30FF               	movlw	255
  6154     0FE2  05C9               	andwf	___flmul@prod,f
  6155     0FE3  30FF               	movlw	255
  6156     0FE4  05CA               	andwf	___flmul@prod+1,f
  6157     0FE5  307F               	movlw	127
  6158     0FE6  05CB               	andwf	___flmul@prod+2,f
  6159     0FE7  3000               	movlw	0
  6160     0FE8  05CC               	andwf	___flmul@prod+3,f
  6161     0FE9                     l2459:
  6162     0FE9  1C48               	btfss	___flmul@bexp,0
  6163     0FEA  2FEC               	goto	u3191
  6164     0FEB  2FED               	goto	u3190
  6165     0FEC                     u3191:
  6166     0FEC  2FEE               	goto	l2463
  6167     0FED                     u3190:
  6168     0FED                     l2461:
  6169     0FED  17CB               	bsf	___flmul@prod+2,7
  6170     0FEE                     l2463:
  6171     0FEE  0848               	movf	___flmul@bexp,w
  6172     0FEF  00BD               	movwf	??___flmul
  6173     0FF0  1003               	clrc
  6174     0FF1  0C3D               	rrf	??___flmul,w
  6175     0FF2  00CC               	movwf	___flmul@prod+3
  6176     0FF3                     l2465:
  6177     0FF3  0842               	movf	___flmul@sign,w
  6178     0FF4  00FF               	movwf	btemp+1
  6179     0FF5  087F               	movf	btemp+1,w
  6180     0FF6  04CC               	iorwf	___flmul@prod+3,f
  6181     0FF7                     l2467:
  6182     0FF7  084C               	movf	___flmul@prod+3,w
  6183     0FF8  00B8               	movwf	?___flmul+3
  6184     0FF9  084B               	movf	___flmul@prod+2,w
  6185     0FFA  00B7               	movwf	?___flmul+2
  6186     0FFB  084A               	movf	___flmul@prod+1,w
  6187     0FFC  00B6               	movwf	?___flmul+1
  6188     0FFD  0849               	movf	___flmul@prod,w
  6189     0FFE  00B5               	movwf	?___flmul
  6190     0FFF                     l584:
  6191     0FFF  0008               	return
  6192     1000                     __end_of___flmul:
  6193                           
  6194                           	psect	text13
  6195     14E9                     __ptext13:	
  6196 ;; *************** function __Umul8_16 *****************
  6197 ;; Defined at:
  6198 ;;		line 4 in file "C:\Program Files\Microchip\xc8\v2.41\pic\sources\c90\common\Umul8_16.c"
  6199 ;; Parameters:    Size  Location     Type
  6200 ;;  multiplier      1    wreg     unsigned char 
  6201 ;;  multiplicand    1    0[COMMON] unsigned char 
  6202 ;; Auto vars:     Size  Location     Type
  6203 ;;  multiplier      1    8[COMMON] unsigned char 
  6204 ;;  word_mpld       2    6[COMMON] unsigned int 
  6205 ;;  product         2    4[COMMON] unsigned int 
  6206 ;; Return value:  Size  Location     Type
  6207 ;;                  2    0[COMMON] unsigned int 
  6208 ;; Registers used:
  6209 ;;		wreg, status,2, status,0
  6210 ;; Tracked objects:
  6211 ;;		On entry : 0/0
  6212 ;;		On exit  : 0/0
  6213 ;;		Unchanged: 0/0
  6214 ;; Data sizes:     COMMON   BANK0   BANK1   BANK3   BANK2
  6215 ;;      Params:         2       0       0       0       0
  6216 ;;      Locals:         5       0       0       0       0
  6217 ;;      Temps:          2       0       0       0       0
  6218 ;;      Totals:         9       0       0       0       0
  6219 ;;Total ram usage:        9 bytes
  6220 ;; Hardware stack levels used: 1
  6221 ;; This function calls:
  6222 ;;		Nothing
  6223 ;; This function is called by:
  6224 ;;		___flmul
  6225 ;; This function uses a non-reentrant model
  6226 ;;
  6227                           
  6228     14E9                     __Umul8_16:	
  6229                           ;psect for function __Umul8_16
  6230                           
  6231                           
  6232                           ;incstack = 0
  6233                           ; Regs used in __Umul8_16: [wreg+status,2+status,0]
  6234                           ;__Umul8_16@multiplier stored from wreg
  6235     14E9  00F8               	movwf	__Umul8_16@multiplier
  6236     14EA                     l1983:
  6237     14EA  01F4               	clrf	__Umul8_16@product
  6238     14EB  01F5               	clrf	__Umul8_16@product+1
  6239     14EC                     l1985:
  6240     14EC  0870               	movf	__Umul8_16@multiplicand,w
  6241     14ED  00F2               	movwf	??__Umul8_16
  6242     14EE  01F3               	clrf	??__Umul8_16+1
  6243     14EF  0872               	movf	??__Umul8_16,w
  6244     14F0  00F6               	movwf	__Umul8_16@word_mpld
  6245     14F1  0873               	movf	??__Umul8_16+1,w
  6246     14F2  00F7               	movwf	__Umul8_16@word_mpld+1
  6247     14F3                     l1987:
  6248     14F3  1C78               	btfss	__Umul8_16@multiplier,0
  6249     14F4  2CF6               	goto	u2301
  6250     14F5  2CF7               	goto	u2300
  6251     14F6                     u2301:
  6252     14F6  2CFD               	goto	l603
  6253     14F7                     u2300:
  6254     14F7                     l1989:
  6255     14F7  0876               	movf	__Umul8_16@word_mpld,w
  6256     14F8  07F4               	addwf	__Umul8_16@product,f
  6257     14F9  1803               	skipnc
  6258     14FA  0AF5               	incf	__Umul8_16@product+1,f
  6259     14FB  0877               	movf	__Umul8_16@word_mpld+1,w
  6260     14FC  07F5               	addwf	__Umul8_16@product+1,f
  6261     14FD                     l603:
  6262     14FD  3001               	movlw	1
  6263     14FE                     u2315:
  6264     14FE  1003               	clrc
  6265     14FF  0DF6               	rlf	__Umul8_16@word_mpld,f
  6266     1500  0DF7               	rlf	__Umul8_16@word_mpld+1,f
  6267     1501  3EFF               	addlw	-1
  6268     1502  1D03               	skipz
  6269     1503  2CFE               	goto	u2315
  6270     1504  1003               	clrc
  6271     1505  0CF8               	rrf	__Umul8_16@multiplier,f
  6272     1506                     l1991:
  6273     1506  0878               	movf	__Umul8_16@multiplier,w
  6274     1507  1D03               	btfss	3,2
  6275     1508  2D0A               	goto	u2321
  6276     1509  2D0B               	goto	u2320
  6277     150A                     u2321:
  6278     150A  2CF3               	goto	l1987
  6279     150B                     u2320:
  6280     150B                     l1993:
  6281     150B  0875               	movf	__Umul8_16@product+1,w
  6282     150C  00F1               	movwf	?__Umul8_16+1
  6283     150D  0874               	movf	__Umul8_16@product,w
  6284     150E  00F0               	movwf	?__Umul8_16
  6285     150F                     l605:
  6286     150F  0008               	return
  6287     1510                     __end_of__Umul8_16:
  6288                           
  6289                           	psect	text14
  6290     1631                     __ptext14:	
  6291 ;; *************** function ___fldiv *****************
  6292 ;; Defined at:
  6293 ;;		line 8 in file "C:\Program Files\Microchip\xc8\v2.41\pic\sources\c90\common\sprcdiv.c"
  6294 ;; Parameters:    Size  Location     Type
  6295 ;;  a               4   47[BANK0 ] unsigned int 
  6296 ;;  b               4   51[BANK0 ] unsigned int 
  6297 ;; Auto vars:     Size  Location     Type
  6298 ;;  grs             4   67[BANK0 ] unsigned long 
  6299 ;;  rem             4   60[BANK0 ] unsigned long 
  6300 ;;  new_exp         2   65[BANK0 ] int 
  6301 ;;  aexp            1   72[BANK0 ] unsigned char 
  6302 ;;  bexp            1   71[BANK0 ] unsigned char 
  6303 ;;  sign            1   64[BANK0 ] unsigned char 
  6304 ;; Return value:  Size  Location     Type
  6305 ;;                  4   47[BANK0 ] unsigned char 
  6306 ;; Registers used:
  6307 ;;		wreg, status,2, status,0, btemp+1
  6308 ;; Tracked objects:
  6309 ;;		On entry : 0/0
  6310 ;;		On exit  : 0/0
  6311 ;;		Unchanged: 0/0
  6312 ;; Data sizes:     COMMON   BANK0   BANK1   BANK3   BANK2
  6313 ;;      Params:         0       8       0       0       0
  6314 ;;      Locals:         0      13       0       0       0
  6315 ;;      Temps:          0       5       0       0       0
  6316 ;;      Totals:         0      26       0       0       0
  6317 ;;Total ram usage:       26 bytes
  6318 ;; Hardware stack levels used: 1
  6319 ;; This function calls:
  6320 ;;		Nothing
  6321 ;; This function is called by:
  6322 ;;		_float_LCD
  6323 ;;		_main
  6324 ;; This function uses a non-reentrant model
  6325 ;;
  6326                           
  6327     1631                     ___fldiv:	
  6328                           ;psect for function ___fldiv
  6329                           
  6330     1631                     l2183:	
  6331                           ;incstack = 0
  6332                           ; Regs used in ___fldiv: [wreg+status,2+status,0+btemp+1]
  6333                           
  6334     1631  1283               	bcf	3,5	;RP0=0, select bank0
  6335     1632  1303               	bcf	3,6	;RP1=0, select bank0
  6336     1633  0856               	movf	___fldiv@b+3,w
  6337     1634  3980               	andlw	128
  6338     1635  00E0               	movwf	___fldiv@sign
  6339     1636                     l2185:
  6340     1636  0856               	movf	___fldiv@b+3,w
  6341     1637  00D7               	movwf	??___fldiv
  6342     1638  0757               	addwf	??___fldiv,w
  6343     1639  00E7               	movwf	___fldiv@bexp
  6344     163A                     l2187:
  6345     163A  1FD5               	btfss	___fldiv@b+2,7
  6346     163B  2E3D               	goto	u2541
  6347     163C  2E3E               	goto	u2540
  6348     163D                     u2541:
  6349     163D  2E3F               	goto	l2191
  6350     163E                     u2540:
  6351     163E                     l2189:
  6352     163E  1467               	bsf	___fldiv@bexp,0
  6353     163F                     l2191:
  6354     163F  0867               	movf	___fldiv@bexp,w
  6355     1640  1903               	btfsc	3,2
  6356     1641  2E43               	goto	u2551
  6357     1642  2E44               	goto	u2550
  6358     1643                     u2551:
  6359     1643  2E54               	goto	l2201
  6360     1644                     u2550:
  6361     1644                     l2193:
  6362     1644  0A67               	incf	___fldiv@bexp,w
  6363     1645  1D03               	btfss	3,2
  6364     1646  2E48               	goto	u2561
  6365     1647  2E49               	goto	u2560
  6366     1648                     u2561:
  6367     1648  2E51               	goto	l2197
  6368     1649                     u2560:
  6369     1649                     l2195:
  6370     1649  3000               	movlw	0
  6371     164A  00D6               	movwf	___fldiv@b+3
  6372     164B  3000               	movlw	0
  6373     164C  00D5               	movwf	___fldiv@b+2
  6374     164D  3000               	movlw	0
  6375     164E  00D4               	movwf	___fldiv@b+1
  6376     164F  3000               	movlw	0
  6377     1650  00D3               	movwf	___fldiv@b
  6378     1651                     l2197:
  6379     1651  17D5               	bsf	___fldiv@b+2,7
  6380     1652                     l2199:
  6381     1652  01D6               	clrf	___fldiv@b+3
  6382     1653  2E5C               	goto	l2203
  6383     1654                     l2201:
  6384     1654  3000               	movlw	0
  6385     1655  00D6               	movwf	___fldiv@b+3
  6386     1656  3000               	movlw	0
  6387     1657  00D5               	movwf	___fldiv@b+2
  6388     1658  3000               	movlw	0
  6389     1659  00D4               	movwf	___fldiv@b+1
  6390     165A  3000               	movlw	0
  6391     165B  00D3               	movwf	___fldiv@b
  6392     165C                     l2203:
  6393     165C  0852               	movf	___fldiv@a+3,w
  6394     165D  3980               	andlw	128
  6395     165E  00FF               	movwf	btemp+1
  6396     165F  087F               	movf	btemp+1,w
  6397     1660  06E0               	xorwf	___fldiv@sign,f
  6398     1661                     l2205:
  6399     1661  0852               	movf	___fldiv@a+3,w
  6400     1662  00D7               	movwf	??___fldiv
  6401     1663  0757               	addwf	??___fldiv,w
  6402     1664  00E8               	movwf	___fldiv@aexp
  6403     1665                     l2207:
  6404     1665  1FD1               	btfss	___fldiv@a+2,7
  6405     1666  2E68               	goto	u2571
  6406     1667  2E69               	goto	u2570
  6407     1668                     u2571:
  6408     1668  2E6A               	goto	l2211
  6409     1669                     u2570:
  6410     1669                     l2209:
  6411     1669  1468               	bsf	___fldiv@aexp,0
  6412     166A                     l2211:
  6413     166A  0868               	movf	___fldiv@aexp,w
  6414     166B  1903               	btfsc	3,2
  6415     166C  2E6E               	goto	u2581
  6416     166D  2E6F               	goto	u2580
  6417     166E                     u2581:
  6418     166E  2E7F               	goto	l2221
  6419     166F                     u2580:
  6420     166F                     l2213:
  6421     166F  0A68               	incf	___fldiv@aexp,w
  6422     1670  1D03               	btfss	3,2
  6423     1671  2E73               	goto	u2591
  6424     1672  2E74               	goto	u2590
  6425     1673                     u2591:
  6426     1673  2E7C               	goto	l2217
  6427     1674                     u2590:
  6428     1674                     l2215:
  6429     1674  3000               	movlw	0
  6430     1675  00D2               	movwf	___fldiv@a+3
  6431     1676  3000               	movlw	0
  6432     1677  00D1               	movwf	___fldiv@a+2
  6433     1678  3000               	movlw	0
  6434     1679  00D0               	movwf	___fldiv@a+1
  6435     167A  3000               	movlw	0
  6436     167B  00CF               	movwf	___fldiv@a
  6437     167C                     l2217:
  6438     167C  17D1               	bsf	___fldiv@a+2,7
  6439     167D                     l2219:
  6440     167D  01D2               	clrf	___fldiv@a+3
  6441     167E  2E87               	goto	l544
  6442     167F                     l2221:
  6443     167F  3000               	movlw	0
  6444     1680  00D2               	movwf	___fldiv@a+3
  6445     1681  3000               	movlw	0
  6446     1682  00D1               	movwf	___fldiv@a+2
  6447     1683  3000               	movlw	0
  6448     1684  00D0               	movwf	___fldiv@a+1
  6449     1685  3000               	movlw	0
  6450     1686  00CF               	movwf	___fldiv@a
  6451     1687                     l544:
  6452     1687  0852               	movf	___fldiv@a+3,w
  6453     1688  0451               	iorwf	___fldiv@a+2,w
  6454     1689  0450               	iorwf	___fldiv@a+1,w
  6455     168A  044F               	iorwf	___fldiv@a,w
  6456     168B  1D03               	skipz
  6457     168C  2E8E               	goto	u2601
  6458     168D  2E8F               	goto	u2600
  6459     168E                     u2601:
  6460     168E  2EA8               	goto	l2231
  6461     168F                     u2600:
  6462     168F                     l2223:
  6463     168F  3000               	movlw	0
  6464     1690  00D6               	movwf	___fldiv@b+3
  6465     1691  3000               	movlw	0
  6466     1692  00D5               	movwf	___fldiv@b+2
  6467     1693  3000               	movlw	0
  6468     1694  00D4               	movwf	___fldiv@b+1
  6469     1695  3000               	movlw	0
  6470     1696  00D3               	movwf	___fldiv@b
  6471     1697  3080               	movlw	128
  6472     1698  04D5               	iorwf	___fldiv@b+2,f
  6473     1699  307F               	movlw	127
  6474     169A  04D6               	iorwf	___fldiv@b+3,f
  6475     169B                     l2225:
  6476     169B  0860               	movf	___fldiv@sign,w
  6477     169C  00FF               	movwf	btemp+1
  6478     169D  087F               	movf	btemp+1,w
  6479     169E  04D6               	iorwf	___fldiv@b+3,f
  6480     169F                     l2227:
  6481     169F  0856               	movf	___fldiv@b+3,w
  6482     16A0  00D2               	movwf	?___fldiv+3
  6483     16A1  0855               	movf	___fldiv@b+2,w
  6484     16A2  00D1               	movwf	?___fldiv+2
  6485     16A3  0854               	movf	___fldiv@b+1,w
  6486     16A4  00D0               	movwf	?___fldiv+1
  6487     16A5  0853               	movf	___fldiv@b,w
  6488     16A6  00CF               	movwf	?___fldiv
  6489     16A7  2FFF               	goto	l546
  6490     16A8                     l2231:
  6491     16A8  0867               	movf	___fldiv@bexp,w
  6492     16A9  1D03               	btfss	3,2
  6493     16AA  2EAC               	goto	u2611
  6494     16AB  2EAD               	goto	u2610
  6495     16AC                     u2611:
  6496     16AC  2EB6               	goto	l2237
  6497     16AD                     u2610:
  6498     16AD                     l2233:
  6499     16AD  3000               	movlw	0
  6500     16AE  00D2               	movwf	?___fldiv+3
  6501     16AF  3000               	movlw	0
  6502     16B0  00D1               	movwf	?___fldiv+2
  6503     16B1  3000               	movlw	0
  6504     16B2  00D0               	movwf	?___fldiv+1
  6505     16B3  3000               	movlw	0
  6506     16B4  00CF               	movwf	?___fldiv
  6507     16B5  2FFF               	goto	l546
  6508     16B6                     l2237:
  6509     16B6  0867               	movf	___fldiv@bexp,w
  6510     16B7  00D7               	movwf	??___fldiv
  6511     16B8  01D8               	clrf	??___fldiv+1
  6512     16B9  0858               	movf	??___fldiv+1,w
  6513     16BA  00DA               	movwf	??___fldiv+3
  6514     16BB  0868               	movf	___fldiv@aexp,w
  6515     16BC  0257               	subwf	??___fldiv,w
  6516     16BD  00D9               	movwf	??___fldiv+2
  6517     16BE  1C03               	skipc
  6518     16BF  03DA               	decf	??___fldiv+3,f
  6519     16C0  0859               	movf	??___fldiv+2,w
  6520     16C1  3E7F               	addlw	127
  6521     16C2  00E1               	movwf	___fldiv@new_exp
  6522     16C3  085A               	movf	??___fldiv+3,w
  6523     16C4  1803               	skipnc
  6524     16C5  3E01               	addlw	1
  6525     16C6  3E00               	addlw	0
  6526     16C7  00E2               	movwf	___fldiv@new_exp+1
  6527     16C8                     l2239:
  6528     16C8  0856               	movf	___fldiv@b+3,w
  6529     16C9  00DF               	movwf	___fldiv@rem+3
  6530     16CA  0855               	movf	___fldiv@b+2,w
  6531     16CB  00DE               	movwf	___fldiv@rem+2
  6532     16CC  0854               	movf	___fldiv@b+1,w
  6533     16CD  00DD               	movwf	___fldiv@rem+1
  6534     16CE  0853               	movf	___fldiv@b,w
  6535     16CF  00DC               	movwf	___fldiv@rem
  6536     16D0                     l2241:
  6537     16D0  3000               	movlw	0
  6538     16D1  00D6               	movwf	___fldiv@b+3
  6539     16D2  3000               	movlw	0
  6540     16D3  00D5               	movwf	___fldiv@b+2
  6541     16D4  3000               	movlw	0
  6542     16D5  00D4               	movwf	___fldiv@b+1
  6543     16D6  3000               	movlw	0
  6544     16D7  00D3               	movwf	___fldiv@b
  6545     16D8                     l2243:
  6546     16D8  3000               	movlw	0
  6547     16D9  00E6               	movwf	___fldiv@grs+3
  6548     16DA  3000               	movlw	0
  6549     16DB  00E5               	movwf	___fldiv@grs+2
  6550     16DC  3000               	movlw	0
  6551     16DD  00E4               	movwf	___fldiv@grs+1
  6552     16DE  3000               	movlw	0
  6553     16DF  00E3               	movwf	___fldiv@grs
  6554     16E0                     l2245:
  6555     16E0  01E8               	clrf	___fldiv@aexp
  6556     16E1  2F2C               	goto	l2265
  6557     16E2                     l2247:
  6558     16E2  0868               	movf	___fldiv@aexp,w
  6559     16E3  1903               	btfsc	3,2
  6560     16E4  2EE6               	goto	u2621
  6561     16E5  2EE7               	goto	u2620
  6562     16E6                     u2621:
  6563     16E6  2F07               	goto	l2257
  6564     16E7                     u2620:
  6565     16E7                     l2249:
  6566     16E7  3001               	movlw	1
  6567     16E8  00D7               	movwf	??___fldiv
  6568     16E9                     u2635:
  6569     16E9  1003               	clrc
  6570     16EA  0DDC               	rlf	___fldiv@rem,f
  6571     16EB  0DDD               	rlf	___fldiv@rem+1,f
  6572     16EC  0DDE               	rlf	___fldiv@rem+2,f
  6573     16ED  0DDF               	rlf	___fldiv@rem+3,f
  6574     16EE  0BD7               	decfsz	??___fldiv,f
  6575     16EF  2EE9               	goto	u2635
  6576     16F0  3001               	movlw	1
  6577     16F1  00D7               	movwf	??___fldiv
  6578     16F2                     u2645:
  6579     16F2  1003               	clrc
  6580     16F3  0DD3               	rlf	___fldiv@b,f
  6581     16F4  0DD4               	rlf	___fldiv@b+1,f
  6582     16F5  0DD5               	rlf	___fldiv@b+2,f
  6583     16F6  0DD6               	rlf	___fldiv@b+3,f
  6584     16F7  0BD7               	decfsz	??___fldiv,f
  6585     16F8  2EF2               	goto	u2645
  6586     16F9                     l2251:
  6587     16F9  1FE6               	btfss	___fldiv@grs+3,7
  6588     16FA  2EFC               	goto	u2651
  6589     16FB  2EFD               	goto	u2650
  6590     16FC                     u2651:
  6591     16FC  2EFE               	goto	l2255
  6592     16FD                     u2650:
  6593     16FD                     l2253:
  6594     16FD  1453               	bsf	___fldiv@b,0
  6595     16FE                     l2255:
  6596     16FE  3001               	movlw	1
  6597     16FF  00D7               	movwf	??___fldiv
  6598     1700                     u2665:
  6599     1700  1003               	clrc
  6600     1701  0DE3               	rlf	___fldiv@grs,f
  6601     1702  0DE4               	rlf	___fldiv@grs+1,f
  6602     1703  0DE5               	rlf	___fldiv@grs+2,f
  6603     1704  0DE6               	rlf	___fldiv@grs+3,f
  6604     1705  0BD7               	decfsz	??___fldiv,f
  6605     1706  2F00               	goto	u2665
  6606     1707                     l2257:
  6607     1707  0852               	movf	___fldiv@a+3,w
  6608     1708  025F               	subwf	___fldiv@rem+3,w
  6609     1709  1D03               	skipz
  6610     170A  2F15               	goto	u2675
  6611     170B  0851               	movf	___fldiv@a+2,w
  6612     170C  025E               	subwf	___fldiv@rem+2,w
  6613     170D  1D03               	skipz
  6614     170E  2F15               	goto	u2675
  6615     170F  0850               	movf	___fldiv@a+1,w
  6616     1710  025D               	subwf	___fldiv@rem+1,w
  6617     1711  1D03               	skipz
  6618     1712  2F15               	goto	u2675
  6619     1713  084F               	movf	___fldiv@a,w
  6620     1714  025C               	subwf	___fldiv@rem,w
  6621     1715                     u2675:
  6622     1715  1C03               	skipc
  6623     1716  2F18               	goto	u2671
  6624     1717  2F19               	goto	u2670
  6625     1718                     u2671:
  6626     1718  2F28               	goto	l2263
  6627     1719                     u2670:
  6628     1719                     l2259:
  6629     1719  1766               	bsf	___fldiv@grs+3,6
  6630     171A                     l2261:
  6631     171A  084F               	movf	___fldiv@a,w
  6632     171B  02DC               	subwf	___fldiv@rem,f
  6633     171C  0850               	movf	___fldiv@a+1,w
  6634     171D  1C03               	skipc
  6635     171E  0F50               	incfsz	___fldiv@a+1,w
  6636     171F  02DD               	subwf	___fldiv@rem+1,f
  6637     1720  0851               	movf	___fldiv@a+2,w
  6638     1721  1C03               	skipc
  6639     1722  0F51               	incfsz	___fldiv@a+2,w
  6640     1723  02DE               	subwf	___fldiv@rem+2,f
  6641     1724  0852               	movf	___fldiv@a+3,w
  6642     1725  1C03               	skipc
  6643     1726  0F52               	incfsz	___fldiv@a+3,w
  6644     1727  02DF               	subwf	___fldiv@rem+3,f
  6645     1728                     l2263:
  6646     1728  3001               	movlw	1
  6647     1729  00FF               	movwf	btemp+1
  6648     172A  087F               	movf	btemp+1,w
  6649     172B  07E8               	addwf	___fldiv@aexp,f
  6650     172C                     l2265:
  6651     172C  301A               	movlw	26
  6652     172D  0268               	subwf	___fldiv@aexp,w
  6653     172E  1C03               	skipc
  6654     172F  2F31               	goto	u2681
  6655     1730  2F32               	goto	u2680
  6656     1731                     u2681:
  6657     1731  2EE2               	goto	l2247
  6658     1732                     u2680:
  6659     1732                     l2267:
  6660     1732  085F               	movf	___fldiv@rem+3,w
  6661     1733  045E               	iorwf	___fldiv@rem+2,w
  6662     1734  045D               	iorwf	___fldiv@rem+1,w
  6663     1735  045C               	iorwf	___fldiv@rem,w
  6664     1736  1903               	skipnz
  6665     1737  2F39               	goto	u2691
  6666     1738  2F3A               	goto	u2690
  6667     1739                     u2691:
  6668     1739  2F59               	goto	l2281
  6669     173A                     u2690:
  6670     173A                     l2269:
  6671     173A  1463               	bsf	___fldiv@grs,0
  6672     173B  2F59               	goto	l2281
  6673     173C                     l2271:
  6674     173C  3001               	movlw	1
  6675     173D  00D7               	movwf	??___fldiv
  6676     173E                     u2705:
  6677     173E  1003               	clrc
  6678     173F  0DD3               	rlf	___fldiv@b,f
  6679     1740  0DD4               	rlf	___fldiv@b+1,f
  6680     1741  0DD5               	rlf	___fldiv@b+2,f
  6681     1742  0DD6               	rlf	___fldiv@b+3,f
  6682     1743  0BD7               	decfsz	??___fldiv,f
  6683     1744  2F3E               	goto	u2705
  6684     1745                     l2273:
  6685     1745  1FE6               	btfss	___fldiv@grs+3,7
  6686     1746  2F48               	goto	u2711
  6687     1747  2F49               	goto	u2710
  6688     1748                     u2711:
  6689     1748  2F4A               	goto	l2277
  6690     1749                     u2710:
  6691     1749                     l2275:
  6692     1749  1453               	bsf	___fldiv@b,0
  6693     174A                     l2277:
  6694     174A  3001               	movlw	1
  6695     174B  00D7               	movwf	??___fldiv
  6696     174C                     u2725:
  6697     174C  1003               	clrc
  6698     174D  0DE3               	rlf	___fldiv@grs,f
  6699     174E  0DE4               	rlf	___fldiv@grs+1,f
  6700     174F  0DE5               	rlf	___fldiv@grs+2,f
  6701     1750  0DE6               	rlf	___fldiv@grs+3,f
  6702     1751  0BD7               	decfsz	??___fldiv,f
  6703     1752  2F4C               	goto	u2725
  6704     1753                     l2279:
  6705     1753  30FF               	movlw	255
  6706     1754  07E1               	addwf	___fldiv@new_exp,f
  6707     1755  1803               	skipnc
  6708     1756  0AE2               	incf	___fldiv@new_exp+1,f
  6709     1757  30FF               	movlw	255
  6710     1758  07E2               	addwf	___fldiv@new_exp+1,f
  6711     1759                     l2281:
  6712     1759  1FD5               	btfss	___fldiv@b+2,7
  6713     175A  2F5C               	goto	u2731
  6714     175B  2F5D               	goto	u2730
  6715     175C                     u2731:
  6716     175C  2F3C               	goto	l2271
  6717     175D                     u2730:
  6718     175D                     l2283:
  6719     175D  01E8               	clrf	___fldiv@aexp
  6720     175E                     l2285:
  6721     175E  1FE6               	btfss	___fldiv@grs+3,7
  6722     175F  2F61               	goto	u2741
  6723     1760  2F62               	goto	u2740
  6724     1761                     u2741:
  6725     1761  2F7E               	goto	l2293
  6726     1762                     u2740:
  6727     1762                     l2287:
  6728     1762  30FF               	movlw	255
  6729     1763  0563               	andwf	___fldiv@grs,w
  6730     1764  00D7               	movwf	??___fldiv
  6731     1765  30FF               	movlw	255
  6732     1766  0564               	andwf	___fldiv@grs+1,w
  6733     1767  00D8               	movwf	??___fldiv+1
  6734     1768  30FF               	movlw	255
  6735     1769  0565               	andwf	___fldiv@grs+2,w
  6736     176A  00D9               	movwf	??___fldiv+2
  6737     176B  307F               	movlw	127
  6738     176C  0566               	andwf	___fldiv@grs+3,w
  6739     176D  00DA               	movwf	??___fldiv+3
  6740     176E  085A               	movf	??___fldiv+3,w
  6741     176F  0459               	iorwf	??___fldiv+2,w
  6742     1770  0458               	iorwf	??___fldiv+1,w
  6743     1771  0457               	iorwf	??___fldiv,w
  6744     1772  1903               	skipnz
  6745     1773  2F75               	goto	u2751
  6746     1774  2F76               	goto	u2750
  6747     1775                     u2751:
  6748     1775  2F79               	goto	l560
  6749     1776                     u2750:
  6750     1776                     l2289:
  6751     1776  01E8               	clrf	___fldiv@aexp
  6752     1777  0AE8               	incf	___fldiv@aexp,f
  6753     1778  2F7E               	goto	l2293
  6754     1779                     l560:
  6755     1779  1C53               	btfss	___fldiv@b,0
  6756     177A  2F7C               	goto	u2761
  6757     177B  2F7D               	goto	u2760
  6758     177C                     u2761:
  6759     177C  2F7E               	goto	l2293
  6760     177D                     u2760:
  6761     177D  2F76               	goto	l2289
  6762     177E                     l2293:
  6763     177E  0868               	movf	___fldiv@aexp,w
  6764     177F  1903               	btfsc	3,2
  6765     1780  2F82               	goto	u2771
  6766     1781  2F83               	goto	u2770
  6767     1782                     u2771:
  6768     1782  2FB4               	goto	l2303
  6769     1783                     u2770:
  6770     1783                     l2295:
  6771     1783  3001               	movlw	1
  6772     1784  07D3               	addwf	___fldiv@b,f
  6773     1785  3000               	movlw	0
  6774     1786  1803               	skipnc
  6775     1787  3001               	movlw	1
  6776     1788  07D4               	addwf	___fldiv@b+1,f
  6777     1789  3000               	movlw	0
  6778     178A  1803               	skipnc
  6779     178B  3001               	movlw	1
  6780     178C  07D5               	addwf	___fldiv@b+2,f
  6781     178D  3000               	movlw	0
  6782     178E  1803               	skipnc
  6783     178F  3001               	movlw	1
  6784     1790  07D6               	addwf	___fldiv@b+3,f
  6785     1791                     l2297:
  6786     1791  1C56               	btfss	___fldiv@b+3,0
  6787     1792  2F94               	goto	u2781
  6788     1793  2F95               	goto	u2780
  6789     1794                     u2781:
  6790     1794  2FB4               	goto	l2303
  6791     1795                     u2780:
  6792     1795                     l2299:
  6793     1795  0853               	movf	___fldiv@b,w
  6794     1796  00D7               	movwf	??___fldiv
  6795     1797  0854               	movf	___fldiv@b+1,w
  6796     1798  00D8               	movwf	??___fldiv+1
  6797     1799  0855               	movf	___fldiv@b+2,w
  6798     179A  00D9               	movwf	??___fldiv+2
  6799     179B  0856               	movf	___fldiv@b+3,w
  6800     179C  00DA               	movwf	??___fldiv+3
  6801     179D  3001               	movlw	1
  6802     179E  00DB               	movwf	??___fldiv+4
  6803     179F                     u2795:
  6804     179F  0D5A               	rlf	??___fldiv+3,w
  6805     17A0  0CDA               	rrf	??___fldiv+3,f
  6806     17A1  0CD9               	rrf	??___fldiv+2,f
  6807     17A2  0CD8               	rrf	??___fldiv+1,f
  6808     17A3  0CD7               	rrf	??___fldiv,f
  6809     17A4                     u2790:
  6810     17A4  0BDB               	decfsz	??___fldiv+4,f
  6811     17A5  2F9F               	goto	u2795
  6812     17A6  085A               	movf	??___fldiv+3,w
  6813     17A7  00D6               	movwf	___fldiv@b+3
  6814     17A8  0859               	movf	??___fldiv+2,w
  6815     17A9  00D5               	movwf	___fldiv@b+2
  6816     17AA  0858               	movf	??___fldiv+1,w
  6817     17AB  00D4               	movwf	___fldiv@b+1
  6818     17AC  0857               	movf	??___fldiv,w
  6819     17AD  00D3               	movwf	___fldiv@b
  6820     17AE                     l2301:
  6821     17AE  3001               	movlw	1
  6822     17AF  07E1               	addwf	___fldiv@new_exp,f
  6823     17B0  1803               	skipnc
  6824     17B1  0AE2               	incf	___fldiv@new_exp+1,f
  6825     17B2  3000               	movlw	0
  6826     17B3  07E2               	addwf	___fldiv@new_exp+1,f
  6827     17B4                     l2303:
  6828     17B4  0862               	movf	___fldiv@new_exp+1,w
  6829     17B5  3A80               	xorlw	128
  6830     17B6  00FF               	movwf	btemp+1
  6831     17B7  3080               	movlw	128
  6832     17B8  027F               	subwf	btemp+1,w
  6833     17B9  1D03               	skipz
  6834     17BA  2FBD               	goto	u2805
  6835     17BB  30FF               	movlw	255
  6836     17BC  0261               	subwf	___fldiv@new_exp,w
  6837     17BD                     u2805:
  6838     17BD  1C03               	skipc
  6839     17BE  2FC0               	goto	u2801
  6840     17BF  2FC1               	goto	u2800
  6841     17C0                     u2801:
  6842     17C0  2FCF               	goto	l2307
  6843     17C1                     u2800:
  6844     17C1                     l2305:
  6845     17C1  30FF               	movlw	255
  6846     17C2  1283               	bcf	3,5	;RP0=0, select bank0
  6847     17C3  1303               	bcf	3,6	;RP1=0, select bank0
  6848     17C4  00E1               	movwf	___fldiv@new_exp
  6849     17C5  3000               	movlw	0
  6850     17C6  00E2               	movwf	___fldiv@new_exp+1
  6851     17C7  3000               	movlw	0
  6852     17C8  00D6               	movwf	___fldiv@b+3
  6853     17C9  3000               	movlw	0
  6854     17CA  00D5               	movwf	___fldiv@b+2
  6855     17CB  3000               	movlw	0
  6856     17CC  00D4               	movwf	___fldiv@b+1
  6857     17CD  3000               	movlw	0
  6858     17CE  00D3               	movwf	___fldiv@b
  6859     17CF                     l2307:
  6860     17CF  1283               	bcf	3,5	;RP0=0, select bank0
  6861     17D0  1303               	bcf	3,6	;RP1=0, select bank0
  6862     17D1  0862               	movf	___fldiv@new_exp+1,w
  6863     17D2  3A80               	xorlw	128
  6864     17D3  00FF               	movwf	btemp+1
  6865     17D4  3080               	movlw	128
  6866     17D5  027F               	subwf	btemp+1,w
  6867     17D6  1D03               	skipz
  6868     17D7  2FDA               	goto	u2815
  6869     17D8  3001               	movlw	1
  6870     17D9  0261               	subwf	___fldiv@new_exp,w
  6871     17DA                     u2815:
  6872     17DA  1803               	skipnc
  6873     17DB  2FDD               	goto	u2811
  6874     17DC  2FDE               	goto	u2810
  6875     17DD                     u2811:
  6876     17DD  2FEB               	goto	l566
  6877     17DE                     u2810:
  6878     17DE                     l2309:
  6879     17DE  1283               	bcf	3,5	;RP0=0, select bank0
  6880     17DF  1303               	bcf	3,6	;RP1=0, select bank0
  6881     17E0  01E1               	clrf	___fldiv@new_exp
  6882     17E1  01E2               	clrf	___fldiv@new_exp+1
  6883     17E2                     l2311:
  6884     17E2  3000               	movlw	0
  6885     17E3  00D6               	movwf	___fldiv@b+3
  6886     17E4  3000               	movlw	0
  6887     17E5  00D5               	movwf	___fldiv@b+2
  6888     17E6  3000               	movlw	0
  6889     17E7  00D4               	movwf	___fldiv@b+1
  6890     17E8  3000               	movlw	0
  6891     17E9  00D3               	movwf	___fldiv@b
  6892     17EA                     l2313:
  6893     17EA  01E0               	clrf	___fldiv@sign
  6894     17EB                     l566:
  6895     17EB  1283               	bcf	3,5	;RP0=0, select bank0
  6896     17EC  1303               	bcf	3,6	;RP1=0, select bank0
  6897     17ED  0861               	movf	___fldiv@new_exp,w
  6898     17EE  00E7               	movwf	___fldiv@bexp
  6899     17EF                     l2315:
  6900     17EF  1C67               	btfss	___fldiv@bexp,0
  6901     17F0  2FF2               	goto	u2821
  6902     17F1  2FF3               	goto	u2820
  6903     17F2                     u2821:
  6904     17F2  2FF5               	goto	l2319
  6905     17F3                     u2820:
  6906     17F3                     l2317:
  6907     17F3  17D5               	bsf	___fldiv@b+2,7
  6908     17F4  2FF9               	goto	l2321
  6909     17F5                     l2319:
  6910     17F5  307F               	movlw	127
  6911     17F6  00FF               	movwf	btemp+1
  6912     17F7  087F               	movf	btemp+1,w
  6913     17F8  05D5               	andwf	___fldiv@b+2,f
  6914     17F9                     l2321:
  6915     17F9  0867               	movf	___fldiv@bexp,w
  6916     17FA  00D7               	movwf	??___fldiv
  6917     17FB  1003               	clrc
  6918     17FC  0C57               	rrf	??___fldiv,w
  6919     17FD  00D6               	movwf	___fldiv@b+3
  6920     17FE  2E9B               	goto	l2225
  6921     17FF                     l546:
  6922     17FF  0008               	return
  6923     1800                     __end_of___fldiv:
  6924                           
  6925                           	psect	text15
  6926     0808                     __ptext15:	
  6927 ;; *************** function ___awdiv *****************
  6928 ;; Defined at:
  6929 ;;		line 5 in file "C:\Program Files\Microchip\xc8\v2.41\pic\sources\c90\common\awdiv.c"
  6930 ;; Parameters:    Size  Location     Type
  6931 ;;  divisor         2    0[COMMON] int 
  6932 ;;  dividend        2    2[COMMON] int 
  6933 ;; Auto vars:     Size  Location     Type
  6934 ;;  quotient        2    6[COMMON] int 
  6935 ;;  sign            1    5[COMMON] unsigned char 
  6936 ;;  counter         1    4[COMMON] unsigned char 
  6937 ;; Return value:  Size  Location     Type
  6938 ;;                  2    0[COMMON] int 
  6939 ;; Registers used:
  6940 ;;		wreg, status,2, status,0, btemp+1
  6941 ;; Tracked objects:
  6942 ;;		On entry : 0/0
  6943 ;;		On exit  : 0/0
  6944 ;;		Unchanged: 0/0
  6945 ;; Data sizes:     COMMON   BANK0   BANK1   BANK3   BANK2
  6946 ;;      Params:         4       0       0       0       0
  6947 ;;      Locals:         4       0       0       0       0
  6948 ;;      Temps:          0       0       0       0       0
  6949 ;;      Totals:         8       0       0       0       0
  6950 ;;Total ram usage:        8 bytes
  6951 ;; Hardware stack levels used: 1
  6952 ;; This function calls:
  6953 ;;		Nothing
  6954 ;; This function is called by:
  6955 ;;		_float_LCD
  6956 ;; This function uses a non-reentrant model
  6957 ;;
  6958                           
  6959     0808                     ___awdiv:	
  6960                           ;psect for function ___awdiv
  6961                           
  6962     0808                     l2095:	
  6963                           ;incstack = 0
  6964                           ; Regs used in ___awdiv: [wreg+status,2+status,0+btemp+1]
  6965                           
  6966     0808  01F5               	clrf	___awdiv@sign
  6967     0809                     l2097:
  6968     0809  1FF1               	btfss	___awdiv@divisor+1,7
  6969     080A  280C               	goto	u2341
  6970     080B  280D               	goto	u2340
  6971     080C                     u2341:
  6972     080C  2814               	goto	l2103
  6973     080D                     u2340:
  6974     080D                     l2099:
  6975     080D  09F0               	comf	___awdiv@divisor,f
  6976     080E  09F1               	comf	___awdiv@divisor+1,f
  6977     080F  0AF0               	incf	___awdiv@divisor,f
  6978     0810  1903               	skipnz
  6979     0811  0AF1               	incf	___awdiv@divisor+1,f
  6980     0812                     l2101:
  6981     0812  01F5               	clrf	___awdiv@sign
  6982     0813  0AF5               	incf	___awdiv@sign,f
  6983     0814                     l2103:
  6984     0814  1FF3               	btfss	___awdiv@dividend+1,7
  6985     0815  2817               	goto	u2351
  6986     0816  2818               	goto	u2350
  6987     0817                     u2351:
  6988     0817  2821               	goto	l2109
  6989     0818                     u2350:
  6990     0818                     l2105:
  6991     0818  09F2               	comf	___awdiv@dividend,f
  6992     0819  09F3               	comf	___awdiv@dividend+1,f
  6993     081A  0AF2               	incf	___awdiv@dividend,f
  6994     081B  1903               	skipnz
  6995     081C  0AF3               	incf	___awdiv@dividend+1,f
  6996     081D                     l2107:
  6997     081D  3001               	movlw	1
  6998     081E  00FF               	movwf	btemp+1
  6999     081F  087F               	movf	btemp+1,w
  7000     0820  06F5               	xorwf	___awdiv@sign,f
  7001     0821                     l2109:
  7002     0821  01F6               	clrf	___awdiv@quotient
  7003     0822  01F7               	clrf	___awdiv@quotient+1
  7004     0823                     l2111:
  7005     0823  0870               	movf	___awdiv@divisor,w
  7006     0824  0471               	iorwf	___awdiv@divisor+1,w
  7007     0825  1903               	btfsc	3,2
  7008     0826  2828               	goto	u2361
  7009     0827  2829               	goto	u2360
  7010     0828                     u2361:
  7011     0828  2860               	goto	l2131
  7012     0829                     u2360:
  7013     0829                     l2113:
  7014     0829  01F4               	clrf	___awdiv@counter
  7015     082A  0AF4               	incf	___awdiv@counter,f
  7016     082B  2837               	goto	l2119
  7017     082C                     l2115:
  7018     082C  3001               	movlw	1
  7019     082D                     u2375:
  7020     082D  1003               	clrc
  7021     082E  0DF0               	rlf	___awdiv@divisor,f
  7022     082F  0DF1               	rlf	___awdiv@divisor+1,f
  7023     0830  3EFF               	addlw	-1
  7024     0831  1D03               	skipz
  7025     0832  282D               	goto	u2375
  7026     0833                     l2117:
  7027     0833  3001               	movlw	1
  7028     0834  00FF               	movwf	btemp+1
  7029     0835  087F               	movf	btemp+1,w
  7030     0836  07F4               	addwf	___awdiv@counter,f
  7031     0837                     l2119:
  7032     0837  1FF1               	btfss	___awdiv@divisor+1,7
  7033     0838  283A               	goto	u2381
  7034     0839  283B               	goto	u2380
  7035     083A                     u2381:
  7036     083A  282C               	goto	l2115
  7037     083B                     u2380:
  7038     083B                     l2121:
  7039     083B  3001               	movlw	1
  7040     083C                     u2395:
  7041     083C  1003               	clrc
  7042     083D  0DF6               	rlf	___awdiv@quotient,f
  7043     083E  0DF7               	rlf	___awdiv@quotient+1,f
  7044     083F  3EFF               	addlw	-1
  7045     0840  1D03               	skipz
  7046     0841  283C               	goto	u2395
  7047     0842  0871               	movf	___awdiv@divisor+1,w
  7048     0843  0273               	subwf	___awdiv@dividend+1,w
  7049     0844  1D03               	skipz
  7050     0845  2848               	goto	u2405
  7051     0846  0870               	movf	___awdiv@divisor,w
  7052     0847  0272               	subwf	___awdiv@dividend,w
  7053     0848                     u2405:
  7054     0848  1C03               	skipc
  7055     0849  284B               	goto	u2401
  7056     084A  284C               	goto	u2400
  7057     084B                     u2401:
  7058     084B  2853               	goto	l2127
  7059     084C                     u2400:
  7060     084C                     l2123:
  7061     084C  0870               	movf	___awdiv@divisor,w
  7062     084D  02F2               	subwf	___awdiv@dividend,f
  7063     084E  0871               	movf	___awdiv@divisor+1,w
  7064     084F  1C03               	skipc
  7065     0850  03F3               	decf	___awdiv@dividend+1,f
  7066     0851  02F3               	subwf	___awdiv@dividend+1,f
  7067     0852                     l2125:
  7068     0852  1476               	bsf	___awdiv@quotient,0
  7069     0853                     l2127:
  7070     0853  3001               	movlw	1
  7071     0854                     u2415:
  7072     0854  1003               	clrc
  7073     0855  0CF1               	rrf	___awdiv@divisor+1,f
  7074     0856  0CF0               	rrf	___awdiv@divisor,f
  7075     0857  3EFF               	addlw	-1
  7076     0858  1D03               	skipz
  7077     0859  2854               	goto	u2415
  7078     085A                     l2129:
  7079     085A  3001               	movlw	1
  7080     085B  02F4               	subwf	___awdiv@counter,f
  7081     085C  1D03               	btfss	3,2
  7082     085D  285F               	goto	u2421
  7083     085E  2860               	goto	u2420
  7084     085F                     u2421:
  7085     085F  283B               	goto	l2121
  7086     0860                     u2420:
  7087     0860                     l2131:
  7088     0860  0875               	movf	___awdiv@sign,w
  7089     0861  1903               	btfsc	3,2
  7090     0862  2864               	goto	u2431
  7091     0863  2865               	goto	u2430
  7092     0864                     u2431:
  7093     0864  286A               	goto	l2135
  7094     0865                     u2430:
  7095     0865                     l2133:
  7096     0865  09F6               	comf	___awdiv@quotient,f
  7097     0866  09F7               	comf	___awdiv@quotient+1,f
  7098     0867  0AF6               	incf	___awdiv@quotient,f
  7099     0868  1903               	skipnz
  7100     0869  0AF7               	incf	___awdiv@quotient+1,f
  7101     086A                     l2135:
  7102     086A  0877               	movf	___awdiv@quotient+1,w
  7103     086B  00F1               	movwf	?___awdiv+1
  7104     086C  0876               	movf	___awdiv@quotient,w
  7105     086D  00F0               	movwf	?___awdiv
  7106     086E                     l348:
  7107     086E  0008               	return
  7108     086F                     __end_of___awdiv:
  7109                           
  7110                           	psect	text16
  7111     000A                     __ptext16:	
  7112 ;; *************** function _ADC_Read_1 *****************
  7113 ;; Defined at:
  7114 ;;		line 173 in file "main_scale.c"
  7115 ;; Parameters:    Size  Location     Type
  7116 ;;  adcChannel      2    2[COMMON] int 
  7117 ;; Auto vars:     Size  Location     Type
  7118 ;;		None
  7119 ;; Return value:  Size  Location     Type
  7120 ;;                  2    2[COMMON] int 
  7121 ;; Registers used:
  7122 ;;		wreg, status,2, status,0, pclath, cstack
  7123 ;; Tracked objects:
  7124 ;;		On entry : 0/0
  7125 ;;		On exit  : 0/0
  7126 ;;		Unchanged: 0/0
  7127 ;; Data sizes:     COMMON   BANK0   BANK1   BANK3   BANK2
  7128 ;;      Params:         2       0       0       0       0
  7129 ;;      Locals:         0       0       0       0       0
  7130 ;;      Temps:          0       0       0       0       0
  7131 ;;      Totals:         2       0       0       0       0
  7132 ;;Total ram usage:        2 bytes
  7133 ;; Hardware stack levels used: 1
  7134 ;; Hardware stack levels required when called: 1
  7135 ;; This function calls:
  7136 ;;		_delay
  7137 ;; This function is called by:
  7138 ;;		_main
  7139 ;; This function uses a non-reentrant model
  7140 ;;
  7141                           
  7142     000A                     _ADC_Read_1:	
  7143                           ;psect for function _ADC_Read_1
  7144                           
  7145     000A                     l2577:	
  7146                           ;incstack = 0
  7147                           ; Regs used in _ADC_Read_1: [wreg+status,2+status,0+pclath+cstack]
  7148                           
  7149                           
  7150                           ;main_scale.c: 173: int ADC_Read_1(int adcChannel);main_scale.c: 174:  {;main_scale.c: 1
      +                          75:     ADCON0 = 0x09;
  7151     000A  3009               	movlw	9
  7152     000B  1283               	bcf	3,5	;RP0=0, select bank0
  7153     000C  1303               	bcf	3,6	;RP1=0, select bank0
  7154     000D  009F               	movwf	31	;volatile
  7155     000E                     l2579:
  7156                           
  7157                           ;main_scale.c: 180:     delay(1000);
  7158     000E  30E8               	movlw	232
  7159     000F  00F0               	movwf	delay@cnt
  7160     0010  3003               	movlw	3
  7161     0011  00F1               	movwf	delay@cnt+1
  7162     0012  160A  118A  244D  120A  118A  	fcall	_delay
  7163     0017                     l2581:
  7164                           
  7165                           ;main_scale.c: 182:     GO=1;
  7166     0017  1283               	bcf	3,5	;RP0=0, select bank0
  7167     0018  1303               	bcf	3,6	;RP1=0, select bank0
  7168     0019  151F               	bsf	31,2	;volatile
  7169     001A                     l95:	
  7170                           ;main_scale.c: 183:     while(GO_DONE==1);
  7171                           
  7172     001A  191F               	btfsc	31,2	;volatile
  7173     001B  281D               	goto	u3411
  7174     001C  281E               	goto	u3410
  7175     001D                     u3411:
  7176     001D  281A               	goto	l95
  7177     001E                     u3410:
  7178     001E                     l2583:
  7179                           
  7180                           ;main_scale.c: 186:     return((ADRESH<<8) + ADRESL);
  7181     001E  081E               	movf	30,w	;volatile
  7182     001F  00F3               	movwf	?_ADC_Read_1+1
  7183     0020  1683               	bsf	3,5	;RP0=1, select bank1
  7184     0021  1303               	bcf	3,6	;RP1=0, select bank1
  7185     0022  081E               	movf	30,w	;volatile
  7186     0023  00F2               	movwf	?_ADC_Read_1
  7187     0024                     l98:
  7188     0024  0008               	return
  7189     0025                     __end_of_ADC_Read_1:
  7190                           
  7191                           	psect	text17
  7192     1510                     __ptext17:	
  7193 ;; *************** function _ADC_Read *****************
  7194 ;; Defined at:
  7195 ;;		line 158 in file "main_scale.c"
  7196 ;; Parameters:    Size  Location     Type
  7197 ;;  adcChannel      2    2[COMMON] int 
  7198 ;; Auto vars:     Size  Location     Type
  7199 ;;		None
  7200 ;; Return value:  Size  Location     Type
  7201 ;;                  2    2[COMMON] int 
  7202 ;; Registers used:
  7203 ;;		wreg, status,2, status,0, btemp+1, pclath, cstack
  7204 ;; Tracked objects:
  7205 ;;		On entry : 0/0
  7206 ;;		On exit  : 0/0
  7207 ;;		Unchanged: 0/0
  7208 ;; Data sizes:     COMMON   BANK0   BANK1   BANK3   BANK2
  7209 ;;      Params:         2       0       0       0       0
  7210 ;;      Locals:         0       0       0       0       0
  7211 ;;      Temps:          0       0       0       0       0
  7212 ;;      Totals:         2       0       0       0       0
  7213 ;;Total ram usage:        2 bytes
  7214 ;; Hardware stack levels used: 1
  7215 ;; Hardware stack levels required when called: 1
  7216 ;; This function calls:
  7217 ;;		_delay
  7218 ;; This function is called by:
  7219 ;;		_main
  7220 ;; This function uses a non-reentrant model
  7221 ;;
  7222                           
  7223     1510                     _ADC_Read:	
  7224                           ;psect for function _ADC_Read
  7225                           
  7226     1510                     l2567:	
  7227                           ;incstack = 0
  7228                           ; Regs used in _ADC_Read: [wreg+status,2+status,0+btemp+1+pclath+cstack]
  7229                           
  7230                           
  7231                           ;main_scale.c: 158: int ADC_Read(int adcChannel);main_scale.c: 159:  {;main_scale.c: 160
      +                          :     ADCON0 = (1<<0) | (adcChannel<3);
  7232     1510  0873               	movf	ADC_Read@adcChannel+1,w
  7233     1511  3A80               	xorlw	128
  7234     1512  00FF               	movwf	btemp+1
  7235     1513  3080               	movlw	128
  7236     1514  027F               	subwf	btemp+1,w
  7237     1515  1D03               	skipz
  7238     1516  2D19               	goto	u3385
  7239     1517  3003               	movlw	3
  7240     1518  0272               	subwf	ADC_Read@adcChannel,w
  7241     1519                     u3385:
  7242     1519  1C03               	skipc
  7243     151A  2D1C               	goto	u3381
  7244     151B  2D1E               	goto	u3380
  7245     151C                     u3381:
  7246     151C  3001               	movlw	1
  7247     151D  2D1F               	goto	u3390
  7248     151E                     u3380:
  7249     151E  3000               	movlw	0
  7250     151F                     u3390:
  7251     151F  3801               	iorlw	1
  7252     1520  1283               	bcf	3,5	;RP0=0, select bank0
  7253     1521  1303               	bcf	3,6	;RP1=0, select bank0
  7254     1522  009F               	movwf	31	;volatile
  7255     1523                     l2569:
  7256                           
  7257                           ;main_scale.c: 165:     delay(1000);
  7258     1523  30E8               	movlw	232
  7259     1524  00F0               	movwf	delay@cnt
  7260     1525  3003               	movlw	3
  7261     1526  00F1               	movwf	delay@cnt+1
  7262     1527  160A  118A  244D  160A  118A  	fcall	_delay
  7263     152C                     l2571:
  7264                           
  7265                           ;main_scale.c: 167:     GO=1;
  7266     152C  1283               	bcf	3,5	;RP0=0, select bank0
  7267     152D  1303               	bcf	3,6	;RP1=0, select bank0
  7268     152E  151F               	bsf	31,2	;volatile
  7269     152F                     l89:	
  7270                           ;main_scale.c: 168:     while(GO_DONE==1);
  7271                           
  7272     152F  191F               	btfsc	31,2	;volatile
  7273     1530  2D32               	goto	u3401
  7274     1531  2D33               	goto	u3400
  7275     1532                     u3401:
  7276     1532  2D2F               	goto	l89
  7277     1533                     u3400:
  7278     1533                     l2573:
  7279                           
  7280                           ;main_scale.c: 171:     return((ADRESH<<8) + ADRESL);
  7281     1533  081E               	movf	30,w	;volatile
  7282     1534  00F3               	movwf	?_ADC_Read+1
  7283     1535  1683               	bsf	3,5	;RP0=1, select bank1
  7284     1536  1303               	bcf	3,6	;RP1=0, select bank1
  7285     1537  081E               	movf	30,w	;volatile
  7286     1538  00F2               	movwf	?_ADC_Read
  7287     1539                     l92:
  7288     1539  0008               	return
  7289     153A                     __end_of_ADC_Read:
  7290                           
  7291                           	psect	text18
  7292     144D                     __ptext18:	
  7293 ;; *************** function _delay *****************
  7294 ;; Defined at:
  7295 ;;		line 107 in file "main_scale.c"
  7296 ;; Parameters:    Size  Location     Type
  7297 ;;  cnt             2    0[COMMON] int 
  7298 ;; Auto vars:     Size  Location     Type
  7299 ;;		None
  7300 ;; Return value:  Size  Location     Type
  7301 ;;                  1    wreg      void 
  7302 ;; Registers used:
  7303 ;;		wreg, status,2, status,0
  7304 ;; Tracked objects:
  7305 ;;		On entry : 0/0
  7306 ;;		On exit  : 0/0
  7307 ;;		Unchanged: 0/0
  7308 ;; Data sizes:     COMMON   BANK0   BANK1   BANK3   BANK2
  7309 ;;      Params:         2       0       0       0       0
  7310 ;;      Locals:         0       0       0       0       0
  7311 ;;      Temps:          0       0       0       0       0
  7312 ;;      Totals:         2       0       0       0       0
  7313 ;;Total ram usage:        2 bytes
  7314 ;; Hardware stack levels used: 1
  7315 ;; This function calls:
  7316 ;;		Nothing
  7317 ;; This function is called by:
  7318 ;;		_cmd
  7319 ;;		_dat
  7320 ;;		_ADC_Read
  7321 ;;		_ADC_Read_1
  7322 ;; This function uses a non-reentrant model
  7323 ;;
  7324                           
  7325     144D                     _delay:	
  7326                           ;psect for function _delay
  7327                           
  7328     144D                     l1779:	
  7329                           ;incstack = 0
  7330                           ; Regs used in _delay: [wreg+status,2+status,0]
  7331                           
  7332     144D                     l1781:	
  7333                           ;main_scale.c: 107: void delay(int cnt);main_scale.c: 108: {;main_scale.c: 109:     whil
      +                          e(cnt--);
  7334                           
  7335     144D  30FF               	movlw	255
  7336     144E  07F0               	addwf	delay@cnt,f
  7337     144F  1803               	skipnc
  7338     1450  0AF1               	incf	delay@cnt+1,f
  7339     1451  30FF               	movlw	255
  7340     1452  07F1               	addwf	delay@cnt+1,f
  7341     1453  0A70               	incf	delay@cnt,w
  7342     1454  1D03               	skipz
  7343     1455  2C5A               	goto	u1831
  7344     1456  0A71               	incf	delay@cnt+1,w
  7345     1457  1D03               	btfss	3,2
  7346     1458  2C5A               	goto	u1831
  7347     1459  2C5B               	goto	u1830
  7348     145A                     u1831:
  7349     145A  2C4D               	goto	l1781
  7350     145B                     u1830:
  7351     145B                     l65:
  7352     145B  0008               	return
  7353     145C                     __end_of_delay:
  7354                           
  7355                           	psect	text19
  7356     1444                     __ptext19:	
  7357 ;; *************** function _ADC_Init_CH1 *****************
  7358 ;; Defined at:
  7359 ;;		line 151 in file "main_scale.c"
  7360 ;; Parameters:    Size  Location     Type
  7361 ;;		None
  7362 ;; Auto vars:     Size  Location     Type
  7363 ;;		None
  7364 ;; Return value:  Size  Location     Type
  7365 ;;                  1    wreg      void 
  7366 ;; Registers used:
  7367 ;;		wreg
  7368 ;; Tracked objects:
  7369 ;;		On entry : 0/0
  7370 ;;		On exit  : 0/0
  7371 ;;		Unchanged: 0/0
  7372 ;; Data sizes:     COMMON   BANK0   BANK1   BANK3   BANK2
  7373 ;;      Params:         0       0       0       0       0
  7374 ;;      Locals:         0       0       0       0       0
  7375 ;;      Temps:          0       0       0       0       0
  7376 ;;      Totals:         0       0       0       0       0
  7377 ;;Total ram usage:        0 bytes
  7378 ;; Hardware stack levels used: 1
  7379 ;; This function calls:
  7380 ;;		Nothing
  7381 ;; This function is called by:
  7382 ;;		_main
  7383 ;; This function uses a non-reentrant model
  7384 ;;
  7385                           
  7386     1444                     _ADC_Init_CH1:	
  7387                           ;psect for function _ADC_Init_CH1
  7388                           
  7389     1444                     l2565:	
  7390                           ;incstack = 0
  7391                           ; Regs used in _ADC_Init_CH1: [wreg]
  7392                           
  7393                           
  7394                           ;main_scale.c: 153:    ADCON0=0x08;
  7395     1444  3008               	movlw	8
  7396     1445  1283               	bcf	3,5	;RP0=0, select bank0
  7397     1446  1303               	bcf	3,6	;RP1=0, select bank0
  7398     1447  009F               	movwf	31	;volatile
  7399                           
  7400                           ;main_scale.c: 154:    ADCON1=(1<<7);
  7401     1448  3080               	movlw	128
  7402     1449  1683               	bsf	3,5	;RP0=1, select bank1
  7403     144A  1303               	bcf	3,6	;RP1=0, select bank1
  7404     144B  009F               	movwf	31	;volatile
  7405     144C                     l86:
  7406     144C  0008               	return
  7407     144D                     __end_of_ADC_Init_CH1:
  7408                           
  7409                           	psect	text20
  7410     0800                     __ptext20:	
  7411 ;; *************** function _ADC_Init_CH0 *****************
  7412 ;; Defined at:
  7413 ;;		line 146 in file "main_scale.c"
  7414 ;; Parameters:    Size  Location     Type
  7415 ;;		None
  7416 ;; Auto vars:     Size  Location     Type
  7417 ;;		None
  7418 ;; Return value:  Size  Location     Type
  7419 ;;                  1    wreg      void 
  7420 ;; Registers used:
  7421 ;;		wreg, status,2
  7422 ;; Tracked objects:
  7423 ;;		On entry : 0/0
  7424 ;;		On exit  : 0/0
  7425 ;;		Unchanged: 0/0
  7426 ;; Data sizes:     COMMON   BANK0   BANK1   BANK3   BANK2
  7427 ;;      Params:         0       0       0       0       0
  7428 ;;      Locals:         0       0       0       0       0
  7429 ;;      Temps:          0       0       0       0       0
  7430 ;;      Totals:         0       0       0       0       0
  7431 ;;Total ram usage:        0 bytes
  7432 ;; Hardware stack levels used: 1
  7433 ;; This function calls:
  7434 ;;		Nothing
  7435 ;; This function is called by:
  7436 ;;		_main
  7437 ;; This function uses a non-reentrant model
  7438 ;;
  7439                           
  7440     0800                     _ADC_Init_CH0:	
  7441                           ;psect for function _ADC_Init_CH0
  7442                           
  7443     0800                     l2561:	
  7444                           ;incstack = 0
  7445                           ; Regs used in _ADC_Init_CH0: [wreg+status,2]
  7446                           
  7447                           
  7448                           ;main_scale.c: 148:    ADCON0=0x00;
  7449     0800  1283               	bcf	3,5	;RP0=0, select bank0
  7450     0801  1303               	bcf	3,6	;RP1=0, select bank0
  7451     0802  019F               	clrf	31	;volatile
  7452     0803                     l2563:
  7453                           
  7454                           ;main_scale.c: 149:    ADCON1=(1<<7);
  7455     0803  3080               	movlw	128
  7456     0804  1683               	bsf	3,5	;RP0=1, select bank1
  7457     0805  1303               	bcf	3,6	;RP1=0, select bank1
  7458     0806  009F               	movwf	31	;volatile
  7459     0807                     l83:
  7460     0807  0008               	return
  7461     0808                     __end_of_ADC_Init_CH0:
  7462     007E                     btemp	set	126	;btemp
  7463     007E                     wtemp0	set	126
  7464                           
  7465                           	psect	config
  7466                           
  7467                           ;Config register CONFIG @ 0x2007
  7468                           ;	Oscillator Selection bits
  7469                           ;	FOSC = XT, XT oscillator
  7470                           ;	Watchdog Timer Enable bit
  7471                           ;	WDTE = OFF, WDT disabled
  7472                           ;	Power-up Timer Enable bit
  7473                           ;	PWRTE = ON, PWRT enabled
  7474                           ;	Brown-out Reset Enable bit
  7475                           ;	BOREN = OFF, BOR disabled
  7476                           ;	Low-Voltage (Single-Supply) In-Circuit Serial Programming Enable bit
  7477                           ;	LVP = OFF, RB3 is digital I/O, HV on MCLR must be used for programming
  7478                           ;	Data EEPROM Memory Code Protection bit
  7479                           ;	CPD = OFF, Data EEPROM code protection off
  7480                           ;	Flash Program Memory Write Enable bits
  7481                           ;	WRT = OFF, Write protection off; all program memory may be written to by EECON control
  7482                           ;	In-Circuit Debugger Mode bit
  7483                           ;	DEBUG = 0x1, unprogrammed default
  7484                           ;	Flash Program Memory Code Protection bit
  7485                           ;	CP = OFF, Code protection off
  7486     2007                     	org	8199
  7487     2007  3F31               	dw	16177

Data Sizes:
    Strings     21
    Constant    0
    Data        0
    BSS         17
    Persistent  0
    Stack       0

Auto Spaces:
    Space          Size  Autos    Used
    COMMON           14     14      14
    BANK0            80     80      80
    BANK1            80     75      77
    BANK3            96      0      15
    BANK2            96      0       0

Pointer List with Targets:

    show@s	PTR unsigned char  size(2) Largest target is 15
		 -> STR_5(CODE[8]), STR_4(CODE[8]), STR_3(CODE[8]), STR_2(CODE[8]), 
		 -> STR_1(CODE[5]), cadena(BANK3[15]), 


Critical Paths under _main in COMMON

    _main->___xxtofl
    _show->_dat
    _dat->_delay
    _lcd_init->_cmd
    _cmd->_delay
    _float_LCD->___xxtofl
    ___fltol->___xxtofl
    ___flsub->___xxtofl
    ___fladd->___xxtofl
    ___flmul->___xxtofl
    ___fldiv->___xxtofl
    _ADC_Read_1->_delay
    _ADC_Read->_delay

Critical Paths under _main in BANK0

    _float_LCD->___fltol
    ___fltol->___fldiv
    ___flsub->___fladd
    ___fladd->___fldiv
    ___flmul->_sqrt
    ___fldiv->___flmul

Critical Paths under _main in BANK1

    _main->_float_LCD
    _float_LCD->___flsub
    ___flsub->___fladd

Critical Paths under _main in BANK3

    None.

Critical Paths under _main in BANK2

    None.

Call Graph Tables:

 ---------------------------------------------------------------------------------
 (Depth) Function   	        Calls       Base Space   Used Autos Params    Refs
 ---------------------------------------------------------------------------------
 (0) _main                                                43    43      0   25525
                                             79 BANK0      1     1      0
                                             35 BANK1     40    40      0
                       _ADC_Init_CH0
                       _ADC_Init_CH1
                           _ADC_Read
                         _ADC_Read_1
                            ___fladd
                            ___fldiv
                            ___flmul
                           ___xxtofl
                                _cmd
                          _float_LCD
                           _lcd_init
                               _show
                               _sqrt
 ---------------------------------------------------------------------------------
 (1) _sqrt                                                29    25      4    1033
                                              0 COMMON     8     4      4
                                              0 BANK0     21    21      0
 ---------------------------------------------------------------------------------
 (1) _show                                                 2     0      2    1077
                                              3 COMMON     2     0      2
                                _dat
 ---------------------------------------------------------------------------------
 (2) _dat                                                  1     1      0     348
                                              2 COMMON     1     1      0
                              _delay
 ---------------------------------------------------------------------------------
 (1) _lcd_init                                             0     0      0     348
                                _cmd
 ---------------------------------------------------------------------------------
 (2) _cmd                                                  1     1      0     348
                                              2 COMMON     1     1      0
                              _delay
 ---------------------------------------------------------------------------------
 (1) _float_LCD                                           11     7      4   11493
                                             24 BANK1     11     7      4
                            ___awdiv
                            ___fldiv
                            ___flmul
                            ___flsub
                            ___fltol
                           ___xxtofl
                              _num_s
 ---------------------------------------------------------------------------------
 (2) _num_s                                                3     0      3     196
                                              0 COMMON     3     0      3
 ---------------------------------------------------------------------------------
 (2) ___xxtofl                                            14    10      4     702
                                              0 COMMON    14    10      4
 ---------------------------------------------------------------------------------
 (2) ___fltol                                             10     6      4     305
                                             73 BANK0      6     2      4
                                              0 BANK1      4     4      0
                            ___fldiv (ARG)
                           ___xxtofl (ARG)
 ---------------------------------------------------------------------------------
 (2) ___flsub                                              8     0      8    3245
                                             16 BANK1      8     0      8
                            ___fladd
                            ___flmul (ARG)
                           ___xxtofl (ARG)
 ---------------------------------------------------------------------------------
 (3) ___fladd                                             20    12      8    3048
                                             73 BANK0      4     4      0
                                              0 BANK1     16     8      8
                            ___fldiv (ARG)
                            ___flmul (ARG)
                           ___xxtofl (ARG)
 ---------------------------------------------------------------------------------
 (2) ___flmul                                             26    18      8    4089
                                             21 BANK0     26    18      8
                          __Umul8_16
                           ___xxtofl (ARG)
                               _sqrt (ARG)
 ---------------------------------------------------------------------------------
 (3) __Umul8_16                                            9     7      2     799
                                              0 COMMON     9     7      2
 ---------------------------------------------------------------------------------
 (2) ___fldiv                                             26    18      8    1881
                                             47 BANK0     26    18      8
                            ___flmul (ARG)
                           ___xxtofl (ARG)
 ---------------------------------------------------------------------------------
 (2) ___awdiv                                              8     4      4     452
                                              0 COMMON     8     4      4
 ---------------------------------------------------------------------------------
 (1) _ADC_Read_1                                           2     0      2     402
                                              2 COMMON     2     0      2
                              _delay
 ---------------------------------------------------------------------------------
 (1) _ADC_Read                                             2     0      2     424
                                              2 COMMON     2     0      2
                              _delay
 ---------------------------------------------------------------------------------
 (3) _delay                                                2     0      2     326
                                              0 COMMON     2     0      2
 ---------------------------------------------------------------------------------
 (1) _ADC_Init_CH1                                         0     0      0       0
 ---------------------------------------------------------------------------------
 (1) _ADC_Init_CH0                                         0     0      0       0
 ---------------------------------------------------------------------------------
 Estimated maximum stack depth 3
 ---------------------------------------------------------------------------------

 Call Graph Graphs:

 _main (ROOT)
   _ADC_Init_CH0
   _ADC_Init_CH1
   _ADC_Read
     _delay
   _ADC_Read_1
     _delay
   ___fladd
     ___fldiv (ARG)
       ___flmul (ARG)
         __Umul8_16
         ___xxtofl (ARG)
         _sqrt (ARG)
       ___xxtofl (ARG)
     ___flmul (ARG)
     ___xxtofl (ARG)
   ___fldiv
   ___flmul
   ___xxtofl
   _cmd
     _delay
   _float_LCD
     ___awdiv
     ___fldiv
     ___flmul
     ___flsub
       ___fladd
       ___flmul (ARG)
       ___xxtofl (ARG)
     ___fltol
       ___fldiv (ARG)
       ___xxtofl (ARG)
     ___xxtofl
     _num_s
   _lcd_init
     _cmd
   _show
     _dat
       _delay
   _sqrt

 Address spaces:
Name               Size   Autos  Total    Cost      Usage
BITCOMMON            E      0       0       0        0.0%
EEDATA             100      0       0       0        0.0%
NULL                 0      0       0       0        0.0%
CODE                 0      0       0       0        0.0%
COMMON               E      E       E       1      100.0%
BITSFR0              0      0       0       1        0.0%
SFR0                 0      0       0       1        0.0%
BITSFR1              0      0       0       2        0.0%
SFR1                 0      0       0       2        0.0%
STACK                0      0       0       2        0.0%
ABS                  0      0      BA       3        0.0%
BITBANK0            50      0       0       4        0.0%
BITSFR3              0      0       0       4        0.0%
SFR3                 0      0       0       4        0.0%
BANK0               50     50      50       5      100.0%
BITSFR2              0      0       0       5        0.0%
SFR2                 0      0       0       5        0.0%
BITBANK1            50      0       0       6        0.0%
BANK1               50     4B      4D       7       96.2%
BITBANK3            60      0       0       8        0.0%
BANK3               60      0       F       9       15.6%
BITBANK2            60      0       0      10        0.0%
BANK2               60      0       0      11        0.0%
DATA                 0      0      BA      12        0.0%


Microchip Technology PIC Macro Assembler V2.41 build 20230208172133 
Symbol Table                                                                                   Fri Mar 31 12:42:27 2023

           ___fldiv@aexp 0068             ___fldiv@bexp 0067                        pc 0002  
           ___fldiv@sign 0060                       l39 1578                       l71 1470  
                     l80 14E8                       l65 145B                       l74 1485  
                     l83 0807                       l59 09C4                       l92 1539  
                     l68 149E                       l86 144C                       l95 001A  
                     l89 152F                       _GO 00FA                       l98 0024  
           ___awdiv@sign 0075                       fsr 0004      __Umul8_16@word_mpld 0076  
                    l501 0CBA                      l513 0C11                      l603 14FD  
                    l531 0CBA                      l348 086E                      l605 150F  
                    l509 0BE3                      l381 00B4                      l534 14C2  
                    l622 01C2                      l519 0C38                      l391 00B4  
                    l615 028A                      l560 1779                      l544 1687  
                    l546 17FF                      l650 1630                      l492 0B02  
                    l388 009F                      l661 15FA                      l566 17EB  
                    l590 0F6F                      l494 0ACF                      l662 1606  
                    l584 0FFF                      l488 0A42                      l648 159B  
                    _RD2 0042                      _RC4 003C                      _RD3 0043  
                    _dat 1471                      _cmd 145C                      fsr0 0004  
                    indf 0000             ___flmul@aexp 0047             ___flmul@bexp 0048  
           ___flmul@sign 0042             ___flmul@temp 004D             ___flmul@prod 0049  
           ___fltol@exp1 006E                     l2011 153F                     l2101 0812  
                   l2005 153D                     l2111 0823                     l2103 0814  
                   l2023 1543                     l2121 083B                     l2113 0829  
                   l2105 0818                     l2201 1654                     l2041 1549  
                   l2017 1541                     l2123 084C                     l2115 082C  
                   l2131 0860                     l2107 081D                     l2211 166A  
                   l2203 165C                     l2035 1547                     l2133 0865  
                   l2125 0852                     l2117 0833                     l2109 0821  
                   l2301 17AE                     l2213 166F                     l2221 167F  
                   l2205 1661                     l2141 0030                     l2061 1554  
                   l2053 154D                     l2029 1545                     ?_dat 0070  
                   l2135 086A                     l2127 0853                     l2119 0837  
                   l2311 17E2                     l2303 17B4                     l2223 168F  
                   l2231 16A8                     l2215 1674                     l2207 1665  
                   l2151 0065                     l2055 1552                     l2047 154B  
                   l2071 145D                     l2129 085A                     l2321 17F9  
                   l2313 17EA                     l2305 17C1                     l2241 16D0  
                   l2233 16AD                     l2225 169B                     l2217 167C  
                   l2209 1669                     l2401 0E69                     l2161 0073  
                   l2153 0067                     l2145 0039                     l2065 1556  
                   l2081 146D                     l2073 1461                     ?_cmd 0070  
                   l2315 17EF                     l2307 17CF                     l2251 16F9  
                   l2243 16D8                     l2227 169F                     l2219 167D  
                   l2411 0F1B                     l2403 0E94                     l2331 0CC0  
                   l2171 008C                     l2163 007C                     l2155 006B  
                   l2147 005C                     l2139 0025                     l2075 1462  
                   l2091 1479                     l2083 1472                     l2317 17F3  
                   l2309 17DE                     l2261 171A                     l2253 16FD  
                   l2245 16E0                     l2237 16B6                     l2421 0F40  
                   l2413 0F24                     l2405 0EA2                     l2341 0CD3  
                   l2333 0CC4                     l2173 00A4                     l2165 0085  
                   l2149 005D                     l2501 15F0                     l2077 1463  
                   l2093 1482                     l2085 1476                     l2095 0808  
                   l2319 17F5                     l2271 173C                     l2263 1728  
                   l2255 16FE                     l2247 16E2                     l2239 16C8  
                   l2191 163F                     l2183 1631                     l2431 0F58  
                   l2423 0F49                     l2415 0F32                     l2407 0ECD  
                   l2351 0CEE                     l2343 0CDB                     l2335 0CC8  
                   l2175 00A9                     l2511 1623                     l2503 15F4  
                   l2079 1464                     l2087 1477                     l2097 0809  
                   l2273 1745                     l2281 1759                     l2249 16E7  
                   l2257 1707                     l2265 172C                     l2193 1644  
                   l2185 1636                     l2441 0F87                     l2433 0F6C  
                   l2417 0F3B                     l2425 0F4F                     l2409 0EF3  
                   l2361 0D05                     l2353 0CF2                     l2345 0CDD  
                   l2337 0CC9                     l2329 0CBB                     l1801 09F7  
                   l2177 149F                     l2513 1627                     l2505 15FE  
                   l2521 0872                     l2089 1478                     l2601 00DD  
                   l2099 080D                     l2283 175D                     l2275 1749  
                   l2267 1732                     l2259 1719                     l2195 1649  
                   l2187 163A                     l2451 0FC2                     l2443 0F8B  
                   l2427 0F53                     l2419 0F3F                     l2363 0D07  
                   l2355 0CF3                     l2347 0CE5                     l2339 0CCE  
                   l1811 0A15                     l1803 0A01                     l2179 14A3  
                   l2515 1628                     l2507 1608                     l2531 0881  
                   l2523 0876                     l2603 00E3                     l2293 177E  
                   l2285 175E                     l2277 174A                     l2269 173A  
                   l2197 1651                     l2189 163E                     l2461 0FED  
                   l2453 0FD1                     l2445 0FA4                     l2437 0F74  
                   l2429 0F54                     l2381 0D74                     l2373 0D22  
                   l2365 0D0F                     l2357 0CF8                     l2349 0CEA  
                   l1901 0B4F                     l1821 0A33                     l1813 0A1B  
                   l1805 0A06                     l2509 161E                     l2541 092E  
                   l2533 0885                     l2621 0122                     l2613 00FA  
                   l2701 02AA                     l2295 1783                     l2287 1762  
                   l2279 1753                     l2199 1652                     l2463 0FEE  
                   l2455 0FDB                     l2439 0F79                     l2447 0FAA  
                   l2391 0DED                     l2383 0D9E                     l2375 0D30  
                   l2367 0D14                     l2359 0CFD                     l1911 0BBD  
                   l1903 0B5A                     l1831 0A52                     l1823 0A36  
                   l1815 0A1E                     l1807 0A0C                     l2471 157A  
                   l2543 0934                     l2535 08C4                     l2519 086F  
                   l2551 1486                     l2631 0143                     l2615 00FF  
                   l2607 00EB                     l2711 02BF                     l2703 02B2  
                   l2561 0800                     l2297 1791                     l2289 1776  
                   l2457 0FDD                     l2465 0FF3                     l2449 0FB7  
                   l2393 0E0A                     l2385 0DBA                     l2377 0D3D  
                   l2369 0D19                     l1921 0BF4                     l1913 0BBF  
                   l1905 0B61                     l1841 0A62                     l1833 0A54  
                   l1817 0A24                     l1825 0A38                     l1809 0A0D  
                   l2473 157F                     l2545 0936                     l2537 08C9  
                   l2529 0878                     l2553 14C3                     l2641 0167  
                   l2633 0149                     l2625 0133                     l2609 00F1  
                   l2801 07AC                     l2721 02E8                     l2713 02C5  
                   l2705 02B2                     l2563 0803                     l2571 152C  
                   l2299 1795                     l2467 0FF7                     l2459 0FE9  
                   l2395 0E18                     l2387 0DD6                     l2379 0D58  
                   l1931 0C16                     l1915 0BC4                     l1907 0B79  
                   l1851 0A7A                     l1843 0A68                     l1835 0A56  
                   l1827 0A4A                     l1819 0A29                     l2491 15C3  
                   l2483 15AC                     l2475 1583                     l2539 091A  
                   l2547 09B1                     l2555 14C4                     l2651 01E4  
                   l2643 0170                     l2635 0152                     l2627 0139  
                   l2619 011C                     l2811 07DC                     l2803 07B5  
                   l2731 0406                     l2723 0358                     l2715 02CE  
                   l2707 02BA                     l2565 1444                     l1781 144D  
                   l2573 1533                     l2581 0017                     l2397 0E35  
                   l2389 0DDF                     l1933 0C19                     l1925 0BFF  
                   l1909 0BB7                     l1917 0BD5                     l1941 0C28  
                   l1853 0A7E                     l1845 0A6C                     l1837 0A58  
                   l1829 0A4E                     l1861 0A92                     l2493 15C7  
                   l2485 15AF                     l2477 1593                     l2549 09B7  
                   l2557 14D2                     l2661 0243                     l2645 0172  
                   l2653 01E8                     l2637 015A                     l2629 013C  
                   l2805 07B8                     l2741 052D                     l2733 0414  
                   l2725 03A3                     l2717 02D5                     l2709 02BA  
                   l2567 1510                     l2583 001E                     l2399 0E4C  
                   l1951 0C3F                     l1943 0C2A                     l1935 0C1B  
                   l1927 0C08                     l1919 0BED                     l1871 0AE0  
                   l1863 0A94                     l1855 0A84                     l1847 0A70  
                   l1839 0A5E                     l1791 09DD                     l1783 09C5  
                   l2495 15D5                     l2487 15B3                     l2479 15A3  
                   l2559 14D8                     l2671 0274                     l2663 0247  
                   l2655 01EE                     l2647 018C                     l2639 0162  
                   l2591 00BE                     l2807 07C8                     l2751 0538  
                   l2743 0531                     l2735 0484                     l2727 03E2  
                   l2719 02DA                     l2569 1523                     l2577 000A  
                   l1953 0C45                     l1961 0C7D                     l1945 0C2E  
                   l1937 0C20                     l1929 0C0E                     l1881 0B06  
                   l1873 0AE6                     l1865 0AB1                     l1857 0A88  
                   l1849 0A76                     l1793 09E3                     l1785 09CC  
                   l2497 15DE                     l2489 15BC                     l2833 155B  
                   l2673 0278                     l2665 0260                     l2657 0207  
                   l2649 01B2                     l2593 00C2                     l2809 07CC  
                   l2761 0655                     l2753 0577                     l2745 0537  
                   l2737 04CF                     l2729 0401                     l1779 144D  
                   l2579 000E                     l1971 0C9A                     l1963 0C83  
                   l1955 0C55                     l1947 0C34                     l1939 0C22  
                   l1891 0B33                     l1883 0B0B                     l1875 0AE9  
                   l1867 0AD3                     l1859 0A8C                     l1795 09E8  
                   l1787 09D4                     l2499 15E5                     l2675 0279  
                   l2667 0266                     l2659 0213                     l2595 00C3  
                   l2587 00B5                     l2771 069E                     l2763 0674  
                   l2755 05B7                     l2747 0538                     l2739 050E  
                   l2691 0298                     l2683 028B                     l1981 0CB7  
                   l1973 0C9E                     l1965 0C88                     l1957 0C59  
                   l1893 0B39                     l1877 0AF4                     l1869 0ADE  
                   l1797 09F2                     l1789 09DA                     l2677 027E  
                   l2669 0272                     l2597 00D6                     l2589 00BA  
                   l2781 06D1                     l2773 06A7                     l2765 067A  
                   l2757 05D6                     l2749 0538                     l2693 029A  
                   l2685 028F                     l1991 1506                     l1983 14EA  
                   l1975 0CA2                     l1967 0C92                     l1959 0C79  
                   l1895 0B44                     l1887 0B16                     l1879 0AFA  
                   l1799 09F5                     l2679 0282                     l2599 00DC  
                   l2791 073F                     l2775 06BC                     l2767 0686  
                   l2783 06E1                     l2759 0615                     l2695 02A2  
                   l2687 0290                     l1993 150B                     l1985 14EC  
                   l1977 0CA8                     l1969 0C99                     l1897 0B46  
                   l1889 0B2F                     l2793 0748                     l2785 06E7  
                   l2777 06C5                     l2769 0695                     l2697 02A2  
                   l2689 0295                     l1987 14F3                     l1979 0CB1  
                   l1899 0B4C                     l2795 0751                     l2787 06F3  
                   l2779 06CE                     l2699 02AA                     l1989 14F7  
                   l1997 153A                     l2797 0790                     l2789 0732  
                   l1999 153B                     l2799 07A3                     STR_1 1020  
                   STR_2 1018                     STR_3 1010                     STR_4 1018  
                   STR_5 1010                     u2000 0B06                     u2001 0B05  
                   u2010 0B0B                     u2011 0B0A                     u2100 0BC4  
                   u2101 0BC3                     u2021 0B21                     u2110 0BED  
                   u2030 0B33                     u2022 0B28                     u2111 0BEC  
                   u2031 0B32                     u2023 0B2F                     u2200 0C3E  
                   u2120 0BF4                     u2040 0B39                     u3001 0E86  
                   u2201 0C3D                     u2121 0BF3                     u2041 0B38  
                   u3002 0E8D                     u2210 0C45                     u2050 0B4C  
                   u3011 0EB1                     u3003 0E94                     u2211 0C44  
                   u2051 0B4B                     u2300 14F7                     u3100 0F53  
                   u3020 0ED9                     u3012 0EB8                     u2220 0C59  
                   u2140 0C0E                     u2301 14F6                     u3101 0F52  
                   u3013 0EBF                     u2221 0C58                     u2141 0C0D  
                   u3110 0F58                     u2230 0C68                     u2150 0C16  
                   u2070 0B79                     u3111 0F57                     u3031 0EE5  
                   u2151 0C15                     u2135 0C01                     u2071 0B78  
                   u2400 084C                     u2320 150B                     u3120 0F6C  
                   u3040 0F01                     u3032 0EEC                     u2240 0C79  
                   u2160 0C20                     u3200 157F                     u2401 084B  
                   u2321 150A                     u3121 0F6B                     u3033 0EF3  
                   u3025 0ED4                     u2241 0C78                     u2161 0C1F  
                   u2081 0B90                     u2073 0B75                     u2065 0B53  
                   u3201 157E                     u3130 0F73                     u2250 0C83  
                   u2170 0C28                     u2090 0BA4                     u2082 0B91  
                   u3210 1583                     u2330 1552                     u2315 14FE  
                   u3131 0F72                     u3051 0F0D                     u2251 0C82  
                   u2235 0C63                     u2171 0C27                     u2091 0BA5  
                   u2083 0B96                     u3211 1582                     u2331 1551  
                   u2420 0860                     u2340 080D                     u3140 0F79  
                   u3052 0F14                     u2260 0C88                     u2180 0C2E  
                   u2092 0BAA                     u2084 0B97                     u2500 008B  
                   u3300 15FE                     u3220 15A3                     u2421 085F  
                   u2405 0848                     u2341 080C                     u3141 0F78  
                   u3053 0F1B                     u3045 0EFC                     u2261 0C87  
                   u2181 0C2D                     u2093 0BAB                     u2085 0B9C  
                   u2501 008A                     u3301 15FD                     u3221 15A2  
                   u2430 0865                     u2350 0818                     u3150 0F8B  
                   u2270 0C99                     u2190 0C34                     u2086 0B9D  
                   u3310 1613                     u2431 0864                     u2415 0854  
                   u2351 0817                     u3151 0F8A                     u2271 0C98  
                   u2191 0C33                     u3400 1533                     u2360 0829  
                   u2600 168F                     u3160 0F9A                     u3080 0F3F  
                   u2280 0C9E                     u2520 00A4                     u2440 0030  
                   u3320 1623                     u3240 15C2                     u3401 1532  
                   u2361 0828                     u2601 168E                     u3081 0F3E  
                   u3065 0F1D                     u2281 0C9D                     u2521 00A3  
                   u2441 002F                     u3321 1622                     u3241 15C1  
                   u3410 001E                     u2610 16AD                     u3170 0FB7  
                   u2290 0CB7                     u2530 00A9                     u2450 0055  
                   u3330 1627                     u3411 001D                     u2611 16AC  
                   u3171 0FB6                     u3075 0F34                     u2291 0CB6  
                   u2531 00A8                     u2515 0090                     u3331 1626  
                   u3315 160E                     u3235 15B4                     u2380 083B  
                   u2620 16E7                     u2540 163E                     u3180 0FD1  
                   u1900 0A29                     u2460 006B                     u3260 15E4  
                   u3340 0881                     u3420 00C2                     u2381 083A  
                   u2621 16E6                     u2541 163D                     u3181 0FD0  
                   u3165 0F95                     u1901 0A28                     u2461 006A  
                   u3261 15E3                     u3341 0880                     u3421 00C1  
                   u1830 145B                     u2710 1749                     u2550 1644  
                   u3190 0FED                     u1910 0A4A                     u2470 0072  
                   u3350 0934                     u3510 018C                     u3430 00DC  
                   u1831 145A                     u2375 082D                     u2711 1748  
                   u2551 1643                     u3191 0FEC                     u3175 0FB3  
                   u3095 0F42                     u1911 0A49                     u2471 0071  
                   u2455 0050                     u3255 15D6                     u3351 0933  
                   u3511 018B                     u3431 00DB                     u2800 17C1  
                   u2560 1649                     u1920 0A4E                     u1840 09DA  
                   u3280 15F4                     u3360 09C4                     u3600 0255  
                   u3440 00E3                     u2801 17C0                     u2705 173E  
                   u2561 1648                     u3185 0FCD                     u1921 0A4D  
                   u1841 09D9                     u3281 15F3                     u3361 09C3  
                   u3521 01A3                     u3505 0169                     u3441 00E2  
                   u2810 17DE                     u2730 175D                     u2650 16FD  
                   u2570 1669                     u1930 0AB1                     u1850 09E3  
                   u2490 0084                     u3290 15FA                     u3370 14E8  
                   u3610 0278                     u3530 01D0                     u3522 01AA  
                   u3450 00F1                     u2395 083C                     u2811 17DD  
                   u2731 175C                     u2651 16FC                     u2635 16E9  
                   u2571 1668                     u1931 0AB0                     u1851 09E2  
                   u2491 0083                     u3291 15F9                     u3275 15E9  
                   u3371 14E7                     u3611 0277                     u3523 01B1  
                   u3515 0188                     u3451 00F0                     u3380 151E  
                   u2820 17F3                     u2740 1762                     u2580 166F  
                   u2900 0D19                     u1940 0ABC                     u1860 09E8  
                   u3460 00FF                     u3620 0537                     u3381 151C  
                   u2821 17F2                     u2805 17BD                     u2741 1761  
                   u2725 174C                     u2645 16F2                     u2581 166E  
                   u2901 0D18                     u1941 0ABA                     u1861 09E7  
                   u2485 0074                     u3365 09C0                     u3605 0250  
                   u3461 00FE                     u3621 0536                     u3390 151F  
                   u2750 1776                     u2670 1719                     u2590 1674  
                   u2830 0CC8                     u1950 0ABD                     u1870 0A0C  
                   u3550 01EE                     u3470 0122                     u3630 067A  
                   u2815 17DA                     u2751 1775                     u2671 1718  
                   u2591 1673                     u2911 0D66                     u2831 0CC7  
                   u1935 0AAD                     u1871 0A0B                     u3551 01ED  
                   u3535 01CB                     u3471 0121                     u3631 0679  
                   u2760 177D                     u2680 1732                     u2912 0D6D  
                   u2840 0CCE                     u1960 0AD3                     u1880 0A1B  
                   u3560 01FC                     u3640 06E7                     u3385 1519  
                   u2761 177C                     u2681 1731                     u2665 1700  
                   u2921 0D82                     u2913 0D74                     u2841 0CCD  
                   u1961 0AD2                     u1881 0A1A                     u3545 01DD  
                   u3641 06E6                     u2770 1783                     u2690 173A  
                   u2922 0D89                     u2850 0CD3                     u1970 0AE6  
                   u1890 0A24                     u3570 0221                     u3490 0167  
                   u2771 1782                     u2691 1739                     u2675 1715  
                   u2931 0DAC                     u2923 0D90                     u2851 0CD2  
                   u1971 0AE5                     u1891 0A23                     u3491 0166  
                   u2780 1795                     u2932 0DB3                     u2860 0CF2  
                   u2781 1794                     u2941 0DC8                     u2933 0DBA  
                   u2861 0CF1                     u3581 0235                     u3565 01F7  
                   u3485 013E                     u2790 17A4                     u2942 0DCF  
                   u2870 0CF8                     u1990 0B02                     u3590 0247  
                   u3582 023C                     u2943 0DD6                     u2871 0CF7  
                   u1991 0B01                     u3591 0246                     u3583 0243  
                   u3575 021C                     u2880 0CFD                     u2961 0DFC  
                   u2881 0CFC                     u1985 0AED                     u3657 02D2  
                   u2962 0E03                     u2890 0D14                     u2795 179F  
                   u2971 0E27                     u2963 0E0A                     u2955 0DD8  
                   u2891 0D13                     u3667 07E0                     u2972 0E2E  
                   u2973 0E35                     u2991 0E5B                     u2992 0E62  
                   u2993 0E69                     u2985 0E37              main@val_ch0 00DB  
            main@val_ch1 00DF                     dat@b 0072                     cmd@a 0072  
                   _main 028B                     _show 14C3                     btemp 007E  
                   _sqrt 00B5         __end_of_ADC_Read 153A             main@adcValue 00D0  
                   start 0000          ___fldiv@new_exp 0061                    ??_dat 0072  
                  ??_cmd 0072            ___fltol@sign1 006D          __end_of___fladd 0CBB  
                  ?_main 0070          __end_of___fldiv 1800          __end_of___awdiv 086F  
        __end_of___flmul 1000                    ?_show 0073          __end_of___flsub 14C3  
        __end_of___fltol 00B5                    ?_sqrt 0070          ___awdiv@divisor 0070  
        ___awdiv@counter 0074                    _PORTB 0006                    _TRISB 0086  
                  _TRISD 0088                    _delay 144D                    _errno 00EB  
                  _num_s 153A                    pclath 000A             main@prom_ch0 00E3  
           main@prom_ch1 00E7                    show@s 0073                    sqrt@a 0070  
                  sqrt@i 0021             main@suma_ch0 00C8             main@suma_ch1 00CC  
                  sqrt@p 0026                    status 0003                    wtemp0 007E  
           _ADC_Init_CH0 0800             _ADC_Init_CH1 1444          __initialization 07E7  
           __end_of_main 07E7             __end_of_show 14E9             __end_of_sqrt 028B  
                 ??_main 006F                   ??_show 0075                   ??_sqrt 0074  
                 ?_delay 0070                   _ADCON0 001F                   _ADCON1 009F  
                 _ADRESH 001E                   _ADRESL 009E         ___awdiv@dividend 0072  
                 ?_num_s 0070             ??_ADC_Read_1 0074                   _TRISC4 043C  
       __end_of___xxtofl 1631         __end_of_lcd_init 149F                   _cadena 0190  
              ??___fladd 00A8                ??___fldiv 0057                ??___awdiv 0074  
              ??___flmul 003D                ??___flsub 007E                ??___fltol 00A0  
       ___awdiv@quotient 0076                   main@c2 00D2            float_LCD@flag 00BC  
     __end_of_ADC_Read_1 0025                ?_ADC_Read 0072            main@total_ch0 00D3  
          main@total_ch1 00D7             ___xxtofl@arg 007A             ___xxtofl@exp 0079  
           ___xxtofl@val 0070  __end_of__initialization 07FC               ___fltol@f1 0069  
         __pcstackCOMMON 0070            __end_of_delay 145C            __end_of_num_s 1579  
             ??_ADC_Read 0074                  ??_delay 0072                  ??_num_s 0073  
             __pbssBANK1 00EB               __pbssBANK3 0190        __end_of__Umul8_16 1510  
             __pmaintext 028B                ?___xxtofl 0070                  _GO_DONE 00FA  
              ?_lcd_init 0070               __stringtab 1000     ADC_Read_1@adcChannel 0072  
                ___fladd 09C5                  ___fldiv 1631        __end_of_float_LCD 09C5  
                ___awdiv 0808                  ___flmul 0CBB                  ___flsub 149F  
                ___fltol 0025                  __ptext1 00B5                  __ptext2 14C3  
                __ptext3 1471                  __ptext4 1486                  __ptext5 145C  
                __ptext6 086F                  __ptext7 153A                  __ptext8 1579  
                __ptext9 0025               ??___xxtofl 0074               ??_lcd_init 0073  
   end_of_initialization 07FC           float_LCD@value 00B8                  sqrt@grs 0027  
                sqrt@exp 002B              ___fladd@grs 006C            ___xxtofl@sign 0078  
            ___fldiv@grs 0063              ___fldiv@rem 005C              ___flmul@grs 0043  
             float_LCD@i 00C1      start_initialization 07E7              __end_of_dat 1486  
            __end_of_cmd 1471                __Umul8_16 14E9       ADC_Read@adcChannel 0072  
              ___fladd@a 00A4                ___fladd@b 00A0                ___fldiv@a 004F  
              ___fldiv@b 0053                ___flmul@a 0039                ___flmul@b 0035  
              ___flsub@a 00B0                ___flsub@b 00B4                ___latbits 0002  
          __pcstackBANK0 0020            __pcstackBANK1 00A0            ?_ADC_Init_CH0 0070  
          ?_ADC_Init_CH1 0070                 ?___fladd 00A0                 ?___fldiv 004F  
               ?___awdiv 0070                 ?___flmul 0035                 ?___flsub 00B0  
               ?___fltol 0069               ?__Umul8_16 0070                __pstrings 1000  
              _float_LCD 086F                 _ADC_Read 1510           ??_ADC_Init_CH0 0070  
         ??_ADC_Init_CH1 0070               ?_float_LCD 00B8              __stringbase 100F  
              main@count 00C3               _ADC_Read_1 000A              ??__Umul8_16 0072  
     __end_of__stringtab 1010                 ___xxtofl 1579                 _main$779 00C4  
               __ptext10 149F                 __ptext11 09C5                 __ptext20 0800  
               __ptext12 0CBB                 __ptext13 14E9                 __ptext14 1631  
               __ptext15 0808                 __ptext16 000A                 __ptext17 1510  
               __ptext18 144D                 __ptext19 1444                 _lcd_init 1486  
               delay@cnt 0070                num_s@flag 0072              ??_float_LCD 007E  
        float_LCD@pow_10 00BF          float_LCD@v_temp 00BD     __end_of_ADC_Init_CH0 0808  
   __end_of_ADC_Init_CH1 144D                sqrt@tfrac 0022              ?_ADC_Read_1 0072  
              stringcode 100A                 num_s@val 0070                 sqrt@frac 0031  
               sqrt@sign 0020                 sqrt@root 002D   __Umul8_16@multiplicand 0070  
               stringdir 100A                 stringtab 1000            ___fladd@signs 0069  
           ___fladd@aexp 006A             ___fladd@bexp 006B     __Umul8_16@multiplier 0078  
      __Umul8_16@product 0074  
